---
triple:          'arm64-apple-darwin'
binary-path:     smoke_test
relocations:
  - { offsetInCU: 0x5C, offset: 0x5C, size: 0x8, addend: 0x0, symName: __ZNSt3__119piecewise_constructE, symObjAddr: 0x26982, symBinAddr: 0x10002901A, symSize: 0x0 }
  - { offsetInCU: 0x8D, offset: 0x8D, size: 0x8, addend: 0x0, symName: __ZNSt3__17nulloptE, symObjAddr: 0x26AAB, symBinAddr: 0x100029143, symSize: 0x0 }
  - { offsetInCU: 0xE2, offset: 0xE2, size: 0x8, addend: 0x0, symName: __ZNSt3__18in_placeE, symObjAddr: 0x26ACA, symBinAddr: 0x100029162, symSize: 0x0 }
  - { offsetInCU: 0xD530, offset: 0xD530, size: 0x8, addend: 0x0, symName: __ZNSt3__17advanceB8ue170006INS_21__tree_const_iteratorINS_12__value_typeINS_12basic_stringIcNS_11char_traitsIcEENS_9allocatorIcEEEEdEEPNS_11__tree_nodeIS9_PvEElEEllvEEvRT_T0_, symObjAddr: 0xE9C0, symBinAddr: 0x10000FCB4, symSize: 0x38 }
  - { offsetInCU: 0xD7D3, offset: 0xD7D3, size: 0x8, addend: 0x0, symName: __ZNSt3__17advanceB8ue170006IPNS_3mapINS_12basic_stringIcNS_11char_traitsIcEENS_9allocatorIcEEEEdNS_4lessIS7_EENS5_INS_4pairIKS7_dEEEEEEllvEEvRT_T0_, symObjAddr: 0xF8E8, symBinAddr: 0x100010BDC, symSize: 0x38 }
  - { offsetInCU: 0xDC3B, offset: 0xDC3B, size: 0x8, addend: 0x0, symName: __ZNSt3__124__put_character_sequenceB8ue170006IcNS_11char_traitsIcEEEERNS_13basic_ostreamIT_T0_EES7_PKS4_m, symObjAddr: 0x17674, symBinAddr: 0x100018968, symSize: 0x1EC }
  - { offsetInCU: 0x11A30, offset: 0x11A30, size: 0x8, addend: 0x0, symName: __ZNSt3__17advanceB8ue170006INS_21__tree_const_iteratorINS_12__value_typeINS_12basic_stringIcNS_11char_traitsIcEENS_9allocatorIcEEEENS_6vectorINS_3mapIS8_dNS_4lessIS8_EENS6_INS_4pairIKS8_dEEEEEENS6_ISH_EEEEEEPNS_11__tree_nodeISK_PvEElEEllvEEvRT_T0_, symObjAddr: 0x22078, symBinAddr: 0x10002336C, symSize: 0x38 }
  - { offsetInCU: 0x11E0E, offset: 0x11E0E, size: 0x8, addend: 0x0, symName: __ZNSt3__17advanceB8ue170006INS_16reverse_iteratorIPNS_3mapINS_12basic_stringIcNS_11char_traitsIcEENS_9allocatorIcEEEEdNS_4lessIS8_EENS6_INS_4pairIKS8_dEEEEEEEEllvEEvRT_T0_, symObjAddr: 0x24858, symBinAddr: 0x100025B4C, symSize: 0x38 }
  - { offsetInCU: 0x1325E, offset: 0x1325E, size: 0x8, addend: 0x0, symName: __ZNSt3__1neB8ue170006ERKNS_20__map_const_iteratorINS_21__tree_const_iteratorINS_12__value_typeINS_12basic_stringIcNS_11char_traitsIcEENS_9allocatorIcEEEEN5utils10TypeErasedEEEPNS_11__tree_nodeISB_PvEElEEEESJ_, symObjAddr: 0x88C, symBinAddr: 0x100001B80, symSize: 0x30 }
  - { offsetInCU: 0x1329B, offset: 0x1329B, size: 0x8, addend: 0x0, symName: __ZNSt3__13getB8ue170006ILm0EKNS_12basic_stringIcNS_11char_traitsIcEENS_9allocatorIcEEEEN5utils10TypeErasedEEEONS_13tuple_elementIXT_ENS_4pairIT0_T1_EEE4typeEOSE_, symObjAddr: 0x918, symBinAddr: 0x100001C0C, symSize: 0x24 }
  - { offsetInCU: 0x132E5, offset: 0x132E5, size: 0x8, addend: 0x0, symName: __ZNSt3__13getB8ue170006ILm1EKNS_12basic_stringIcNS_11char_traitsIcEENS_9allocatorIcEEEEN5utils10TypeErasedEEEONS_13tuple_elementIXT_ENS_4pairIT0_T1_EEE4typeEOSE_, symObjAddr: 0x93C, symBinAddr: 0x100001C30, symSize: 0x24 }
  - { offsetInCU: 0x1332F, offset: 0x1332F, size: 0x8, addend: 0x0, symName: __ZNSt3__1lsB8ue170006INS_11char_traitsIcEEEERNS_13basic_ostreamIcT_EES6_PKc, symObjAddr: 0x1894, symBinAddr: 0x100002B88, symSize: 0x48 }
  - { offsetInCU: 0x13375, offset: 0x13375, size: 0x8, addend: 0x0, symName: __ZNSt3__1eqB8ue170006INS_12basic_stringIcNS_11char_traitsIcEENS_9allocatorIcEEEENS_6vectorINS_3mapIS6_dNS_4lessIS6_EENS4_INS_4pairIKS6_dEEEEEENS4_ISF_EEEESA_NS4_INSB_ISC_SH_EEEEEEbRKNS8_IT_T0_T1_T2_EESQ_, symObjAddr: 0x4848, symBinAddr: 0x100005B3C, symSize: 0x98 }
  - { offsetInCU: 0x13630, offset: 0x13630, size: 0x8, addend: 0x0, symName: __ZNSt3__13getB8ue170006ILm0EKNS_12basic_stringIcNS_11char_traitsIcEENS_9allocatorIcEEEEN5utils10TypeErasedEEERKNS_13tuple_elementIXT_ENS_4pairIT0_T1_EEE4typeERKSE_, symObjAddr: 0x5500, symBinAddr: 0x1000067F4, symSize: 0x24 }
  - { offsetInCU: 0x1367A, offset: 0x1367A, size: 0x8, addend: 0x0, symName: __ZNSt3__13getB8ue170006ILm1EKNS_12basic_stringIcNS_11char_traitsIcEENS_9allocatorIcEEEEN5utils10TypeErasedEEERKNS_13tuple_elementIXT_ENS_4pairIT0_T1_EEE4typeERKSE_, symObjAddr: 0x5524, symBinAddr: 0x100006818, symSize: 0x24 }
  - { offsetInCU: 0x13898, offset: 0x13898, size: 0x8, addend: 0x0, symName: __ZNSt3__116forward_as_tupleB8ue170006IJRKNS_12basic_stringIcNS_11char_traitsIcEENS_9allocatorIcEEEEEEENS_5tupleIJDpOT_EEESC_, symObjAddr: 0x5B30, symBinAddr: 0x100006E24, symSize: 0x2C }
  - { offsetInCU: 0x138D1, offset: 0x138D1, size: 0x8, addend: 0x0, symName: __ZNSt3__116forward_as_tupleB8ue170006IJEEENS_5tupleIJDpOT_EEES4_, symObjAddr: 0x5B5C, symBinAddr: 0x100006E50, symSize: 0x4 }
  - { offsetInCU: 0x138F5, offset: 0x138F5, size: 0x8, addend: 0x0, symName: __ZNSt3__1ltB8ue170006ENS_15strong_orderingENS_20_CmpUnspecifiedParamE, symObjAddr: 0x6244, symBinAddr: 0x100007538, symSize: 0x24 }
  - { offsetInCU: 0x1392E, offset: 0x1392E, size: 0x8, addend: 0x0, symName: __ZNSt3__1ssB8ue170006IcNS_11char_traitsIcEENS_9allocatorIcEEEEDaRKNS_12basic_stringIT_T0_T1_EESC_, symObjAddr: 0x6268, symBinAddr: 0x10000755C, symSize: 0x5C }
  - { offsetInCU: 0x139A2, offset: 0x139A2, size: 0x8, addend: 0x0, symName: __ZNSt3__1ssB8ue170006IcNS_11char_traitsIcEEEEDaNS_17basic_string_viewIT_T0_EES7_, symObjAddr: 0x62F8, symBinAddr: 0x1000075EC, symSize: 0x7C }
  - { offsetInCU: 0x139F1, offset: 0x139F1, size: 0x8, addend: 0x0, symName: __ZNSt3__13minB8ue170006ImEERKT_S3_S3_, symObjAddr: 0x6500, symBinAddr: 0x1000077F4, symSize: 0x2C }
  - { offsetInCU: 0x13A34, offset: 0x13A34, size: 0x8, addend: 0x0, symName: __ZNSt3__13minB8ue170006ImNS_6__lessIvvEEEERKT_S5_S5_T0_, symObjAddr: 0x6590, symBinAddr: 0x100007884, symSize: 0x54 }
  - { offsetInCU: 0x13AD3, offset: 0x13AD3, size: 0x8, addend: 0x0, symName: __ZNSt3__112__to_addressB8ue170006IKcEEPT_S3_, symObjAddr: 0x66D0, symBinAddr: 0x1000079C4, symSize: 0x14 }
  - { offsetInCU: 0x13B3B, offset: 0x13B3B, size: 0x8, addend: 0x0, symName: __ZNSt3__17launderB8ue170006IKNS_4pairIKNS_12basic_stringIcNS_11char_traitsIcEENS_9allocatorIcEEEEN5utils10TypeErasedEEEEEPT_SE_, symObjAddr: 0x68AC, symBinAddr: 0x100007BA0, symSize: 0x24 }
  - { offsetInCU: 0x13B72, offset: 0x13B72, size: 0x8, addend: 0x0, symName: __ZNSt3__19__launderB8ue170006IKNS_4pairIKNS_12basic_stringIcNS_11char_traitsIcEENS_9allocatorIcEEEEN5utils10TypeErasedEEEEEPT_SE_, symObjAddr: 0x68D0, symBinAddr: 0x100007BC4, symSize: 0x14 }
  - { offsetInCU: 0x13BC7, offset: 0x13BC7, size: 0x8, addend: 0x0, symName: __ZNSt3__117__libcpp_allocateB8ue170006Emm, symObjAddr: 0x6B58, symBinAddr: 0x100007E4C, symSize: 0x60 }
  - { offsetInCU: 0x13E0D, offset: 0x13E0D, size: 0x8, addend: 0x0, symName: __ZNSt3__124__is_overaligned_for_newB8ue170006Em, symObjAddr: 0x6BD4, symBinAddr: 0x100007EC8, symSize: 0x20 }
  - { offsetInCU: 0x13E3B, offset: 0x13E3B, size: 0x8, addend: 0x0, symName: __ZNSt3__121__libcpp_operator_newB8ue170006IJmSt11align_val_tEEEPvDpT_, symObjAddr: 0x6BF4, symBinAddr: 0x100007EE8, symSize: 0x2C }
  - { offsetInCU: 0x13E88, offset: 0x13E88, size: 0x8, addend: 0x0, symName: __ZNSt3__121__libcpp_operator_newB8ue170006IJmEEEPvDpT_, symObjAddr: 0x6C20, symBinAddr: 0x100007F14, symSize: 0x24 }
  - { offsetInCU: 0x13EE6, offset: 0x13EE6, size: 0x8, addend: 0x0, symName: __ZNSt3__112construct_atB8ue170006INS_4pairIKNS_12basic_stringIcNS_11char_traitsIcEENS_9allocatorIcEEEEN5utils10TypeErasedEEEJRKNS_21piecewise_construct_tENS_5tupleIJRS8_EEENSF_IJEEEEPSB_EEPT_SL_DpOT0_, symObjAddr: 0x6D90, symBinAddr: 0x100008084, symSize: 0x50 }
  - { offsetInCU: 0x13F87, offset: 0x13F87, size: 0x8, addend: 0x0, symName: __ZNSt3__13getB8ue170006ILm0EJRKNS_12basic_stringIcNS_11char_traitsIcEENS_9allocatorIcEEEEEEERNS_13tuple_elementIXT_ENS_5tupleIJDpT0_EEEE4typeERSD_, symObjAddr: 0x6EAC, symBinAddr: 0x1000081A0, symSize: 0x24 }
  - { offsetInCU: 0x13FCB, offset: 0x13FCB, size: 0x8, addend: 0x0, symName: __ZNSt3__127__tree_balance_after_insertB8ue170006IPNS_16__tree_node_baseIPvEEEEvT_S5_, symObjAddr: 0x70C0, symBinAddr: 0x1000083B4, symSize: 0x32C }
  - { offsetInCU: 0x14046, offset: 0x14046, size: 0x8, addend: 0x0, symName: __ZNSt3__120__tree_is_left_childB8ue170006IPNS_16__tree_node_baseIPvEEEEbT_, symObjAddr: 0x742C, symBinAddr: 0x100008720, symSize: 0x2C }
  - { offsetInCU: 0x1407C, offset: 0x1407C, size: 0x8, addend: 0x0, symName: __ZNSt3__118__tree_left_rotateB8ue170006IPNS_16__tree_node_baseIPvEEEEvT_, symObjAddr: 0x7458, symBinAddr: 0x10000874C, symSize: 0xD8 }
  - { offsetInCU: 0x140BE, offset: 0x140BE, size: 0x8, addend: 0x0, symName: __ZNSt3__119__tree_right_rotateB8ue170006IPNS_16__tree_node_baseIPvEEEEvT_, symObjAddr: 0x7530, symBinAddr: 0x100008824, symSize: 0xCC }
  - { offsetInCU: 0x140FF, offset: 0x140FF, size: 0x8, addend: 0x0, symName: __ZNSt3__110destroy_atB8ue170006INS_4pairIKNS_12basic_stringIcNS_11char_traitsIcEENS_9allocatorIcEEEEN5utils10TypeErasedEEELi0EEEvPT_, symObjAddr: 0x7828, symBinAddr: 0x100008B1C, symSize: 0x24 }
  - { offsetInCU: 0x14136, offset: 0x14136, size: 0x8, addend: 0x0, symName: __ZNSt3__112__destroy_atB8ue170006INS_4pairIKNS_12basic_stringIcNS_11char_traitsIcEENS_9allocatorIcEEEEN5utils10TypeErasedEEELi0EEEvPT_, symObjAddr: 0x784C, symBinAddr: 0x100008B40, symSize: 0x24 }
  - { offsetInCU: 0x1416E, offset: 0x1416E, size: 0x8, addend: 0x0, symName: __ZNSt3__119__libcpp_deallocateB8ue170006EPvmm, symObjAddr: 0x78B0, symBinAddr: 0x100008BA4, symSize: 0x60 }
  - { offsetInCU: 0x141D3, offset: 0x141D3, size: 0x8, addend: 0x0, symName: __ZNSt3__127__do_deallocate_handle_sizeB8ue170006IJSt11align_val_tEEEvPvmDpT_, symObjAddr: 0x7910, symBinAddr: 0x100008C04, symSize: 0x30 }
  - { offsetInCU: 0x14226, offset: 0x14226, size: 0x8, addend: 0x0, symName: __ZNSt3__127__do_deallocate_handle_sizeB8ue170006IJEEEvPvmDpT_, symObjAddr: 0x7940, symBinAddr: 0x100008C34, symSize: 0x28 }
  - { offsetInCU: 0x14264, offset: 0x14264, size: 0x8, addend: 0x0, symName: __ZNSt3__124__libcpp_operator_deleteB8ue170006IJPvSt11align_val_tEEEvDpT_, symObjAddr: 0x7968, symBinAddr: 0x100008C5C, symSize: 0x2C }
  - { offsetInCU: 0x142AD, offset: 0x142AD, size: 0x8, addend: 0x0, symName: __ZNSt3__124__libcpp_operator_deleteB8ue170006IJPvEEEvDpT_, symObjAddr: 0x7994, symBinAddr: 0x100008C88, symSize: 0x24 }
  - { offsetInCU: 0x14338, offset: 0x14338, size: 0x8, addend: 0x0, symName: __ZNSt3__17launderB8ue170006INS_4pairIKNS_12basic_stringIcNS_11char_traitsIcEENS_9allocatorIcEEEEN5utils10TypeErasedEEEEEPT_SD_, symObjAddr: 0x7B2C, symBinAddr: 0x100008E20, symSize: 0x24 }
  - { offsetInCU: 0x1436F, offset: 0x1436F, size: 0x8, addend: 0x0, symName: __ZNSt3__19__launderB8ue170006INS_4pairIKNS_12basic_stringIcNS_11char_traitsIcEENS_9allocatorIcEEEEN5utils10TypeErasedEEEEEPT_SD_, symObjAddr: 0x7B50, symBinAddr: 0x100008E44, symSize: 0x14 }
  - { offsetInCU: 0x143A6, offset: 0x143A6, size: 0x8, addend: 0x0, symName: __ZNSt3__14swapB8ue170006IN5utils10TypeErased4BaseENS_14default_deleteIS3_EEEENS_9enable_ifIXsr14__is_swappableIT0_EE5valueEvE4typeERNS_10unique_ptrIT_S7_EESD_, symObjAddr: 0x7F40, symBinAddr: 0x100009234, symSize: 0x2C }
  - { offsetInCU: 0x143F5, offset: 0x143F5, size: 0x8, addend: 0x0, symName: __ZNSt3__14swapB8ue170006IPN5utils10TypeErased4BaseEEENS_9enable_ifIXaasr21is_move_constructibleIT_EE5valuesr18is_move_assignableIS6_EE5valueEvE4typeERS6_S9_, symObjAddr: 0x7FFC, symBinAddr: 0x1000092F0, symSize: 0x3C }
  - { offsetInCU: 0x14446, offset: 0x14446, size: 0x8, addend: 0x0, symName: __ZNSt3__14swapB8ue170006INS_14default_deleteIN5utils10TypeErased4BaseEEEEENS_9enable_ifIXaasr21is_move_constructibleIT_EE5valuesr18is_move_assignableIS7_EE5valueEvE4typeERS7_SA_, symObjAddr: 0x8038, symBinAddr: 0x10000932C, symSize: 0x14 }
  - { offsetInCU: 0x14497, offset: 0x14497, size: 0x8, addend: 0x0, symName: __ZNSt3__1eqB8ue170006ERKNS_20__map_const_iteratorINS_21__tree_const_iteratorINS_12__value_typeINS_12basic_stringIcNS_11char_traitsIcEENS_9allocatorIcEEEEN5utils10TypeErasedEEEPNS_11__tree_nodeISB_PvEElEEEESJ_, symObjAddr: 0x878C, symBinAddr: 0x100009A80, symSize: 0x30 }
  - { offsetInCU: 0x144D4, offset: 0x144D4, size: 0x8, addend: 0x0, symName: __ZNSt3__1neB8ue170006ERKNS_21__tree_const_iteratorINS_12__value_typeINS_12basic_stringIcNS_11char_traitsIcEENS_9allocatorIcEEEEN5utils10TypeErasedEEEPNS_11__tree_nodeISA_PvEElEESH_, symObjAddr: 0x8A70, symBinAddr: 0x100009D64, symSize: 0x34 }
  - { offsetInCU: 0x14511, offset: 0x14511, size: 0x8, addend: 0x0, symName: __ZNSt3__1eqB8ue170006ERKNS_21__tree_const_iteratorINS_12__value_typeINS_12basic_stringIcNS_11char_traitsIcEENS_9allocatorIcEEEEN5utils10TypeErasedEEEPNS_11__tree_nodeISA_PvEElEESH_, symObjAddr: 0x8AF4, symBinAddr: 0x100009DE8, symSize: 0x30 }
  - { offsetInCU: 0x145B5, offset: 0x145B5, size: 0x8, addend: 0x0, symName: __ZNSt3__127__throw_bad_optional_accessB8ue170006Ev, symObjAddr: 0xA618, symBinAddr: 0x10000B90C, symSize: 0x38 }
  - { offsetInCU: 0x145CE, offset: 0x145CE, size: 0x8, addend: 0x0, symName: __ZNSt3__118__constexpr_strlenB8ue170006EPKc, symObjAddr: 0xB63C, symBinAddr: 0x10000C930, symSize: 0x24 }
  - { offsetInCU: 0x145FA, offset: 0x145FA, size: 0x8, addend: 0x0, symName: __ZNSt3__1eqB8ue170006INS_12basic_stringIcNS_11char_traitsIcEENS_9allocatorIcEEEEN5utils10TypeErasedENS_4lessIS6_EENS4_INS_4pairIKS6_S8_EEEEEEbRKNS_3mapIT_T0_T1_T2_EESM_, symObjAddr: 0xBBC4, symBinAddr: 0x10000CEB8, symSize: 0x98 }
  - { offsetInCU: 0x1465B, offset: 0x1465B, size: 0x8, addend: 0x0, symName: __ZNSt3__15equalB8ue170006INS_20__map_const_iteratorINS_21__tree_const_iteratorINS_12__value_typeINS_12basic_stringIcNS_11char_traitsIcEENS_9allocatorIcEEEEN5utils10TypeErasedEEEPNS_11__tree_nodeISC_PvEElEEEESI_EEbT_SJ_T0_, symObjAddr: 0xBC84, symBinAddr: 0x10000CF78, symSize: 0x50 }
  - { offsetInCU: 0x146B5, offset: 0x146B5, size: 0x8, addend: 0x0, symName: __ZNSt3__15equalB8ue170006INS_20__map_const_iteratorINS_21__tree_const_iteratorINS_12__value_typeINS_12basic_stringIcNS_11char_traitsIcEENS_9allocatorIcEEEEN5utils10TypeErasedEEEPNS_11__tree_nodeISC_PvEElEEEESI_NS_10__equal_toEEEbT_SK_T0_T1_, symObjAddr: 0xBD34, symBinAddr: 0x10000D028, symSize: 0x78 }
  - { offsetInCU: 0x14726, offset: 0x14726, size: 0x8, addend: 0x0, symName: __ZNSt3__117__equal_iter_implB8ue170006INS_20__map_const_iteratorINS_21__tree_const_iteratorINS_12__value_typeINS_12basic_stringIcNS_11char_traitsIcEENS_9allocatorIcEEEEN5utils10TypeErasedEEEPNS_11__tree_nodeISC_PvEElEEEESI_NS_10__equal_toEEEbT_SK_T0_RT1_, symObjAddr: 0xBDAC, symBinAddr: 0x10000D0A0, symSize: 0xBC }
  - { offsetInCU: 0x14797, offset: 0x14797, size: 0x8, addend: 0x0, symName: __ZNSt3__113__unwrap_iterB8ue170006INS_20__map_const_iteratorINS_21__tree_const_iteratorINS_12__value_typeINS_12basic_stringIcNS_11char_traitsIcEENS_9allocatorIcEEEEN5utils10TypeErasedEEEPNS_11__tree_nodeISC_PvEElEEEENS_18__unwrap_iter_implISI_Lb0EEELi0EEEDTclsrT0_8__unwrapclsr3stdE7declvalIT_EEEESM_, symObjAddr: 0xBE68, symBinAddr: 0x10000D15C, symSize: 0x34 }
  - { offsetInCU: 0x148A9, offset: 0x148A9, size: 0x8, addend: 0x0, symName: __ZNSt3__1eqB8ue170006IKNS_12basic_stringIcNS_11char_traitsIcEENS_9allocatorIcEEEEN5utils10TypeErasedES7_S9_EEbRKNS_4pairIT_T0_EERKNSA_IT1_T2_EE, symObjAddr: 0xBED0, symBinAddr: 0x10000D1C4, symSize: 0x60 }
  - { offsetInCU: 0x1490A, offset: 0x1490A, size: 0x8, addend: 0x0, symName: __ZNSt3__1eqB8ue170006INS_9allocatorIcEEEEbRKNS_12basic_stringIcNS_11char_traitsIcEET_EES9_, symObjAddr: 0xBF30, symBinAddr: 0x10000D224, symSize: 0x148 }
  - { offsetInCU: 0x149C5, offset: 0x149C5, size: 0x8, addend: 0x0, symName: __ZNSt3__122__make_exception_guardB8ue170006INS_6vectorINS_3mapINS_12basic_stringIcNS_11char_traitsIcEENS_9allocatorIcEEEEdNS_4lessIS8_EENS6_INS_4pairIKS8_dEEEEEENS6_ISF_EEE16__destroy_vectorEEENS_28__exception_guard_exceptionsIT_EESK_, symObjAddr: 0xC6D0, symBinAddr: 0x10000D9C4, symSize: 0x40 }
  - { offsetInCU: 0x149FA, offset: 0x149FA, size: 0x8, addend: 0x0, symName: __ZNSt3__119__allocate_at_leastB8ue170006INS_9allocatorINS_3mapINS_12basic_stringIcNS_11char_traitsIcEENS1_IcEEEEdNS_4lessIS7_EENS1_INS_4pairIKS7_dEEEEEEEEEENS_19__allocation_resultINS_16allocator_traitsIT_E7pointerEEERSI_m, symObjAddr: 0xCAE0, symBinAddr: 0x10000DDD4, symSize: 0x40 }
  - { offsetInCU: 0x14C28, offset: 0x14C28, size: 0x8, addend: 0x0, symName: __ZNSt3__120__throw_length_errorB8ue170006EPKc, symObjAddr: 0xCCDC, symBinAddr: 0x10000DFD0, symSize: 0x64 }
  - { offsetInCU: 0x14C52, offset: 0x14C52, size: 0x8, addend: 0x0, symName: __ZNSt3__112__to_addressB8ue170006INS_3mapINS_12basic_stringIcNS_11char_traitsIcEENS_9allocatorIcEEEEdNS_4lessIS7_EENS5_INS_4pairIKS7_dEEEEEEEEPT_SG_, symObjAddr: 0xCF14, symBinAddr: 0x10000E208, symSize: 0x14 }
  - { offsetInCU: 0x14C87, offset: 0x14C87, size: 0x8, addend: 0x0, symName: __ZNSt3__130__uninitialized_allocator_copyB8ue170006INS_9allocatorINS_3mapINS_12basic_stringIcNS_11char_traitsIcEENS1_IcEEEEdNS_4lessIS7_EENS1_INS_4pairIKS7_dEEEEEEEEPKSE_SH_PSE_EET2_RT_T0_T1_SJ_, symObjAddr: 0xCFC4, symBinAddr: 0x10000E2B8, symSize: 0x80 }
  - { offsetInCU: 0x14D24, offset: 0x14D24, size: 0x8, addend: 0x0, symName: __ZNSt3__114__unwrap_rangeB8ue170006IPKNS_3mapINS_12basic_stringIcNS_11char_traitsIcEENS_9allocatorIcEEEEdNS_4lessIS7_EENS5_INS_4pairIKS7_dEEEEEESG_EEDaT_T0_, symObjAddr: 0xD0BC, symBinAddr: 0x10000E3B0, symSize: 0x3C }
  - { offsetInCU: 0x14D70, offset: 0x14D70, size: 0x8, addend: 0x0, symName: __ZNSt3__135__uninitialized_allocator_copy_implB8ue170006INS_9allocatorINS_3mapINS_12basic_stringIcNS_11char_traitsIcEENS1_IcEEEEdNS_4lessIS7_EENS1_INS_4pairIKS7_dEEEEEEEEPKSE_SH_PSE_EET2_RT_T0_T1_SJ_, symObjAddr: 0xD0F8, symBinAddr: 0x10000E3EC, symSize: 0xF4 }
  - { offsetInCU: 0x14E0E, offset: 0x14E0E, size: 0x8, addend: 0x0, symName: __ZNSt3__113__unwrap_iterB8ue170006IPNS_3mapINS_12basic_stringIcNS_11char_traitsIcEENS_9allocatorIcEEEEdNS_4lessIS7_EENS5_INS_4pairIKS7_dEEEEEENS_18__unwrap_iter_implISF_Lb1EEELi0EEEDTclsrT0_8__unwrapclsr3stdE7declvalIT_EEEESJ_, symObjAddr: 0xD1EC, symBinAddr: 0x10000E4E0, symSize: 0x24 }
  - { offsetInCU: 0x14E52, offset: 0x14E52, size: 0x8, addend: 0x0, symName: __ZNSt3__113__rewrap_iterB8ue170006IPNS_3mapINS_12basic_stringIcNS_11char_traitsIcEENS_9allocatorIcEEEEdNS_4lessIS7_EENS5_INS_4pairIKS7_dEEEEEESF_NS_18__unwrap_iter_implISF_Lb1EEEEET_SI_T0_, symObjAddr: 0xD210, symBinAddr: 0x10000E504, symSize: 0x3C }
  - { offsetInCU: 0x14FA9, offset: 0x14FA9, size: 0x8, addend: 0x0, symName: __ZNSt3__113__unwrap_iterB8ue170006IPKNS_3mapINS_12basic_stringIcNS_11char_traitsIcEENS_9allocatorIcEEEEdNS_4lessIS7_EENS5_INS_4pairIKS7_dEEEEEENS_18__unwrap_iter_implISG_Lb1EEELi0EEEDTclsrT0_8__unwrapclsr3stdE7declvalIT_EEEESK_, symObjAddr: 0xD2A4, symBinAddr: 0x10000E598, symSize: 0x24 }
  - { offsetInCU: 0x15040, offset: 0x15040, size: 0x8, addend: 0x0, symName: __ZNSt3__112__to_addressB8ue170006IKNS_3mapINS_12basic_stringIcNS_11char_traitsIcEENS_9allocatorIcEEEEdNS_4lessIS7_EENS5_INS_4pairIKS7_dEEEEEEEEPT_SH_, symObjAddr: 0xD328, symBinAddr: 0x10000E61C, symSize: 0x14 }
  - { offsetInCU: 0x15075, offset: 0x15075, size: 0x8, addend: 0x0, symName: __ZNSt3__122__make_exception_guardB8ue170006INS_29_AllocatorDestroyRangeReverseINS_9allocatorINS_3mapINS_12basic_stringIcNS_11char_traitsIcEENS2_IcEEEEdNS_4lessIS8_EENS2_INS_4pairIKS8_dEEEEEEEEPSF_EEEENS_28__exception_guard_exceptionsIT_EESK_, symObjAddr: 0xD370, symBinAddr: 0x10000E664, symSize: 0x4C }
  - { offsetInCU: 0x150D0, offset: 0x150D0, size: 0x8, addend: 0x0, symName: __ZNSt3__112construct_atB8ue170006INS_3mapINS_12basic_stringIcNS_11char_traitsIcEENS_9allocatorIcEEEEdNS_4lessIS7_EENS5_INS_4pairIKS7_dEEEEEEJRKSE_EPSE_EEPT_SJ_DpOT0_, symObjAddr: 0xD514, symBinAddr: 0x10000E808, symSize: 0x3C }
  - { offsetInCU: 0x15140, offset: 0x15140, size: 0x8, addend: 0x0, symName: __ZNSt3__1neB8ue170006ERKNS_20__map_const_iteratorINS_21__tree_const_iteratorINS_12__value_typeINS_12basic_stringIcNS_11char_traitsIcEENS_9allocatorIcEEEEdEEPNS_11__tree_nodeIS9_PvEElEEEESH_, symObjAddr: 0xDABC, symBinAddr: 0x10000EDB0, symSize: 0x30 }
  - { offsetInCU: 0x1517D, offset: 0x1517D, size: 0x8, addend: 0x0, symName: __ZNSt3__1neB8ue170006ERKNS_21__tree_const_iteratorINS_12__value_typeINS_12basic_stringIcNS_11char_traitsIcEENS_9allocatorIcEEEEdEEPNS_11__tree_nodeIS8_PvEElEESF_, symObjAddr: 0xDBC4, symBinAddr: 0x10000EEB8, symSize: 0x34 }
  - { offsetInCU: 0x151BA, offset: 0x151BA, size: 0x8, addend: 0x0, symName: __ZNSt3__1eqB8ue170006ERKNS_21__tree_const_iteratorINS_12__value_typeINS_12basic_stringIcNS_11char_traitsIcEENS_9allocatorIcEEEEdEEPNS_11__tree_nodeIS8_PvEElEESF_, symObjAddr: 0xDBF8, symBinAddr: 0x10000EEEC, symSize: 0x30 }
  - { offsetInCU: 0x1521B, offset: 0x1521B, size: 0x8, addend: 0x0, symName: __ZNSt3__14nextB8ue170006INS_21__tree_const_iteratorINS_12__value_typeINS_12basic_stringIcNS_11char_traitsIcEENS_9allocatorIcEEEEdEEPNS_11__tree_nodeIS9_PvEElEEEENS_9enable_ifIXsr29__has_input_iterator_categoryIT_EE5valueESG_E4typeESG_NS_15iterator_traitsISG_E15difference_typeE, symObjAddr: 0xE700, symBinAddr: 0x10000F9F4, symSize: 0x3C }
  - { offsetInCU: 0x1525E, offset: 0x1525E, size: 0x8, addend: 0x0, symName: __ZNSt3__17launderB8ue170006IKNS_4pairIKNS_12basic_stringIcNS_11char_traitsIcEENS_9allocatorIcEEEEdEEEEPT_SC_, symObjAddr: 0xE824, symBinAddr: 0x10000FB18, symSize: 0x24 }
  - { offsetInCU: 0x15295, offset: 0x15295, size: 0x8, addend: 0x0, symName: __ZNSt3__19__launderB8ue170006IKNS_4pairIKNS_12basic_stringIcNS_11char_traitsIcEENS_9allocatorIcEEEEdEEEEPT_SC_, symObjAddr: 0xE848, symBinAddr: 0x10000FB3C, symSize: 0x14 }
  - { offsetInCU: 0x152CC, offset: 0x152CC, size: 0x8, addend: 0x0, symName: __ZNSt3__116__tree_prev_iterB8ue170006IPNS_16__tree_node_baseIPvEEPNS_15__tree_end_nodeIS4_EEEET_T0_, symObjAddr: 0xE85C, symBinAddr: 0x10000FB50, symSize: 0x88 }
  - { offsetInCU: 0x15318, offset: 0x15318, size: 0x8, addend: 0x0, symName: __ZNSt3__110__tree_maxB8ue170006IPNS_16__tree_node_baseIPvEEEET_S5_, symObjAddr: 0xE8E4, symBinAddr: 0x10000FBD8, symSize: 0x40 }
  - { offsetInCU: 0x1534D, offset: 0x1534D, size: 0x8, addend: 0x0, symName: __ZNSt3__121__convert_to_integralB8ue170006El, symObjAddr: 0xE9F8, symBinAddr: 0x10000FCEC, symSize: 0x14 }
  - { offsetInCU: 0x15379, offset: 0x15379, size: 0x8, addend: 0x0, symName: __ZNSt3__19__advanceB8ue170006INS_21__tree_const_iteratorINS_12__value_typeINS_12basic_stringIcNS_11char_traitsIcEENS_9allocatorIcEEEEdEEPNS_11__tree_nodeIS9_PvEElEEEEvRT_NS_15iterator_traitsISF_E15difference_typeENS_26bidirectional_iterator_tagE, symObjAddr: 0xEA0C, symBinAddr: 0x10000FD00, symSize: 0xA4 }
  - { offsetInCU: 0x153C3, offset: 0x153C3, size: 0x8, addend: 0x0, symName: __ZNSt3__116__tree_next_iterB8ue170006IPNS_15__tree_end_nodeIPNS_16__tree_node_baseIPvEEEES5_EET_T0_, symObjAddr: 0xEAE8, symBinAddr: 0x10000FDDC, symSize: 0x80 }
  - { offsetInCU: 0x15401, offset: 0x15401, size: 0x8, addend: 0x0, symName: __ZNSt3__110__tree_minB8ue170006IPNS_16__tree_node_baseIPvEEEET_S5_, symObjAddr: 0xEB68, symBinAddr: 0x10000FE5C, symSize: 0x40 }
  - { offsetInCU: 0x15479, offset: 0x15479, size: 0x8, addend: 0x0, symName: __ZNSt3__112construct_atB8ue170006INS_4pairIKNS_12basic_stringIcNS_11char_traitsIcEENS_9allocatorIcEEEEdEEJRKS9_EPS9_EEPT_SE_DpOT0_, symObjAddr: 0xEF24, symBinAddr: 0x100010218, symSize: 0x3C }
  - { offsetInCU: 0x154E9, offset: 0x154E9, size: 0x8, addend: 0x0, symName: __ZNSt3__17launderB8ue170006INS_4pairIKNS_12basic_stringIcNS_11char_traitsIcEENS_9allocatorIcEEEEdEEEEPT_SB_, symObjAddr: 0xEFF8, symBinAddr: 0x1000102EC, symSize: 0x24 }
  - { offsetInCU: 0x15520, offset: 0x15520, size: 0x8, addend: 0x0, symName: __ZNSt3__19__launderB8ue170006INS_4pairIKNS_12basic_stringIcNS_11char_traitsIcEENS_9allocatorIcEEEEdEEEEPT_SB_, symObjAddr: 0xF01C, symBinAddr: 0x100010310, symSize: 0x14 }
  - { offsetInCU: 0x15557, offset: 0x15557, size: 0x8, addend: 0x0, symName: __ZNSt3__110destroy_atB8ue170006INS_4pairIKNS_12basic_stringIcNS_11char_traitsIcEENS_9allocatorIcEEEEdEELi0EEEvPT_, symObjAddr: 0xF2C4, symBinAddr: 0x1000105B8, symSize: 0x24 }
  - { offsetInCU: 0x1558E, offset: 0x1558E, size: 0x8, addend: 0x0, symName: __ZNSt3__112__destroy_atB8ue170006INS_4pairIKNS_12basic_stringIcNS_11char_traitsIcEENS_9allocatorIcEEEEdEELi0EEEvPT_, symObjAddr: 0xF2E8, symBinAddr: 0x1000105DC, symSize: 0x24 }
  - { offsetInCU: 0x155F9, offset: 0x155F9, size: 0x8, addend: 0x0, symName: __ZNSt3__119__allocator_destroyB8ue170006INS_9allocatorINS_3mapINS_12basic_stringIcNS_11char_traitsIcEENS1_IcEEEEdNS_4lessIS7_EENS1_INS_4pairIKS7_dEEEEEEEENS_16reverse_iteratorIPSE_EESI_EEvRT_T0_T1_, symObjAddr: 0xF690, symBinAddr: 0x100010984, symSize: 0x70 }
  - { offsetInCU: 0x1565B, offset: 0x1565B, size: 0x8, addend: 0x0, symName: __ZNSt3__1neB8ue170006IPNS_3mapINS_12basic_stringIcNS_11char_traitsIcEENS_9allocatorIcEEEEdNS_4lessIS7_EENS5_INS_4pairIKS7_dEEEEEESF_EEbRKNS_16reverse_iteratorIT_EERKNSG_IT0_EE, symObjAddr: 0xF734, symBinAddr: 0x100010A28, symSize: 0x48 }
  - { offsetInCU: 0x156A7, offset: 0x156A7, size: 0x8, addend: 0x0, symName: __ZNSt3__112__to_addressB8ue170006INS_16reverse_iteratorIPNS_3mapINS_12basic_stringIcNS_11char_traitsIcEENS_9allocatorIcEEEEdNS_4lessIS8_EENS6_INS_4pairIKS8_dEEEEEEEEvEEu7__decayIDTclsr19__to_address_helperIT_EE6__callclsr3stdE7declvalIRKSI_EEEEESK_, symObjAddr: 0xF7A4, symBinAddr: 0x100010A98, symSize: 0x24 }
  - { offsetInCU: 0x156DD, offset: 0x156DD, size: 0x8, addend: 0x0, symName: __ZNSt3__110destroy_atB8ue170006INS_3mapINS_12basic_stringIcNS_11char_traitsIcEENS_9allocatorIcEEEEdNS_4lessIS7_EENS5_INS_4pairIKS7_dEEEEEELi0EEEvPT_, symObjAddr: 0xF800, symBinAddr: 0x100010AF4, symSize: 0x24 }
  - { offsetInCU: 0x15714, offset: 0x15714, size: 0x8, addend: 0x0, symName: __ZNSt3__112__destroy_atB8ue170006INS_3mapINS_12basic_stringIcNS_11char_traitsIcEENS_9allocatorIcEEEEdNS_4lessIS7_EENS5_INS_4pairIKS7_dEEEEEELi0EEEvPT_, symObjAddr: 0xF824, symBinAddr: 0x100010B18, symSize: 0x24 }
  - { offsetInCU: 0x15775, offset: 0x15775, size: 0x8, addend: 0x0, symName: __ZNSt3__14prevB8ue170006IPNS_3mapINS_12basic_stringIcNS_11char_traitsIcEENS_9allocatorIcEEEEdNS_4lessIS7_EENS5_INS_4pairIKS7_dEEEEEEEENS_9enable_ifIXsr29__has_input_iterator_categoryIT_EE5valueESH_E4typeESH_NS_15iterator_traitsISH_E15difference_typeE, symObjAddr: 0xF8AC, symBinAddr: 0x100010BA0, symSize: 0x3C }
  - { offsetInCU: 0x157B9, offset: 0x157B9, size: 0x8, addend: 0x0, symName: __ZNSt3__19__advanceB8ue170006IPNS_3mapINS_12basic_stringIcNS_11char_traitsIcEENS_9allocatorIcEEEEdNS_4lessIS7_EENS5_INS_4pairIKS7_dEEEEEEEEvRT_NS_15iterator_traitsISG_E15difference_typeENS_26random_access_iterator_tagE, symObjAddr: 0xF920, symBinAddr: 0x100010C14, symSize: 0x30 }
  - { offsetInCU: 0x15856, offset: 0x15856, size: 0x8, addend: 0x0, symName: __ZNSt3__130__uninitialized_allocator_copyB8ue170006INS_9allocatorINS_3mapINS_12basic_stringIcNS_11char_traitsIcEENS1_IcEEEEdNS_4lessIS7_EENS1_INS_4pairIKS7_dEEEEEEEEPSE_SG_SG_EET2_RT_T0_T1_SH_, symObjAddr: 0x10040, symBinAddr: 0x100011334, symSize: 0x80 }
  - { offsetInCU: 0x158F3, offset: 0x158F3, size: 0x8, addend: 0x0, symName: __ZNSt3__114__unwrap_rangeB8ue170006IPNS_3mapINS_12basic_stringIcNS_11char_traitsIcEENS_9allocatorIcEEEEdNS_4lessIS7_EENS5_INS_4pairIKS7_dEEEEEESF_EEDaT_T0_, symObjAddr: 0x100C0, symBinAddr: 0x1000113B4, symSize: 0x3C }
  - { offsetInCU: 0x1593F, offset: 0x1593F, size: 0x8, addend: 0x0, symName: __ZNSt3__135__uninitialized_allocator_copy_implB8ue170006INS_9allocatorINS_3mapINS_12basic_stringIcNS_11char_traitsIcEENS1_IcEEEEdNS_4lessIS7_EENS1_INS_4pairIKS7_dEEEEEEEEPSE_SG_SG_EET2_RT_T0_T1_SH_, symObjAddr: 0x100FC, symBinAddr: 0x1000113F0, symSize: 0xF4 }
  - { offsetInCU: 0x15ADF, offset: 0x15ADF, size: 0x8, addend: 0x0, symName: __ZNSt3__112construct_atB8ue170006INS_3mapINS_12basic_stringIcNS_11char_traitsIcEENS_9allocatorIcEEEEdNS_4lessIS7_EENS5_INS_4pairIKS7_dEEEEEEJRSE_EPSE_EEPT_SI_DpOT0_, symObjAddr: 0x102E8, symBinAddr: 0x1000115DC, symSize: 0x3C }
  - { offsetInCU: 0x15B7E, offset: 0x15B7E, size: 0x8, addend: 0x0, symName: __ZNSt3__111make_uniqueB8ue170006IN5utils10TypeErased5ModelINS1_6dict_tEEEJS4_EEENS_11__unique_ifIT_E15__unique_singleEDpOT0_, symObjAddr: 0x10628, symBinAddr: 0x10001191C, symSize: 0x6C }
  - { offsetInCU: 0x15BC0, offset: 0x15BC0, size: 0x8, addend: 0x0, symName: __ZNSt3__111make_uniqueB8ue170006IN5utils10TypeErased5ModelINS1_6dict_tEEEJRKS4_EEENS_11__unique_ifIT_E15__unique_singleEDpOT0_, symObjAddr: 0x10A6C, symBinAddr: 0x100011D60, symSize: 0x6C }
  - { offsetInCU: 0x15C1F, offset: 0x15C1F, size: 0x8, addend: 0x0, symName: __ZNSt3__110to_addressB8ue170006IcEEDaPT_, symObjAddr: 0x11610, symBinAddr: 0x100012904, symSize: 0x24 }
  - { offsetInCU: 0x15C54, offset: 0x15C54, size: 0x8, addend: 0x0, symName: __ZNSt3__112__to_addressB8ue170006IcEEPT_S2_, symObjAddr: 0x11634, symBinAddr: 0x100012928, symSize: 0x14 }
  - { offsetInCU: 0x15C89, offset: 0x15C89, size: 0x8, addend: 0x0, symName: __ZNSt3__116__pad_and_outputB8ue170006IcNS_11char_traitsIcEEEENS_19ostreambuf_iteratorIT_T0_EES6_PKS4_S8_S8_RNS_8ios_baseES4_, symObjAddr: 0x1787C, symBinAddr: 0x100018B70, symSize: 0x240 }
  - { offsetInCU: 0x15D58, offset: 0x15D58, size: 0x8, addend: 0x0, symName: __ZNSt3__19use_facetB8ue170006INS_5ctypeIcEEEERKT_RKNS_6localeE, symObjAddr: 0x17EE0, symBinAddr: 0x1000191D4, symSize: 0x2C }
  - { offsetInCU: 0x16254, offset: 0x16254, size: 0x8, addend: 0x0, symName: __ZNSt3__111make_uniqueB8ue170006IN5utils10TypeErased5ModelIiEEJiEEENS_11__unique_ifIT_E15__unique_singleEDpOT0_, symObjAddr: 0x180E4, symBinAddr: 0x1000193D8, symSize: 0x6C }
  - { offsetInCU: 0x16296, offset: 0x16296, size: 0x8, addend: 0x0, symName: __ZNSt3__111make_uniqueB8ue170006IN5utils10TypeErased5ModelIiEEJRKiEEENS_11__unique_ifIT_E15__unique_singleEDpOT0_, symObjAddr: 0x184B4, symBinAddr: 0x1000197A8, symSize: 0x6C }
  - { offsetInCU: 0x16307, offset: 0x16307, size: 0x8, addend: 0x0, symName: __ZNSt3__111make_uniqueB8ue170006IN5utils10TypeErased5ModelIdEEJdEEENS_11__unique_ifIT_E15__unique_singleEDpOT0_, symObjAddr: 0x18B60, symBinAddr: 0x100019E54, symSize: 0x6C }
  - { offsetInCU: 0x16349, offset: 0x16349, size: 0x8, addend: 0x0, symName: __ZNSt3__111make_uniqueB8ue170006IN5utils10TypeErased5ModelIdEEJRKdEEENS_11__unique_ifIT_E15__unique_singleEDpOT0_, symObjAddr: 0x18F30, symBinAddr: 0x10001A224, symSize: 0x6C }
  - { offsetInCU: 0x163BA, offset: 0x163BA, size: 0x8, addend: 0x0, symName: __ZNSt3__111make_uniqueB8ue170006IN5utils10TypeErased5ModelIbEEJbEEENS_11__unique_ifIT_E15__unique_singleEDpOT0_, symObjAddr: 0x195B8, symBinAddr: 0x10001A8AC, symSize: 0x6C }
  - { offsetInCU: 0x163FC, offset: 0x163FC, size: 0x8, addend: 0x0, symName: __ZNSt3__111make_uniqueB8ue170006IN5utils10TypeErased5ModelIbEEJRKbEEENS_11__unique_ifIT_E15__unique_singleEDpOT0_, symObjAddr: 0x19994, symBinAddr: 0x10001AC88, symSize: 0x6C }
  - { offsetInCU: 0x1646D, offset: 0x1646D, size: 0x8, addend: 0x0, symName: __ZNSt3__111make_uniqueB8ue170006IN5utils10TypeErased5ModelINS_12basic_stringIcNS_11char_traitsIcEENS_9allocatorIcEEEEEEJS9_EEENS_11__unique_ifIT_E15__unique_singleEDpOT0_, symObjAddr: 0x1A020, symBinAddr: 0x10001B314, symSize: 0x6C }
  - { offsetInCU: 0x164AF, offset: 0x164AF, size: 0x8, addend: 0x0, symName: __ZNSt3__111make_uniqueB8ue170006IN5utils10TypeErased5ModelINS_12basic_stringIcNS_11char_traitsIcEENS_9allocatorIcEEEEEEJRKS9_EEENS_11__unique_ifIT_E15__unique_singleEDpOT0_, symObjAddr: 0x1A488, symBinAddr: 0x10001B77C, symSize: 0x6C }
  - { offsetInCU: 0x168EC, offset: 0x168EC, size: 0x8, addend: 0x0, symName: __ZNSt3__111make_uniqueB8ue170006IN5utils10TypeErased5ModelINS1_6dict_tEEEJRS4_EEENS_11__unique_ifIT_E15__unique_singleEDpOT0_, symObjAddr: 0x1FAD0, symBinAddr: 0x100020DC4, symSize: 0x6C }
  - { offsetInCU: 0x1692E, offset: 0x1692E, size: 0x8, addend: 0x0, symName: __ZNSt3__1eqB8ue170006ERKNS_14__map_iteratorINS_15__tree_iteratorINS_12__value_typeINS_12basic_stringIcNS_11char_traitsIcEENS_9allocatorIcEEEEN5utils10TypeErasedEEEPNS_11__tree_nodeISB_PvEElEEEESJ_, symObjAddr: 0x1FCD4, symBinAddr: 0x100020FC8, symSize: 0x30 }
  - { offsetInCU: 0x1699E, offset: 0x1699E, size: 0x8, addend: 0x0, symName: __ZNSt3__1eqB8ue170006ERKNS_15__tree_iteratorINS_12__value_typeINS_12basic_stringIcNS_11char_traitsIcEENS_9allocatorIcEEEEN5utils10TypeErasedEEEPNS_11__tree_nodeISA_PvEElEESH_, symObjAddr: 0x1FF58, symBinAddr: 0x10002124C, symSize: 0x30 }
  - { offsetInCU: 0x169DB, offset: 0x169DB, size: 0x8, addend: 0x0, symName: __ZNSt3__1neB8ue170006ERKNS_15__tree_iteratorINS_12__value_typeINS_12basic_stringIcNS_11char_traitsIcEENS_9allocatorIcEEEEN5utils10TypeErasedEEEPNS_11__tree_nodeISA_PvEElEESH_, symObjAddr: 0x20158, symBinAddr: 0x10002144C, symSize: 0x34 }
  - { offsetInCU: 0x16A18, offset: 0x16A18, size: 0x8, addend: 0x0, symName: __ZNSt3__1eqB8ue170006ERKNS_21__tree_const_iteratorINS_12__value_typeINS_12basic_stringIcNS_11char_traitsIcEENS_9allocatorIcEEEENS_6vectorINS_3mapIS7_dNS_4lessIS7_EENS5_INS_4pairIKS7_dEEEEEENS5_ISG_EEEEEEPNS_11__tree_nodeISJ_PvEElEESQ_, symObjAddr: 0x21B60, symBinAddr: 0x100022E54, symSize: 0x30 }
  - { offsetInCU: 0x16A55, offset: 0x16A55, size: 0x8, addend: 0x0, symName: __ZNSt3__14nextB8ue170006INS_21__tree_const_iteratorINS_12__value_typeINS_12basic_stringIcNS_11char_traitsIcEENS_9allocatorIcEEEENS_6vectorINS_3mapIS8_dNS_4lessIS8_EENS6_INS_4pairIKS8_dEEEEEENS6_ISH_EEEEEEPNS_11__tree_nodeISK_PvEElEEEENS_9enable_ifIXsr29__has_input_iterator_categoryIT_EE5valueESR_E4typeESR_NS_15iterator_traitsISR_E15difference_typeE, symObjAddr: 0x21ED0, symBinAddr: 0x1000231C4, symSize: 0x3C }
  - { offsetInCU: 0x16A98, offset: 0x16A98, size: 0x8, addend: 0x0, symName: __ZNSt3__17launderB8ue170006IKNS_4pairIKNS_12basic_stringIcNS_11char_traitsIcEENS_9allocatorIcEEEENS_6vectorINS_3mapIS7_dNS_4lessIS7_EENS5_INS1_IS8_dEEEEEENS5_ISF_EEEEEEEEPT_SL_, symObjAddr: 0x21FF4, symBinAddr: 0x1000232E8, symSize: 0x24 }
  - { offsetInCU: 0x16ACF, offset: 0x16ACF, size: 0x8, addend: 0x0, symName: __ZNSt3__19__launderB8ue170006IKNS_4pairIKNS_12basic_stringIcNS_11char_traitsIcEENS_9allocatorIcEEEENS_6vectorINS_3mapIS7_dNS_4lessIS7_EENS5_INS1_IS8_dEEEEEENS5_ISF_EEEEEEEEPT_SL_, symObjAddr: 0x22018, symBinAddr: 0x10002330C, symSize: 0x14 }
  - { offsetInCU: 0x16B06, offset: 0x16B06, size: 0x8, addend: 0x0, symName: __ZNSt3__19__advanceB8ue170006INS_21__tree_const_iteratorINS_12__value_typeINS_12basic_stringIcNS_11char_traitsIcEENS_9allocatorIcEEEENS_6vectorINS_3mapIS8_dNS_4lessIS8_EENS6_INS_4pairIKS8_dEEEEEENS6_ISH_EEEEEEPNS_11__tree_nodeISK_PvEElEEEEvRT_NS_15iterator_traitsISQ_E15difference_typeENS_26bidirectional_iterator_tagE, symObjAddr: 0x220B0, symBinAddr: 0x1000233A4, symSize: 0xA4 }
  - { offsetInCU: 0x16B93, offset: 0x16B93, size: 0x8, addend: 0x0, symName: __ZNSt3__112construct_atB8ue170006INS_4pairIKNS_12basic_stringIcNS_11char_traitsIcEENS_9allocatorIcEEEENS_6vectorINS_3mapIS7_dNS_4lessIS7_EENS5_INS1_IS8_dEEEEEENS5_ISF_EEEEEEJRKSI_EPSI_EEPT_SN_DpOT0_, symObjAddr: 0x2250C, symBinAddr: 0x100023800, symSize: 0x3C }
  - { offsetInCU: 0x16C03, offset: 0x16C03, size: 0x8, addend: 0x0, symName: __ZNSt3__17launderB8ue170006INS_4pairIKNS_12basic_stringIcNS_11char_traitsIcEENS_9allocatorIcEEEENS_6vectorINS_3mapIS7_dNS_4lessIS7_EENS5_INS1_IS8_dEEEEEENS5_ISF_EEEEEEEEPT_SK_, symObjAddr: 0x22610, symBinAddr: 0x100023904, symSize: 0x24 }
  - { offsetInCU: 0x16C3A, offset: 0x16C3A, size: 0x8, addend: 0x0, symName: __ZNSt3__19__launderB8ue170006INS_4pairIKNS_12basic_stringIcNS_11char_traitsIcEENS_9allocatorIcEEEENS_6vectorINS_3mapIS7_dNS_4lessIS7_EENS5_INS1_IS8_dEEEEEENS5_ISF_EEEEEEEEPT_SK_, symObjAddr: 0x22634, symBinAddr: 0x100023928, symSize: 0x14 }
  - { offsetInCU: 0x16C71, offset: 0x16C71, size: 0x8, addend: 0x0, symName: __ZNSt3__110destroy_atB8ue170006INS_4pairIKNS_12basic_stringIcNS_11char_traitsIcEENS_9allocatorIcEEEENS_6vectorINS_3mapIS7_dNS_4lessIS7_EENS5_INS1_IS8_dEEEEEENS5_ISF_EEEEEELi0EEEvPT_, symObjAddr: 0x228DC, symBinAddr: 0x100023BD0, symSize: 0x24 }
  - { offsetInCU: 0x16CA8, offset: 0x16CA8, size: 0x8, addend: 0x0, symName: __ZNSt3__112__destroy_atB8ue170006INS_4pairIKNS_12basic_stringIcNS_11char_traitsIcEENS_9allocatorIcEEEENS_6vectorINS_3mapIS7_dNS_4lessIS7_EENS5_INS1_IS8_dEEEEEENS5_ISF_EEEEEELi0EEEvPT_, symObjAddr: 0x22900, symBinAddr: 0x100023BF4, symSize: 0x24 }
  - { offsetInCU: 0x16CDF, offset: 0x16CDF, size: 0x8, addend: 0x0, symName: __ZNSt3__1neB8ue170006ERKNS_20__map_const_iteratorINS_21__tree_const_iteratorINS_12__value_typeINS_12basic_stringIcNS_11char_traitsIcEENS_9allocatorIcEEEENS_6vectorINS_3mapIS8_dNS_4lessIS8_EENS6_INS_4pairIKS8_dEEEEEENS6_ISH_EEEEEEPNS_11__tree_nodeISK_PvEElEEEESS_, symObjAddr: 0x22B48, symBinAddr: 0x100023E3C, symSize: 0x30 }
  - { offsetInCU: 0x16D1C, offset: 0x16D1C, size: 0x8, addend: 0x0, symName: __ZNSt3__13getB8ue170006ILm0EKNS_12basic_stringIcNS_11char_traitsIcEENS_9allocatorIcEEEENS_6vectorINS_3mapIS6_dNS_4lessIS6_EENS4_INS_4pairIS7_dEEEEEENS4_ISF_EEEEEERKNS_13tuple_elementIXT_ENSC_IT0_T1_EEE4typeERKSL_, symObjAddr: 0x22BA0, symBinAddr: 0x100023E94, symSize: 0x24 }
  - { offsetInCU: 0x16D66, offset: 0x16D66, size: 0x8, addend: 0x0, symName: __ZNSt3__13getB8ue170006ILm1EKNS_12basic_stringIcNS_11char_traitsIcEENS_9allocatorIcEEEENS_6vectorINS_3mapIS6_dNS_4lessIS6_EENS4_INS_4pairIS7_dEEEEEENS4_ISF_EEEEEERKNS_13tuple_elementIXT_ENSC_IT0_T1_EEE4typeERKSL_, symObjAddr: 0x22BC4, symBinAddr: 0x100023EB8, symSize: 0x24 }
  - { offsetInCU: 0x16DB0, offset: 0x16DB0, size: 0x8, addend: 0x0, symName: __ZNSt3__1neB8ue170006ERKNS_21__tree_const_iteratorINS_12__value_typeINS_12basic_stringIcNS_11char_traitsIcEENS_9allocatorIcEEEENS_6vectorINS_3mapIS7_dNS_4lessIS7_EENS5_INS_4pairIKS7_dEEEEEENS5_ISG_EEEEEEPNS_11__tree_nodeISJ_PvEElEESQ_, symObjAddr: 0x22D90, symBinAddr: 0x100024084, symSize: 0x34 }
  - { offsetInCU: 0x16E20, offset: 0x16E20, size: 0x8, addend: 0x0, symName: __ZNSt3__13getB8ue170006ILm0EKNS_12basic_stringIcNS_11char_traitsIcEENS_9allocatorIcEEEEdEERKNS_13tuple_elementIXT_ENS_4pairIT0_T1_EEE4typeERKSC_, symObjAddr: 0x22F44, symBinAddr: 0x100024238, symSize: 0x24 }
  - { offsetInCU: 0x16E6A, offset: 0x16E6A, size: 0x8, addend: 0x0, symName: __ZNSt3__13getB8ue170006ILm1EKNS_12basic_stringIcNS_11char_traitsIcEENS_9allocatorIcEEEEdEERKNS_13tuple_elementIXT_ENS_4pairIT0_T1_EEE4typeERKSC_, symObjAddr: 0x22F68, symBinAddr: 0x10002425C, symSize: 0x24 }
  - { offsetInCU: 0x16EBF, offset: 0x16EBF, size: 0x8, addend: 0x0, symName: __ZNSt3__112construct_atB8ue170006INS_4pairIKNS_12basic_stringIcNS_11char_traitsIcEENS_9allocatorIcEEEEdEEJRKNS_21piecewise_construct_tENS_5tupleIJRS8_EEENSD_IJEEEEPS9_EEPT_SJ_DpOT0_, symObjAddr: 0x2386C, symBinAddr: 0x100024B60, symSize: 0x50 }
  - { offsetInCU: 0x16F88, offset: 0x16F88, size: 0x8, addend: 0x0, symName: __ZNSt3__13maxB8ue170006ImEERKT_S3_S3_, symObjAddr: 0x23D48, symBinAddr: 0x10002503C, symSize: 0x2C }
  - { offsetInCU: 0x16FCB, offset: 0x16FCB, size: 0x8, addend: 0x0, symName: __ZNSt3__13maxB8ue170006ImNS_6__lessIvvEEEERKT_S5_S5_T0_, symObjAddr: 0x23D74, symBinAddr: 0x100025068, symSize: 0x54 }
  - { offsetInCU: 0x17025, offset: 0x17025, size: 0x8, addend: 0x0, symName: __ZNSt3__142__uninitialized_allocator_move_if_noexceptB8ue170006INS_9allocatorINS_3mapINS_12basic_stringIcNS_11char_traitsIcEENS1_IcEEEEdNS_4lessIS7_EENS1_INS_4pairIKS7_dEEEEEEEENS_16reverse_iteratorIPSE_EESI_SI_EET2_RT_T0_T1_SJ_, symObjAddr: 0x24000, symBinAddr: 0x1000252F4, symSize: 0x124 }
  - { offsetInCU: 0x170C5, offset: 0x170C5, size: 0x8, addend: 0x0, symName: __ZNSt3__14swapB8ue170006IPNS_3mapINS_12basic_stringIcNS_11char_traitsIcEENS_9allocatorIcEEEEdNS_4lessIS7_EENS5_INS_4pairIKS7_dEEEEEEEENS_9enable_ifIXaasr21is_move_constructibleIT_EE5valuesr18is_move_assignableISH_EE5valueEvE4typeERSH_SK_, symObjAddr: 0x24124, symBinAddr: 0x100025418, symSize: 0x3C }
  - { offsetInCU: 0x17116, offset: 0x17116, size: 0x8, addend: 0x0, symName: __ZNSt3__122__make_exception_guardB8ue170006INS_29_AllocatorDestroyRangeReverseINS_9allocatorINS_3mapINS_12basic_stringIcNS_11char_traitsIcEENS2_IcEEEEdNS_4lessIS8_EENS2_INS_4pairIKS8_dEEEEEEEENS_16reverse_iteratorIPSF_EEEEEENS_28__exception_guard_exceptionsIT_EESM_, symObjAddr: 0x24160, symBinAddr: 0x100025454, symSize: 0x4C }
  - { offsetInCU: 0x1714C, offset: 0x1714C, size: 0x8, addend: 0x0, symName: __ZNSt3__112construct_atB8ue170006INS_3mapINS_12basic_stringIcNS_11char_traitsIcEENS_9allocatorIcEEEEdNS_4lessIS7_EENS5_INS_4pairIKS7_dEEEEEEJSE_EPSE_EEPT_SH_DpOT0_, symObjAddr: 0x2432C, symBinAddr: 0x100025620, symSize: 0x3C }
  - { offsetInCU: 0x171BD, offset: 0x171BD, size: 0x8, addend: 0x0, symName: __ZNSt3__119__allocator_destroyB8ue170006INS_9allocatorINS_3mapINS_12basic_stringIcNS_11char_traitsIcEENS1_IcEEEEdNS_4lessIS7_EENS1_INS_4pairIKS7_dEEEEEEEENS_16reverse_iteratorINSG_IPSE_EEEESJ_EEvRT_T0_T1_, symObjAddr: 0x24604, symBinAddr: 0x1000258F8, symSize: 0x70 }
  - { offsetInCU: 0x17221, offset: 0x17221, size: 0x8, addend: 0x0, symName: __ZNSt3__1neB8ue170006INS_16reverse_iteratorIPNS_3mapINS_12basic_stringIcNS_11char_traitsIcEENS_9allocatorIcEEEEdNS_4lessIS8_EENS6_INS_4pairIKS8_dEEEEEEEESH_EEbRKNS1_IT_EERKNS1_IT0_EE, symObjAddr: 0x246B0, symBinAddr: 0x1000259A4, symSize: 0x60 }
  - { offsetInCU: 0x1726D, offset: 0x1726D, size: 0x8, addend: 0x0, symName: __ZNSt3__112__to_addressB8ue170006INS_16reverse_iteratorINS1_IPNS_3mapINS_12basic_stringIcNS_11char_traitsIcEENS_9allocatorIcEEEEdNS_4lessIS8_EENS6_INS_4pairIKS8_dEEEEEEEEEEvEEu7__decayIDTclsr19__to_address_helperIT_EE6__callclsr3stdE7declvalIRKSJ_EEEEESL_, symObjAddr: 0x24710, symBinAddr: 0x100025A04, symSize: 0x24 }
  - { offsetInCU: 0x172CD, offset: 0x172CD, size: 0x8, addend: 0x0, symName: __ZNSt3__14prevB8ue170006INS_16reverse_iteratorIPNS_3mapINS_12basic_stringIcNS_11char_traitsIcEENS_9allocatorIcEEEEdNS_4lessIS8_EENS6_INS_4pairIKS8_dEEEEEEEEEENS_9enable_ifIXsr29__has_input_iterator_categoryIT_EE5valueESJ_E4typeESJ_NS_15iterator_traitsISJ_E15difference_typeE, symObjAddr: 0x2480C, symBinAddr: 0x100025B00, symSize: 0x4C }
  - { offsetInCU: 0x17310, offset: 0x17310, size: 0x8, addend: 0x0, symName: __ZNSt3__19__advanceB8ue170006INS_16reverse_iteratorIPNS_3mapINS_12basic_stringIcNS_11char_traitsIcEENS_9allocatorIcEEEEdNS_4lessIS8_EENS6_INS_4pairIKS8_dEEEEEEEEEEvRT_NS_15iterator_traitsISI_E15difference_typeENS_26random_access_iterator_tagE, symObjAddr: 0x24890, symBinAddr: 0x100025B84, symSize: 0x2C }
  - { offsetInCU: 0x1737E, offset: 0x1737E, size: 0x8, addend: 0x0, symName: __ZNSt3__112construct_atB8ue170006INS_4pairIKNS_12basic_stringIcNS_11char_traitsIcEENS_9allocatorIcEEEENS_6vectorINS_3mapIS7_dNS_4lessIS7_EENS5_INS1_IS8_dEEEEEENS5_ISF_EEEEEEJRS8_RSH_EPSI_EEPT_SN_DpOT0_, symObjAddr: 0x24DE8, symBinAddr: 0x1000260DC, symSize: 0x44 }
  - { offsetInCU: 0x17401, offset: 0x17401, size: 0x8, addend: 0x0, symName: __ZNSt3__15equalB8ue170006INS_20__map_const_iteratorINS_21__tree_const_iteratorINS_12__value_typeINS_12basic_stringIcNS_11char_traitsIcEENS_9allocatorIcEEEENS_6vectorINS_3mapIS9_dNS_4lessIS9_EENS7_INS_4pairIKS9_dEEEEEENS7_ISI_EEEEEEPNS_11__tree_nodeISL_PvEElEEEESR_EEbT_SS_T0_, symObjAddr: 0x24F50, symBinAddr: 0x100026244, symSize: 0x50 }
  - { offsetInCU: 0x1745B, offset: 0x1745B, size: 0x8, addend: 0x0, symName: __ZNSt3__15equalB8ue170006INS_20__map_const_iteratorINS_21__tree_const_iteratorINS_12__value_typeINS_12basic_stringIcNS_11char_traitsIcEENS_9allocatorIcEEEENS_6vectorINS_3mapIS9_dNS_4lessIS9_EENS7_INS_4pairIKS9_dEEEEEENS7_ISI_EEEEEEPNS_11__tree_nodeISL_PvEElEEEESR_NS_10__equal_toEEEbT_ST_T0_T1_, symObjAddr: 0x24FEC, symBinAddr: 0x1000262E0, symSize: 0x78 }
  - { offsetInCU: 0x174CC, offset: 0x174CC, size: 0x8, addend: 0x0, symName: __ZNSt3__117__equal_iter_implB8ue170006INS_20__map_const_iteratorINS_21__tree_const_iteratorINS_12__value_typeINS_12basic_stringIcNS_11char_traitsIcEENS_9allocatorIcEEEENS_6vectorINS_3mapIS9_dNS_4lessIS9_EENS7_INS_4pairIKS9_dEEEEEENS7_ISI_EEEEEEPNS_11__tree_nodeISL_PvEElEEEESR_NS_10__equal_toEEEbT_ST_T0_RT1_, symObjAddr: 0x25064, symBinAddr: 0x100026358, symSize: 0xBC }
  - { offsetInCU: 0x1753D, offset: 0x1753D, size: 0x8, addend: 0x0, symName: __ZNSt3__113__unwrap_iterB8ue170006INS_20__map_const_iteratorINS_21__tree_const_iteratorINS_12__value_typeINS_12basic_stringIcNS_11char_traitsIcEENS_9allocatorIcEEEENS_6vectorINS_3mapIS9_dNS_4lessIS9_EENS7_INS_4pairIKS9_dEEEEEENS7_ISI_EEEEEEPNS_11__tree_nodeISL_PvEElEEEENS_18__unwrap_iter_implISR_Lb0EEELi0EEEDTclsrT0_8__unwrapclsr3stdE7declvalIT_EEEESV_, symObjAddr: 0x25120, symBinAddr: 0x100026414, symSize: 0x34 }
  - { offsetInCU: 0x17581, offset: 0x17581, size: 0x8, addend: 0x0, symName: __ZNSt3__1eqB8ue170006IKNS_12basic_stringIcNS_11char_traitsIcEENS_9allocatorIcEEEENS_6vectorINS_3mapIS6_dNS_4lessIS6_EENS4_INS_4pairIS7_dEEEEEENS4_ISF_EEEES7_SH_EEbRKNSC_IT_T0_EERKNSC_IT1_T2_EE, symObjAddr: 0x25188, symBinAddr: 0x10002647C, symSize: 0x60 }
  - { offsetInCU: 0x175E2, offset: 0x175E2, size: 0x8, addend: 0x0, symName: __ZNSt3__1eqB8ue170006INS_3mapINS_12basic_stringIcNS_11char_traitsIcEENS_9allocatorIcEEEEdNS_4lessIS7_EENS5_INS_4pairIKS7_dEEEEEENS5_ISE_EEEEbRKNS_6vectorIT_T0_EESL_, symObjAddr: 0x251E8, symBinAddr: 0x1000264DC, symSize: 0x9C }
  - { offsetInCU: 0x17640, offset: 0x17640, size: 0x8, addend: 0x0, symName: __ZNSt3__15equalB8ue170006INS_11__wrap_iterIPKNS_3mapINS_12basic_stringIcNS_11char_traitsIcEENS_9allocatorIcEEEEdNS_4lessIS8_EENS6_INS_4pairIKS8_dEEEEEEEESI_EEbT_SJ_T0_, symObjAddr: 0x25284, symBinAddr: 0x100026578, symSize: 0x50 }
  - { offsetInCU: 0x1769A, offset: 0x1769A, size: 0x8, addend: 0x0, symName: __ZNSt3__15equalB8ue170006INS_11__wrap_iterIPKNS_3mapINS_12basic_stringIcNS_11char_traitsIcEENS_9allocatorIcEEEEdNS_4lessIS8_EENS6_INS_4pairIKS8_dEEEEEEEESI_NS_10__equal_toEEEbT_SK_T0_T1_, symObjAddr: 0x25334, symBinAddr: 0x100026628, symSize: 0x74 }
  - { offsetInCU: 0x1770B, offset: 0x1770B, size: 0x8, addend: 0x0, symName: __ZNSt3__117__equal_iter_implB8ue170006IPKNS_3mapINS_12basic_stringIcNS_11char_traitsIcEENS_9allocatorIcEEEEdNS_4lessIS7_EENS5_INS_4pairIKS7_dEEEEEESG_NS_10__equal_toEEEbT_SI_T0_RT1_, symObjAddr: 0x253A8, symBinAddr: 0x10002669C, symSize: 0xAC }
  - { offsetInCU: 0x1777C, offset: 0x1777C, size: 0x8, addend: 0x0, symName: __ZNSt3__113__unwrap_iterB8ue170006INS_11__wrap_iterIPKNS_3mapINS_12basic_stringIcNS_11char_traitsIcEENS_9allocatorIcEEEEdNS_4lessIS8_EENS6_INS_4pairIKS8_dEEEEEEEENS_18__unwrap_iter_implISI_Lb1EEELi0EEEDTclsrT0_8__unwrapclsr3stdE7declvalIT_EEEESM_, symObjAddr: 0x25454, symBinAddr: 0x100026748, symSize: 0x2C }
  - { offsetInCU: 0x177C0, offset: 0x177C0, size: 0x8, addend: 0x0, symName: __ZNSt3__1eqB8ue170006INS_12basic_stringIcNS_11char_traitsIcEENS_9allocatorIcEEEEdNS_4lessIS6_EENS4_INS_4pairIKS6_dEEEEEEbRKNS_3mapIT_T0_T1_T2_EESK_, symObjAddr: 0x254B4, symBinAddr: 0x1000267A8, symSize: 0x98 }
  - { offsetInCU: 0x17821, offset: 0x17821, size: 0x8, addend: 0x0, symName: __ZNSt3__15equalB8ue170006INS_20__map_const_iteratorINS_21__tree_const_iteratorINS_12__value_typeINS_12basic_stringIcNS_11char_traitsIcEENS_9allocatorIcEEEEdEEPNS_11__tree_nodeISA_PvEElEEEESG_EEbT_SH_T0_, symObjAddr: 0x25574, symBinAddr: 0x100026868, symSize: 0x50 }
  - { offsetInCU: 0x1787B, offset: 0x1787B, size: 0x8, addend: 0x0, symName: __ZNSt3__15equalB8ue170006INS_20__map_const_iteratorINS_21__tree_const_iteratorINS_12__value_typeINS_12basic_stringIcNS_11char_traitsIcEENS_9allocatorIcEEEEdEEPNS_11__tree_nodeISA_PvEElEEEESG_NS_10__equal_toEEEbT_SI_T0_T1_, symObjAddr: 0x25610, symBinAddr: 0x100026904, symSize: 0x78 }
  - { offsetInCU: 0x178EC, offset: 0x178EC, size: 0x8, addend: 0x0, symName: __ZNSt3__117__equal_iter_implB8ue170006INS_20__map_const_iteratorINS_21__tree_const_iteratorINS_12__value_typeINS_12basic_stringIcNS_11char_traitsIcEENS_9allocatorIcEEEEdEEPNS_11__tree_nodeISA_PvEElEEEESG_NS_10__equal_toEEEbT_SI_T0_RT1_, symObjAddr: 0x25688, symBinAddr: 0x10002697C, symSize: 0xBC }
  - { offsetInCU: 0x1795D, offset: 0x1795D, size: 0x8, addend: 0x0, symName: __ZNSt3__113__unwrap_iterB8ue170006INS_20__map_const_iteratorINS_21__tree_const_iteratorINS_12__value_typeINS_12basic_stringIcNS_11char_traitsIcEENS_9allocatorIcEEEEdEEPNS_11__tree_nodeISA_PvEElEEEENS_18__unwrap_iter_implISG_Lb0EEELi0EEEDTclsrT0_8__unwrapclsr3stdE7declvalIT_EEEESK_, symObjAddr: 0x25744, symBinAddr: 0x100026A38, symSize: 0x34 }
  - { offsetInCU: 0x179A1, offset: 0x179A1, size: 0x8, addend: 0x0, symName: __ZNSt3__1eqB8ue170006IKNS_12basic_stringIcNS_11char_traitsIcEENS_9allocatorIcEEEEdS7_dEEbRKNS_4pairIT_T0_EERKNS8_IT1_T2_EE, symObjAddr: 0x257AC, symBinAddr: 0x100026AA0, symSize: 0x64 }
  - { offsetInCU: 0x17A9D, offset: 0x17A9D, size: 0x8, addend: 0x0, symName: __ZNSt3__112__to_addressB8ue170006INS_11__wrap_iterIPKNS_3mapINS_12basic_stringIcNS_11char_traitsIcEENS_9allocatorIcEEEEdNS_4lessIS8_EENS6_INS_4pairIKS8_dEEEEEEEEvEEu7__decayIDTclsr19__to_address_helperIT_EE6__callclsr3stdE7declvalIRKSJ_EEEEESL_, symObjAddr: 0x25854, symBinAddr: 0x100026B48, symSize: 0x24 }
  - { offsetInCU: 0x18436, offset: 0x18436, size: 0x8, addend: 0x0, symName: __ZSt28__throw_bad_array_new_lengthB8ue170006v, symObjAddr: 0x6B24, symBinAddr: 0x100007E18, symSize: 0x34 }
  - { offsetInCU: 0x1A3EB, offset: 0x1A3EB, size: 0x8, addend: 0x0, symName: __ZN9rapidjson8internal21GetCachedPowerByIndexEm, symObjAddr: 0x15A34, symBinAddr: 0x100016D28, symSize: 0x84 }
  - { offsetInCU: 0x1A415, offset: 0x1A415, size: 0x8, addend: 0x0, symName: __ZZN9rapidjson8internal21GetCachedPowerByIndexEmE15kCachedPowers_F, symObjAddr: 0x26D38, symBinAddr: 0x1000293D0, symSize: 0x0 }
  - { offsetInCU: 0x1A42B, offset: 0x1A42B, size: 0x8, addend: 0x0, symName: __ZZN9rapidjson8internal21GetCachedPowerByIndexEmE15kCachedPowers_E, symObjAddr: 0x26FF0, symBinAddr: 0x100029688, symSize: 0x0 }
  - { offsetInCU: 0x1A443, offset: 0x1A443, size: 0x8, addend: 0x0, symName: __ZN9rapidjson8internal8DigitGenERKNS0_5DiyFpES3_yPcPiS5_, symObjAddr: 0x15384, symBinAddr: 0x100016678, symSize: 0x500 }
  - { offsetInCU: 0x1A469, offset: 0x1A469, size: 0x8, addend: 0x0, symName: __ZZN9rapidjson8internal8DigitGenERKNS0_5DiyFpES3_yPcPiS5_E6kPow10, symObjAddr: 0x270A0, symBinAddr: 0x100029738, symSize: 0x0 }
  - { offsetInCU: 0x1A577, offset: 0x1A577, size: 0x8, addend: 0x0, symName: __ZN9rapidjson8internal12GetDigitsLutEv, symObjAddr: 0x15F2C, symBinAddr: 0x100017220, symSize: 0xC }
  - { offsetInCU: 0x1A5A1, offset: 0x1A5A1, size: 0x8, addend: 0x0, symName: __ZZN9rapidjson8internal12GetDigitsLutEvE10cDigitsLut, symObjAddr: 0x27140, symBinAddr: 0x1000297D8, symSize: 0x0 }
  - { offsetInCU: 0x1A5AB, offset: 0x1A5AB, size: 0x8, addend: 0x0, symName: __ZN9rapidjson8internal5Pow10Ei, symObjAddr: 0x1F538, symBinAddr: 0x10002082C, symSize: 0x8C }
  - { offsetInCU: 0x1A5D5, offset: 0x1A5D5, size: 0x8, addend: 0x0, symName: __ZZN9rapidjson8internal5Pow10EiE1e, symObjAddr: 0x27310, symBinAddr: 0x1000299A8, symSize: 0x0 }
  - { offsetInCU: 0x1A9B0, offset: 0x1A9B0, size: 0x8, addend: 0x0, symName: __ZN9rapidjson8internal6StrLenIcEEjPKT_, symObjAddr: 0x11D64, symBinAddr: 0x100013058, symSize: 0x24 }
  - { offsetInCU: 0x1AA06, offset: 0x1AA06, size: 0x8, addend: 0x0, symName: __ZN9rapidjson8internal4dtoaEdPci, symObjAddr: 0x14838, symBinAddr: 0x100015B2C, symSize: 0x140 }
  - { offsetInCU: 0x1AA86, offset: 0x1AA86, size: 0x8, addend: 0x0, symName: __ZN9rapidjson8internal6Grisu2EdPcPiS2_, symObjAddr: 0x14A0C, symBinAddr: 0x100015D00, symSize: 0x138 }
  - { offsetInCU: 0x1AB3E, offset: 0x1AB3E, size: 0x8, addend: 0x0, symName: __ZN9rapidjson8internal8PrettifyEPciii, symObjAddr: 0x14B44, symBinAddr: 0x100015E38, symSize: 0x4A4 }
  - { offsetInCU: 0x1AC2E, offset: 0x1AC2E, size: 0x8, addend: 0x0, symName: __ZN9rapidjson8internal14GetCachedPowerEiPi, symObjAddr: 0x15150, symBinAddr: 0x100016444, symSize: 0xD4 }
  - { offsetInCU: 0x1AC92, offset: 0x1AC92, size: 0x8, addend: 0x0, symName: __ZN9rapidjson8internal5clzllEy, symObjAddr: 0x15AB8, symBinAddr: 0x100016DAC, symSize: 0x60 }
  - { offsetInCU: 0x1ACBE, offset: 0x1ACBE, size: 0x8, addend: 0x0, symName: __ZN9rapidjson8internal19CountDecimalDigit32Ej, symObjAddr: 0x15B60, symBinAddr: 0x100016E54, symSize: 0x144 }
  - { offsetInCU: 0x1ACEB, offset: 0x1ACEB, size: 0x8, addend: 0x0, symName: __ZN9rapidjson8internal10GrisuRoundEPciyyyy, symObjAddr: 0x15CA4, symBinAddr: 0x100016F98, symSize: 0x114 }
  - { offsetInCU: 0x1AD59, offset: 0x1AD59, size: 0x8, addend: 0x0, symName: __ZN9rapidjson8internal13WriteExponentEiPc, symObjAddr: 0x15DB8, symBinAddr: 0x1000170AC, symSize: 0x174 }
  - { offsetInCU: 0x1ADCB, offset: 0x1ADCB, size: 0x8, addend: 0x0, symName: __ZN9rapidjson8internal6i32toaEiPc, symObjAddr: 0x1602C, symBinAddr: 0x100017320, symSize: 0xA8 }
  - { offsetInCU: 0x1AE13, offset: 0x1AE13, size: 0x8, addend: 0x0, symName: __ZN9rapidjson8internal6u32toaEjPc, symObjAddr: 0x160D4, symBinAddr: 0x1000173C8, symSize: 0x5C8 }
  - { offsetInCU: 0x1AF73, offset: 0x1AF73, size: 0x8, addend: 0x0, symName: __ZN9rapidjson8internal6i64toaExPc, symObjAddr: 0x16784, symBinAddr: 0x100017A78, symSize: 0xA8 }
  - { offsetInCU: 0x1AFBF, offset: 0x1AFBF, size: 0x8, addend: 0x0, symName: __ZN9rapidjson8internal6u64toaEyPc, symObjAddr: 0x1682C, symBinAddr: 0x100017B20, symSize: 0xDBC }
  - { offsetInCU: 0x1B3D0, offset: 0x1B3D0, size: 0x8, addend: 0x0, symName: __ZN9rapidjson8internal21StrtodNormalPrecisionEdi, symObjAddr: 0x1F2A4, symBinAddr: 0x100020598, symSize: 0x74 }
  - { offsetInCU: 0x1B40A, offset: 0x1B40A, size: 0x8, addend: 0x0, symName: __ZN9rapidjson8internal8FastPathEdi, symObjAddr: 0x1F490, symBinAddr: 0x100020784, symSize: 0xA8 }
  - { offsetInCU: 0x1CFF0, offset: 0x1CFF0, size: 0x8, addend: 0x0, symName: __ZN9rapidjson16GenericStringRefIcE11emptyStringE, symObjAddr: 0x27308, symBinAddr: 0x1000299A0, symSize: 0x0 }
  - { offsetInCU: 0x1D4CA, offset: 0x1D4CA, size: 0x8, addend: 0x0, symName: __ZN9rapidjson9StringRefIcEENS_16GenericStringRefIT_EEPKS2_, symObjAddr: 0x11910, symBinAddr: 0x100012C04, symSize: 0x38 }
  - { offsetInCU: 0x1D501, offset: 0x1D501, size: 0x8, addend: 0x0, symName: __ZN9rapidjson7ReallocINS_13GenericMemberINS_4UTF8IcEENS_19MemoryPoolAllocatorINS_12CrtAllocatorEEEEES6_EEPT_RT0_S9_mm, symObjAddr: 0x1207C, symBinAddr: 0x100013370, symSize: 0xD0 }
  - { offsetInCU: 0x1D56E, offset: 0x1D56E, size: 0x8, addend: 0x0, symName: __ZN9rapidjson10PutReserveINS_4UTF8IcEENS_12CrtAllocatorEEEvRNS_19GenericStringBufferIT_T0_EEm, symObjAddr: 0x13C68, symBinAddr: 0x100014F5C, symSize: 0x2C }
  - { offsetInCU: 0x1D5B6, offset: 0x1D5B6, size: 0x8, addend: 0x0, symName: __ZN9rapidjson9PutUnsafeINS_4UTF8IcEENS_12CrtAllocatorEEEvRNS_19GenericStringBufferIT_T0_EENS5_2ChE, symObjAddr: 0x13C94, symBinAddr: 0x100014F88, symSize: 0x2C }
  - { offsetInCU: 0x1D676, offset: 0x1D676, size: 0x8, addend: 0x0, symName: __ZN9rapidjson14SkipWhitespaceINS_19BasicIStreamWrapperINSt3__113basic_istreamIcNS2_11char_traitsIcEEEEEEEEvRT_, symObjAddr: 0x1B7CC, symBinAddr: 0x10001CAC0, symSize: 0xC0 }
  - { offsetInCU: 0x1D6D5, offset: 0x1D6D5, size: 0x8, addend: 0x0, symName: __ZN9rapidjson9StringRefIcEENS_16GenericStringRefIT_EEPKS2_m, symObjAddr: 0x1EA88, symBinAddr: 0x10001FD7C, symSize: 0x44 }
  - { offsetInCU: 0x1D71B, offset: 0x1D71B, size: 0x8, addend: 0x0, symName: __ZN9rapidjson6MallocINS_13GenericMemberINS_4UTF8IcEENS_19MemoryPoolAllocatorINS_12CrtAllocatorEEEEES6_EEPT_RT0_m, symObjAddr: 0x1EF58, symBinAddr: 0x10002024C, symSize: 0x34 }
  - { offsetInCU: 0x1DA58, offset: 0x1DA58, size: 0x8, addend: 0x0, symName: __ZN9rapidjson12GenericValueINS_4UTF8IcEENS_19MemoryPoolAllocatorINS_12CrtAllocatorEEEEC2ENS_4TypeE, symObjAddr: 0x11D9C, symBinAddr: 0x100013090, symSize: 0xF0 }
  - { offsetInCU: 0x1DA81, offset: 0x1DA81, size: 0x8, addend: 0x0, symName: __ZZN9rapidjson12GenericValueINS_4UTF8IcEENS_19MemoryPoolAllocatorINS_12CrtAllocatorEEEEC1ENS_4TypeEE12defaultFlags, symObjAddr: 0x26B5E, symBinAddr: 0x1000291F6, symSize: 0x0 }
  - { offsetInCU: 0x1DB8A, offset: 0x1DB8A, size: 0x8, addend: 0x0, symName: __ZN9rapidjson6WriterINS_19GenericStringBufferINS_4UTF8IcEENS_12CrtAllocatorEEES3_S3_S4_Lj0EE11WriteStringEPKcj, symObjAddr: 0x143D0, symBinAddr: 0x1000156C4, symSize: 0x1D4 }
  - { offsetInCU: 0x1DBAF, offset: 0x1DBAF, size: 0x8, addend: 0x0, symName: __ZZN9rapidjson6WriterINS_19GenericStringBufferINS_4UTF8IcEENS_12CrtAllocatorEEES3_S3_S4_Lj0EE11WriteStringEPKcjE9hexDigits, symObjAddr: 0x26C26, symBinAddr: 0x1000292BE, symSize: 0x0 }
  - { offsetInCU: 0x1DBC6, offset: 0x1DBC6, size: 0x8, addend: 0x0, symName: __ZZN9rapidjson6WriterINS_19GenericStringBufferINS_4UTF8IcEENS_12CrtAllocatorEEES3_S3_S4_Lj0EE11WriteStringEPKcjE6escape, symObjAddr: 0x26C36, symBinAddr: 0x1000292CE, symSize: 0x0 }
  - { offsetInCU: 0x1E1E8, offset: 0x1E1E8, size: 0x8, addend: 0x0, symName: __ZN9rapidjson13GenericReaderINS_4UTF8IcEES2_NS_12CrtAllocatorEE19ParseStringToStreamILj0ES2_S2_NS_19BasicIStreamWrapperINSt3__113basic_istreamIcNS7_11char_traitsIcEEEEEENS4_11StackStreamIcEEEEvRT2_RT3_, symObjAddr: 0x1DDC0, symBinAddr: 0x10001F0B4, symSize: 0x628 }
  - { offsetInCU: 0x1E20D, offset: 0x1E20D, size: 0x8, addend: 0x0, symName: __ZZN9rapidjson13GenericReaderINS_4UTF8IcEES2_NS_12CrtAllocatorEE19ParseStringToStreamILj0ES2_S2_NS_19BasicIStreamWrapperINSt3__113basic_istreamIcNS7_11char_traitsIcEEEEEENS4_11StackStreamIcEEEEvRT2_RT3_E6escape, symObjAddr: 0x27208, symBinAddr: 0x1000298A0, symSize: 0x0 }
  - { offsetInCU: 0x1FD04, offset: 0x1FD04, size: 0x8, addend: 0x0, symName: __ZN5utils15index_to_stringEm, symObjAddr: 0x208, symBinAddr: 0x1000014FC, symSize: 0x94 }
  - { offsetInCU: 0x1FD3E, offset: 0x1FD3E, size: 0x8, addend: 0x0, symName: __ZN5utils5writeINSt3__13mapINS1_12basic_stringIcNS1_11char_traitsIcEENS1_9allocatorIcEEEEdNS1_4lessIS8_EENS6_INS1_4pairIKS8_dEEEEEEEEvRNS_6dict_tERKNS2_IS8_NS1_6vectorIT_NS6_ISJ_EEEESA_NS6_INSB_ISC_SL_EEEEEE, symObjAddr: 0x45E4, symBinAddr: 0x1000058D8, symSize: 0x128 }
  - { offsetInCU: 0x1FDE9, offset: 0x1FDE9, size: 0x8, addend: 0x0, symName: __ZN5utils4readINSt3__13mapINS1_12basic_stringIcNS1_11char_traitsIcEENS1_9allocatorIcEEEEdNS1_4lessIS8_EENS6_INS1_4pairIKS8_dEEEEEEEEvRKNS_6dict_tERNS2_IS8_NS1_6vectorIT_NS6_ISK_EEEESA_NS6_INSB_ISC_SM_EEEEEE, symObjAddr: 0x4738, symBinAddr: 0x100005A2C, symSize: 0x110 }
  - { offsetInCU: 0x1FF23, offset: 0x1FF23, size: 0x8, addend: 0x0, symName: __ZN5utils5writeIdEEvRNS_6dict_tERKNSt3__16vectorINS3_3mapINS3_12basic_stringIcNS3_11char_traitsIcEENS3_9allocatorIcEEEET_NS3_4lessISB_EENS9_INS3_4pairIKSB_SC_EEEEEENS9_ISJ_EEEE, symObjAddr: 0x22BE8, symBinAddr: 0x100023EDC, symSize: 0x134 }
  - { offsetInCU: 0x1FF8A, offset: 0x1FF8A, size: 0x8, addend: 0x0, symName: __ZN5utils5writeIdEEvRNS_6dict_tERKNSt3__13mapINS3_12basic_stringIcNS3_11char_traitsIcEENS3_9allocatorIcEEEET_NS3_4lessISA_EENS8_INS3_4pairIKSA_SB_EEEEEE, symObjAddr: 0x22E30, symBinAddr: 0x100024124, symSize: 0xE8 }
  - { offsetInCU: 0x20021, offset: 0x20021, size: 0x8, addend: 0x0, symName: __ZN5utils4readIdEEvRKNS_6dict_tERNSt3__16vectorINS4_3mapINS4_12basic_stringIcNS4_11char_traitsIcEENS4_9allocatorIcEEEET_NS4_4lessISC_EENSA_INS4_4pairIKSC_SD_EEEEEENSA_ISK_EEEE, symObjAddr: 0x230FC, symBinAddr: 0x1000243F0, symSize: 0xF4 }
  - { offsetInCU: 0x200B5, offset: 0x200B5, size: 0x8, addend: 0x0, symName: __ZN5utils4readIdEEvRKNS_6dict_tERNSt3__13mapINS4_12basic_stringIcNS4_11char_traitsIcEENS4_9allocatorIcEEEET_NS4_4lessISB_EENS9_INS4_4pairIKSB_SC_EEEEEE, symObjAddr: 0x23328, symBinAddr: 0x10002461C, symSize: 0xE8 }
  - { offsetInCU: 0x21980, offset: 0x21980, size: 0x8, addend: 0x0, symName: __ZNSt3__16vectorINS_3mapINS_12basic_stringIcNS_11char_traitsIcEENS_9allocatorIcEEEEdNS_4lessIS7_EENS5_INS_4pairIKS7_dEEEEEENS5_ISE_EEE26__swap_out_circular_bufferERNS_14__split_bufferISE_RSF_EE, symObjAddr: 0x23C0C, symBinAddr: 0x100024F00, symSize: 0x110 }
  - { offsetInCU: 0x23D95, offset: 0x23D95, size: 0x8, addend: 0x0, symName: __ZN5utils10TypeErasedC2ESt16initializer_listINSt3__14pairIKNS2_12basic_stringIcNS2_11char_traitsIcEENS2_9allocatorIcEEEES0_EEE, symObjAddr: 0x0, symBinAddr: 0x1000012F4, symSize: 0x84 }
  - { offsetInCU: 0x23DD0, offset: 0x23DD0, size: 0x8, addend: 0x0, symName: __ZN5utils6dict_tC1ESt16initializer_listINSt3__14pairIKNS2_12basic_stringIcNS2_11char_traitsIcEENS2_9allocatorIcEEEENS_10TypeErasedEEEE, symObjAddr: 0x84, symBinAddr: 0x100001378, symSize: 0x3C }
  - { offsetInCU: 0x23E08, offset: 0x23E08, size: 0x8, addend: 0x0, symName: __ZN5utils10TypeErasedC2INS_6dict_tEvEEOT_, symObjAddr: 0xC0, symBinAddr: 0x1000013B4, symSize: 0x64 }
  - { offsetInCU: 0x23E4A, offset: 0x23E4A, size: 0x8, addend: 0x0, symName: __ZN5utils6dict_tD1Ev, symObjAddr: 0x124, symBinAddr: 0x100001418, symSize: 0x2C }
  - { offsetInCU: 0x23E76, offset: 0x23E76, size: 0x8, addend: 0x0, symName: __ZN5utils10TypeErasedC1ESt16initializer_listINSt3__14pairIKNS2_12basic_stringIcNS2_11char_traitsIcEENS2_9allocatorIcEEEES0_EEE, symObjAddr: 0x150, symBinAddr: 0x100001444, symSize: 0x84 }
  - { offsetInCU: 0x23EB1, offset: 0x23EB1, size: 0x8, addend: 0x0, symName: __ZN5utils10TypeErasedC1INS_6dict_tEvEEOT_, symObjAddr: 0x1D4, symBinAddr: 0x1000014C8, symSize: 0x34 }
  - { offsetInCU: 0x23F21, offset: 0x23F21, size: 0x8, addend: 0x0, symName: __ZNSt3__119basic_ostringstreamIcNS_11char_traitsIcEENS_9allocatorIcEEEC1B8ue170006Ev, symObjAddr: 0x29C, symBinAddr: 0x100001590, symSize: 0xEC }
  - { offsetInCU: 0x23F4B, offset: 0x23F4B, size: 0x8, addend: 0x0, symName: __ZNKRSt3__119basic_ostringstreamIcNS_11char_traitsIcEENS_9allocatorIcEEE3strB8ue170006Ev, symObjAddr: 0x388, symBinAddr: 0x10000167C, symSize: 0x30 }
  - { offsetInCU: 0x23F77, offset: 0x23F77, size: 0x8, addend: 0x0, symName: __ZNSt3__119basic_ostringstreamIcNS_11char_traitsIcEENS_9allocatorIcEEED1Ev, symObjAddr: 0x3B8, symBinAddr: 0x1000016AC, symSize: 0x40 }
  - { offsetInCU: 0x23FA3, offset: 0x23FA3, size: 0x8, addend: 0x0, symName: __Z13write_to_jsonRKN5utils6dict_tERN9rapidjson12GenericValueINS3_4UTF8IcEENS3_19MemoryPoolAllocatorINS3_12CrtAllocatorEEEEERS9_, symObjAddr: 0x3F8, symBinAddr: 0x1000016EC, symSize: 0x43C }
  - { offsetInCU: 0x24120, offset: 0x24120, size: 0x8, addend: 0x0, symName: __ZNK5utils6dict_t5beginEv, symObjAddr: 0x834, symBinAddr: 0x100001B28, symSize: 0x2C }
  - { offsetInCU: 0x24146, offset: 0x24146, size: 0x8, addend: 0x0, symName: __ZNK5utils6dict_t3endEv, symObjAddr: 0x860, symBinAddr: 0x100001B54, symSize: 0x2C }
  - { offsetInCU: 0x2416C, offset: 0x2416C, size: 0x8, addend: 0x0, symName: __ZNKSt3__120__map_const_iteratorINS_21__tree_const_iteratorINS_12__value_typeINS_12basic_stringIcNS_11char_traitsIcEENS_9allocatorIcEEEEN5utils10TypeErasedEEEPNS_11__tree_nodeISB_PvEElEEEdeB8ue170006Ev, symObjAddr: 0x8BC, symBinAddr: 0x100001BB0, symSize: 0x28 }
  - { offsetInCU: 0x24192, offset: 0x24192, size: 0x8, addend: 0x0, symName: __ZNSt3__14pairIKNS_12basic_stringIcNS_11char_traitsIcEENS_9allocatorIcEEEEN5utils10TypeErasedEEC1B8ue170006ERKSA_, symObjAddr: 0x8E4, symBinAddr: 0x100001BD8, symSize: 0x34 }
  - { offsetInCU: 0x241C7, offset: 0x241C7, size: 0x8, addend: 0x0, symName: __ZNKSt3__112basic_stringIcNS_11char_traitsIcEENS_9allocatorIcEEE5c_strB8ue170006Ev, symObjAddr: 0x960, symBinAddr: 0x100001C54, symSize: 0x24 }
  - { offsetInCU: 0x241ED, offset: 0x241ED, size: 0x8, addend: 0x0, symName: __ZN9rapidjson12GenericValueINS_4UTF8IcEENS_19MemoryPoolAllocatorINS_12CrtAllocatorEEEEC1EPKcRS5_, symObjAddr: 0x984, symBinAddr: 0x100001C78, symSize: 0x3C }
  - { offsetInCU: 0x2423B, offset: 0x2423B, size: 0x8, addend: 0x0, symName: __ZNK5utils6dict_t7get_ptrIS0_EEPKT_RKNSt3__112basic_stringIcNS5_11char_traitsIcEENS5_9allocatorIcEEEE, symObjAddr: 0x9C0, symBinAddr: 0x100001CB4, symSize: 0xE4 }
  - { offsetInCU: 0x24291, offset: 0x24291, size: 0x8, addend: 0x0, symName: __ZN9rapidjson12GenericValueINS_4UTF8IcEENS_19MemoryPoolAllocatorINS_12CrtAllocatorEEEEC1ENS_4TypeE, symObjAddr: 0xAA4, symBinAddr: 0x100001D98, symSize: 0x34 }
  - { offsetInCU: 0x242CA, offset: 0x242CA, size: 0x8, addend: 0x0, symName: __ZN9rapidjson12GenericValueINS_4UTF8IcEENS_19MemoryPoolAllocatorINS_12CrtAllocatorEEEE9AddMemberERS6_S7_RS5_, symObjAddr: 0xAD8, symBinAddr: 0x100001DCC, symSize: 0xAC }
  - { offsetInCU: 0x2431D, offset: 0x2431D, size: 0x8, addend: 0x0, symName: __ZN9rapidjson12GenericValueINS_4UTF8IcEENS_19MemoryPoolAllocatorINS_12CrtAllocatorEEEED1Ev, symObjAddr: 0xB84, symBinAddr: 0x100001E78, symSize: 0x2C }
  - { offsetInCU: 0x2434D, offset: 0x2434D, size: 0x8, addend: 0x0, symName: __ZNK5utils6dict_t7get_ptrINSt3__112basic_stringIcNS2_11char_traitsIcEENS2_9allocatorIcEEEEEEPKT_RKS8_, symObjAddr: 0xBB0, symBinAddr: 0x100001EA4, symSize: 0xE4 }
  - { offsetInCU: 0x243A9, offset: 0x243A9, size: 0x8, addend: 0x0, symName: __ZNK5utils6dict_t7get_ptrIbEEPKT_RKNSt3__112basic_stringIcNS5_11char_traitsIcEENS5_9allocatorIcEEEE, symObjAddr: 0xC94, symBinAddr: 0x100001F88, symSize: 0xE4 }
  - { offsetInCU: 0x243FF, offset: 0x243FF, size: 0x8, addend: 0x0, symName: __ZN9rapidjson12GenericValueINS_4UTF8IcEENS_19MemoryPoolAllocatorINS_12CrtAllocatorEEEE9AddMemberIbEENS_8internal9DisableIfINS8_15RemoveSfinaeTagIPFRNS8_9SfinaeTagENS8_6OrExprINS8_9IsPointerIT_EENS8_14IsGenericValueISF_EEEEEE4TypeERS6_E4TypeESO_SF_RS5_, symObjAddr: 0xD78, symBinAddr: 0x10000206C, symSize: 0xCC }
  - { offsetInCU: 0x2446A, offset: 0x2446A, size: 0x8, addend: 0x0, symName: __ZNK5utils6dict_t11get_int_keyERKNSt3__112basic_stringIcNS1_11char_traitsIcEENS1_9allocatorIcEEEE, symObjAddr: 0xE44, symBinAddr: 0x100002138, symSize: 0x34 }
  - { offsetInCU: 0x2449F, offset: 0x2449F, size: 0x8, addend: 0x0, symName: __ZNOSt3__18optionalIiE5valueB8ue170006Ev, symObjAddr: 0xE78, symBinAddr: 0x10000216C, symSize: 0x3C }
  - { offsetInCU: 0x244C5, offset: 0x244C5, size: 0x8, addend: 0x0, symName: __ZN9rapidjson12GenericValueINS_4UTF8IcEENS_19MemoryPoolAllocatorINS_12CrtAllocatorEEEE9AddMemberIiEENS_8internal9DisableIfINS8_15RemoveSfinaeTagIPFRNS8_9SfinaeTagENS8_6OrExprINS8_9IsPointerIT_EENS8_14IsGenericValueISF_EEEEEE4TypeERS6_E4TypeESO_SF_RS5_, symObjAddr: 0xEB4, symBinAddr: 0x1000021A8, symSize: 0xBC }
  - { offsetInCU: 0x24530, offset: 0x24530, size: 0x8, addend: 0x0, symName: __ZNK5utils6dict_t14get_double_keyERKNSt3__112basic_stringIcNS1_11char_traitsIcEENS1_9allocatorIcEEEE, symObjAddr: 0xF70, symBinAddr: 0x100002264, symSize: 0x3C }
  - { offsetInCU: 0x24565, offset: 0x24565, size: 0x8, addend: 0x0, symName: __ZNOSt3__18optionalIdE5valueB8ue170006Ev, symObjAddr: 0xFAC, symBinAddr: 0x1000022A0, symSize: 0x3C }
  - { offsetInCU: 0x2458B, offset: 0x2458B, size: 0x8, addend: 0x0, symName: __ZN9rapidjson12GenericValueINS_4UTF8IcEENS_19MemoryPoolAllocatorINS_12CrtAllocatorEEEE9AddMemberIdEENS_8internal9DisableIfINS8_15RemoveSfinaeTagIPFRNS8_9SfinaeTagENS8_6OrExprINS8_9IsPointerIT_EENS8_14IsGenericValueISF_EEEEEE4TypeERS6_E4TypeESO_SF_RS5_, symObjAddr: 0xFE8, symBinAddr: 0x1000022DC, symSize: 0xBC }
  - { offsetInCU: 0x24659, offset: 0x24659, size: 0x8, addend: 0x0, symName: __ZN15bad_format_jsonC1Ev, symObjAddr: 0x10A4, symBinAddr: 0x100002398, symSize: 0x2C }
  - { offsetInCU: 0x24685, offset: 0x24685, size: 0x8, addend: 0x0, symName: __ZN15bad_format_jsonD1Ev, symObjAddr: 0x10D0, symBinAddr: 0x1000023C4, symSize: 0x2C }
  - { offsetInCU: 0x246B1, offset: 0x246B1, size: 0x8, addend: 0x0, symName: __ZNSt3__14pairIKNS_12basic_stringIcNS_11char_traitsIcEENS_9allocatorIcEEEEN5utils10TypeErasedEED1Ev, symObjAddr: 0x10FC, symBinAddr: 0x1000023F0, symSize: 0x2C }
  - { offsetInCU: 0x246DD, offset: 0x246DD, size: 0x8, addend: 0x0, symName: __ZNSt3__120__map_const_iteratorINS_21__tree_const_iteratorINS_12__value_typeINS_12basic_stringIcNS_11char_traitsIcEENS_9allocatorIcEEEEN5utils10TypeErasedEEEPNS_11__tree_nodeISB_PvEElEEEppB8ue170006Ev, symObjAddr: 0x1128, symBinAddr: 0x10000241C, symSize: 0x2C }
  - { offsetInCU: 0x24702, offset: 0x24702, size: 0x8, addend: 0x0, symName: __Z12save_to_jsonRNSt3__113basic_ostreamIcNS_11char_traitsIcEEEERKN5utils6dict_tE, symObjAddr: 0x1154, symBinAddr: 0x100002448, symSize: 0x180 }
  - { offsetInCU: 0x247B0, offset: 0x247B0, size: 0x8, addend: 0x0, symName: __ZN9rapidjson15GenericDocumentINS_4UTF8IcEENS_19MemoryPoolAllocatorINS_12CrtAllocatorEEES4_EC1EPS5_mPS4_, symObjAddr: 0x12D4, symBinAddr: 0x1000025C8, symSize: 0x44 }
  - { offsetInCU: 0x24807, offset: 0x24807, size: 0x8, addend: 0x0, symName: __ZN9rapidjson12GenericValueINS_4UTF8IcEENS_19MemoryPoolAllocatorINS_12CrtAllocatorEEEE9SetObjectEv, symObjAddr: 0x1318, symBinAddr: 0x10000260C, symSize: 0x38 }
  - { offsetInCU: 0x2482D, offset: 0x2482D, size: 0x8, addend: 0x0, symName: __ZN9rapidjson15GenericDocumentINS_4UTF8IcEENS_19MemoryPoolAllocatorINS_12CrtAllocatorEEES4_E12GetAllocatorEv, symObjAddr: 0x1350, symBinAddr: 0x100002644, symSize: 0x64 }
  - { offsetInCU: 0x24853, offset: 0x24853, size: 0x8, addend: 0x0, symName: __ZN9rapidjson19GenericStringBufferINS_4UTF8IcEENS_12CrtAllocatorEEC1EPS3_m, symObjAddr: 0x13B4, symBinAddr: 0x1000026A8, symSize: 0x3C }
  - { offsetInCU: 0x24899, offset: 0x24899, size: 0x8, addend: 0x0, symName: __ZN9rapidjson6WriterINS_19GenericStringBufferINS_4UTF8IcEENS_12CrtAllocatorEEES3_S3_S4_Lj0EEC1ERS5_PS4_m, symObjAddr: 0x13F0, symBinAddr: 0x1000026E4, symSize: 0x44 }
  - { offsetInCU: 0x248ED, offset: 0x248ED, size: 0x8, addend: 0x0, symName: __ZNK9rapidjson12GenericValueINS_4UTF8IcEENS_19MemoryPoolAllocatorINS_12CrtAllocatorEEEE6AcceptINS_6WriterINS_19GenericStringBufferIS2_S4_EES2_S2_S4_Lj0EEEEEbRT_, symObjAddr: 0x1434, symBinAddr: 0x100002728, symSize: 0x448 }
  - { offsetInCU: 0x24965, offset: 0x24965, size: 0x8, addend: 0x0, symName: __ZNK9rapidjson19GenericStringBufferINS_4UTF8IcEENS_12CrtAllocatorEE9GetStringEv, symObjAddr: 0x18DC, symBinAddr: 0x100002BD0, symSize: 0x4C }
  - { offsetInCU: 0x2498B, offset: 0x2498B, size: 0x8, addend: 0x0, symName: __ZN9rapidjson6WriterINS_19GenericStringBufferINS_4UTF8IcEENS_12CrtAllocatorEEES3_S3_S4_Lj0EED1Ev, symObjAddr: 0x1928, symBinAddr: 0x100002C1C, symSize: 0x2C }
  - { offsetInCU: 0x249B7, offset: 0x249B7, size: 0x8, addend: 0x0, symName: __ZN9rapidjson19GenericStringBufferINS_4UTF8IcEENS_12CrtAllocatorEED1Ev, symObjAddr: 0x1954, symBinAddr: 0x100002C48, symSize: 0x2C }
  - { offsetInCU: 0x249E3, offset: 0x249E3, size: 0x8, addend: 0x0, symName: __ZN9rapidjson15GenericDocumentINS_4UTF8IcEENS_19MemoryPoolAllocatorINS_12CrtAllocatorEEES4_ED1Ev, symObjAddr: 0x1980, symBinAddr: 0x100002C74, symSize: 0x2C }
  - { offsetInCU: 0x24A0C, offset: 0x24A0C, size: 0x8, addend: 0x0, symName: __Z9read_jsonRKN9rapidjson12GenericValueINS_4UTF8IcEENS_19MemoryPoolAllocatorINS_12CrtAllocatorEEEEERN5utils6dict_tE, symObjAddr: 0x19AC, symBinAddr: 0x100002CA0, symSize: 0x3FC }
  - { offsetInCU: 0x24A90, offset: 0x24A90, size: 0x8, addend: 0x0, symName: __ZNK9rapidjson12GenericValueINS_4UTF8IcEENS_19MemoryPoolAllocatorINS_12CrtAllocatorEEEE11MemberBeginEv, symObjAddr: 0x1DA8, symBinAddr: 0x10000309C, symSize: 0x6C }
  - { offsetInCU: 0x24ABC, offset: 0x24ABC, size: 0x8, addend: 0x0, symName: __ZNK9rapidjson21GenericMemberIteratorILb1ENS_4UTF8IcEENS_19MemoryPoolAllocatorINS_12CrtAllocatorEEEEneILb1EEEbRKNS0_IXT_ES2_S5_EE, symObjAddr: 0x1E14, symBinAddr: 0x100003108, symSize: 0x30 }
  - { offsetInCU: 0x24AFB, offset: 0x24AFB, size: 0x8, addend: 0x0, symName: __ZNK9rapidjson12GenericValueINS_4UTF8IcEENS_19MemoryPoolAllocatorINS_12CrtAllocatorEEEE9MemberEndEv, symObjAddr: 0x1E44, symBinAddr: 0x100003138, symSize: 0x7C }
  - { offsetInCU: 0x24B21, offset: 0x24B21, size: 0x8, addend: 0x0, symName: __ZNK9rapidjson21GenericMemberIteratorILb1ENS_4UTF8IcEENS_19MemoryPoolAllocatorINS_12CrtAllocatorEEEEptEv, symObjAddr: 0x1EC0, symBinAddr: 0x1000031B4, symSize: 0x18 }
  - { offsetInCU: 0x24B47, offset: 0x24B47, size: 0x8, addend: 0x0, symName: __ZNK9rapidjson12GenericValueINS_4UTF8IcEENS_19MemoryPoolAllocatorINS_12CrtAllocatorEEEE9GetStringEv, symObjAddr: 0x1ED8, symBinAddr: 0x1000031CC, symSize: 0x5C }
  - { offsetInCU: 0x24B73, offset: 0x24B73, size: 0x8, addend: 0x0, symName: __ZNSt3__112basic_stringIcNS_11char_traitsIcEENS_9allocatorIcEEEC1B8ue170006ILi0EEEPKc, symObjAddr: 0x1F34, symBinAddr: 0x100003228, symSize: 0x34 }
  - { offsetInCU: 0x24BB2, offset: 0x24BB2, size: 0x8, addend: 0x0, symName: __ZNK9rapidjson12GenericValueINS_4UTF8IcEENS_19MemoryPoolAllocatorINS_12CrtAllocatorEEEE8IsObjectEv, symObjAddr: 0x1F68, symBinAddr: 0x10000325C, symSize: 0x24 }
  - { offsetInCU: 0x24BD8, offset: 0x24BD8, size: 0x8, addend: 0x0, symName: __ZN5utils6dict_tC1Ev, symObjAddr: 0x1F8C, symBinAddr: 0x100003280, symSize: 0x2C }
  - { offsetInCU: 0x24C02, offset: 0x24C02, size: 0x8, addend: 0x0, symName: __ZN5utils6dict_t3putERKNSt3__112basic_stringIcNS1_11char_traitsIcEENS1_9allocatorIcEEEEONS_10TypeErasedE, symObjAddr: 0x1FB8, symBinAddr: 0x1000032AC, symSize: 0x48 }
  - { offsetInCU: 0x24C44, offset: 0x24C44, size: 0x8, addend: 0x0, symName: __ZN5utils10TypeErasedD1Ev, symObjAddr: 0x2000, symBinAddr: 0x1000032F4, symSize: 0x2C }
  - { offsetInCU: 0x24C70, offset: 0x24C70, size: 0x8, addend: 0x0, symName: __ZNK9rapidjson12GenericValueINS_4UTF8IcEENS_19MemoryPoolAllocatorINS_12CrtAllocatorEEEE5IsIntEv, symObjAddr: 0x202C, symBinAddr: 0x100003320, symSize: 0x24 }
  - { offsetInCU: 0x24C96, offset: 0x24C96, size: 0x8, addend: 0x0, symName: __ZNK9rapidjson12GenericValueINS_4UTF8IcEENS_19MemoryPoolAllocatorINS_12CrtAllocatorEEEE6GetIntEv, symObjAddr: 0x2050, symBinAddr: 0x100003344, symSize: 0x64 }
  - { offsetInCU: 0x24CC2, offset: 0x24CC2, size: 0x8, addend: 0x0, symName: __ZN5utils10TypeErasedC1IivEEOT_, symObjAddr: 0x20B4, symBinAddr: 0x1000033A8, symSize: 0x34 }
  - { offsetInCU: 0x24D04, offset: 0x24D04, size: 0x8, addend: 0x0, symName: __ZNK9rapidjson12GenericValueINS_4UTF8IcEENS_19MemoryPoolAllocatorINS_12CrtAllocatorEEEE8IsDoubleEv, symObjAddr: 0x20E8, symBinAddr: 0x1000033DC, symSize: 0x24 }
  - { offsetInCU: 0x24D2A, offset: 0x24D2A, size: 0x8, addend: 0x0, symName: __ZNK9rapidjson12GenericValueINS_4UTF8IcEENS_19MemoryPoolAllocatorINS_12CrtAllocatorEEEE9GetDoubleEv, symObjAddr: 0x210C, symBinAddr: 0x100003400, symSize: 0x160 }
  - { offsetInCU: 0x24D56, offset: 0x24D56, size: 0x8, addend: 0x0, symName: __ZN5utils10TypeErasedC1IdvEEOT_, symObjAddr: 0x226C, symBinAddr: 0x100003560, symSize: 0x34 }
  - { offsetInCU: 0x24D98, offset: 0x24D98, size: 0x8, addend: 0x0, symName: __ZNK9rapidjson12GenericValueINS_4UTF8IcEENS_19MemoryPoolAllocatorINS_12CrtAllocatorEEEE6IsBoolEv, symObjAddr: 0x22A0, symBinAddr: 0x100003594, symSize: 0x24 }
  - { offsetInCU: 0x24DBE, offset: 0x24DBE, size: 0x8, addend: 0x0, symName: __ZNK9rapidjson12GenericValueINS_4UTF8IcEENS_19MemoryPoolAllocatorINS_12CrtAllocatorEEEE7GetBoolEv, symObjAddr: 0x22C4, symBinAddr: 0x1000035B8, symSize: 0x68 }
  - { offsetInCU: 0x24DEA, offset: 0x24DEA, size: 0x8, addend: 0x0, symName: __ZN5utils10TypeErasedC1IbvEEOT_, symObjAddr: 0x232C, symBinAddr: 0x100003620, symSize: 0x34 }
  - { offsetInCU: 0x24E2C, offset: 0x24E2C, size: 0x8, addend: 0x0, symName: __ZNK9rapidjson12GenericValueINS_4UTF8IcEENS_19MemoryPoolAllocatorINS_12CrtAllocatorEEEE8IsStringEv, symObjAddr: 0x2360, symBinAddr: 0x100003654, symSize: 0x24 }
  - { offsetInCU: 0x24E58, offset: 0x24E58, size: 0x8, addend: 0x0, symName: __ZN5utils10TypeErasedC1INSt3__112basic_stringIcNS2_11char_traitsIcEENS2_9allocatorIcEEEEvEEOT_, symObjAddr: 0x2384, symBinAddr: 0x100003678, symSize: 0x34 }
  - { offsetInCU: 0x24E9A, offset: 0x24E9A, size: 0x8, addend: 0x0, symName: __ZN9rapidjson21GenericMemberIteratorILb1ENS_4UTF8IcEENS_19MemoryPoolAllocatorINS_12CrtAllocatorEEEEppEv, symObjAddr: 0x23B8, symBinAddr: 0x1000036AC, symSize: 0x20 }
  - { offsetInCU: 0x24EBF, offset: 0x24EBF, size: 0x8, addend: 0x0, symName: __Z14load_from_jsonRNSt3__113basic_istreamIcNS_11char_traitsIcEEEERN5utils6dict_tE, symObjAddr: 0x23D8, symBinAddr: 0x1000036CC, symSize: 0x184 }
  - { offsetInCU: 0x24F1A, offset: 0x24F1A, size: 0x8, addend: 0x0, symName: __ZN9rapidjson19BasicIStreamWrapperINSt3__113basic_istreamIcNS1_11char_traitsIcEEEEEC1ERS5_, symObjAddr: 0x255C, symBinAddr: 0x100003850, symSize: 0x34 }
  - { offsetInCU: 0x24F52, offset: 0x24F52, size: 0x8, addend: 0x0, symName: __ZN9rapidjson15GenericDocumentINS_4UTF8IcEENS_19MemoryPoolAllocatorINS_12CrtAllocatorEEES4_E11ParseStreamINS_19BasicIStreamWrapperINSt3__113basic_istreamIcNS9_11char_traitsIcEEEEEEEERS6_RT_, symObjAddr: 0x2590, symBinAddr: 0x100003884, symSize: 0x2C }
  - { offsetInCU: 0x24F90, offset: 0x24F90, size: 0x8, addend: 0x0, symName: __ZNK9rapidjson15GenericDocumentINS_4UTF8IcEENS_19MemoryPoolAllocatorINS_12CrtAllocatorEEES4_E13HasParseErrorEv, symObjAddr: 0x25BC, symBinAddr: 0x1000038B0, symSize: 0x2C }
  - { offsetInCU: 0x24FB6, offset: 0x24FB6, size: 0x8, addend: 0x0, symName: __ZNK9rapidjson15GenericDocumentINS_4UTF8IcEENS_19MemoryPoolAllocatorINS_12CrtAllocatorEEES4_E13GetParseErrorEv, symObjAddr: 0x25E8, symBinAddr: 0x1000038DC, symSize: 0x28 }
  - { offsetInCU: 0x24FDB, offset: 0x24FDB, size: 0x8, addend: 0x0, symName: __Z16make_sample_dictv, symObjAddr: 0x2610, symBinAddr: 0x100003904, symSize: 0x4A4 }
  - { offsetInCU: 0x25023, offset: 0x25023, size: 0x8, addend: 0x0, symName: __ZNSt3__14pairIKNS_12basic_stringIcNS_11char_traitsIcEENS_9allocatorIcEEEEN5utils10TypeErasedEEC1B8ue170006IRA5_KciLPv0EEEOT_OT0_, symObjAddr: 0x2AB4, symBinAddr: 0x100003DA8, symSize: 0x3C }
  - { offsetInCU: 0x2509A, offset: 0x2509A, size: 0x8, addend: 0x0, symName: __ZNSt3__14pairIKNS_12basic_stringIcNS_11char_traitsIcEENS_9allocatorIcEEEEN5utils10TypeErasedEEC1B8ue170006IRA12_KcdLPv0EEEOT_OT0_, symObjAddr: 0x2AF0, symBinAddr: 0x100003DE4, symSize: 0x3C }
  - { offsetInCU: 0x25111, offset: 0x25111, size: 0x8, addend: 0x0, symName: __ZNSt3__14pairIKNS_12basic_stringIcNS_11char_traitsIcEENS_9allocatorIcEEEEN5utils10TypeErasedEEC1B8ue170006IRA8_KcbLPv0EEEOT_OT0_, symObjAddr: 0x2B2C, symBinAddr: 0x100003E20, symSize: 0x3C }
  - { offsetInCU: 0x2516F, offset: 0x2516F, size: 0x8, addend: 0x0, symName: __ZNSt3__14pairIKNS_12basic_stringIcNS_11char_traitsIcEENS_9allocatorIcEEEEN5utils10TypeErasedEEC1B8ue170006IRA8_KcS6_LPv0EEEOT_OT0_, symObjAddr: 0x2B68, symBinAddr: 0x100003E5C, symSize: 0x3C }
  - { offsetInCU: 0x251E6, offset: 0x251E6, size: 0x8, addend: 0x0, symName: __ZNSt3__14pairIKNS_12basic_stringIcNS_11char_traitsIcEENS_9allocatorIcEEEEN5utils10TypeErasedEEC1B8ue170006IRA3_KcdLPv0EEEOT_OT0_, symObjAddr: 0x2BA4, symBinAddr: 0x100003E98, symSize: 0x3C }
  - { offsetInCU: 0x25244, offset: 0x25244, size: 0x8, addend: 0x0, symName: __ZNSt3__14pairIKNS_12basic_stringIcNS_11char_traitsIcEENS_9allocatorIcEEEEN5utils10TypeErasedEEC1B8ue170006ILb1ELPv0EEERS7_RKS9_, symObjAddr: 0x2BE0, symBinAddr: 0x100003ED4, symSize: 0x3C }
  - { offsetInCU: 0x25299, offset: 0x25299, size: 0x8, addend: 0x0, symName: __Z14test_copy_movev, symObjAddr: 0x2C1C, symBinAddr: 0x100003F10, symSize: 0x278 }
  - { offsetInCU: 0x252EE, offset: 0x252EE, size: 0x8, addend: 0x0, symName: __ZN5utils6dict_tC1ERKS0_, symObjAddr: 0x2E94, symBinAddr: 0x100004188, symSize: 0x34 }
  - { offsetInCU: 0x25326, offset: 0x25326, size: 0x8, addend: 0x0, symName: __ZNK5utils6dict_teqERKS0_, symObjAddr: 0x2EC8, symBinAddr: 0x1000041BC, symSize: 0x30 }
  - { offsetInCU: 0x2535B, offset: 0x2535B, size: 0x8, addend: 0x0, symName: __ZN5utils6dict_taSERKS0_, symObjAddr: 0x2EF8, symBinAddr: 0x1000041EC, symSize: 0x194 }
  - { offsetInCU: 0x253E4, offset: 0x253E4, size: 0x8, addend: 0x0, symName: __ZN5utils6dict_taSEOS0_, symObjAddr: 0x308C, symBinAddr: 0x100004380, symSize: 0x60 }
  - { offsetInCU: 0x25418, offset: 0x25418, size: 0x8, addend: 0x0, symName: __ZNK5utils6dict_t5emptyEv, symObjAddr: 0x30EC, symBinAddr: 0x1000043E0, symSize: 0x28 }
  - { offsetInCU: 0x2543E, offset: 0x2543E, size: 0x8, addend: 0x0, symName: __ZN5utils6dict_tC1EOS0_, symObjAddr: 0x3114, symBinAddr: 0x100004408, symSize: 0x34 }
  - { offsetInCU: 0x25475, offset: 0x25475, size: 0x8, addend: 0x0, symName: __Z14test_put_n_getv, symObjAddr: 0x3148, symBinAddr: 0x10000443C, symSize: 0x490 }
  - { offsetInCU: 0x254F1, offset: 0x254F1, size: 0x8, addend: 0x0, symName: __ZN5utils10TypeErasedC1IRNS_6dict_tEvEEOT_, symObjAddr: 0x35D8, symBinAddr: 0x1000048CC, symSize: 0x34 }
  - { offsetInCU: 0x25533, offset: 0x25533, size: 0x8, addend: 0x0, symName: __ZN5utils6dict_t3getIiEERT_RKNSt3__112basic_stringIcNS4_11char_traitsIcEENS4_9allocatorIcEEEE, symObjAddr: 0x360C, symBinAddr: 0x100004900, symSize: 0xE4 }
  - { offsetInCU: 0x25580, offset: 0x25580, size: 0x8, addend: 0x0, symName: __ZN5utils6dict_t7get_ptrIdEEPT_RKNSt3__112basic_stringIcNS4_11char_traitsIcEENS4_9allocatorIcEEEE, symObjAddr: 0x36F0, symBinAddr: 0x1000049E4, symSize: 0xE4 }
  - { offsetInCU: 0x255D9, offset: 0x255D9, size: 0x8, addend: 0x0, symName: __ZN5utils6dict_t3getIS0_EERT_RKNSt3__112basic_stringIcNS4_11char_traitsIcEENS4_9allocatorIcEEEE, symObjAddr: 0x37D4, symBinAddr: 0x100004AC8, symSize: 0xE4 }
  - { offsetInCU: 0x25626, offset: 0x25626, size: 0x8, addend: 0x0, symName: '__Z15check_exceptionIN5utils16no_key_exceptionEZ14test_put_n_getvE3$_0EbRKT0_', symObjAddr: 0x38B8, symBinAddr: 0x100004BAC, symSize: 0xB0 }
  - { offsetInCU: 0x25670, offset: 0x25670, size: 0x8, addend: 0x0, symName: '__Z15check_exceptionIN5utils22invalid_type_exceptionEZ14test_put_n_getvE3$_1EbRKT0_', symObjAddr: 0x3968, symBinAddr: 0x100004C5C, symSize: 0xB0 }
  - { offsetInCU: 0x256B9, offset: 0x256B9, size: 0x8, addend: 0x0, symName: __Z15get_compositionv, symObjAddr: 0x3A18, symBinAddr: 0x100004D0C, symSize: 0x6E8 }
  - { offsetInCU: 0x256E8, offset: 0x256E8, size: 0x8, addend: 0x0, symName: __ZNSt3__13mapINS_12basic_stringIcNS_11char_traitsIcEENS_9allocatorIcEEEEdNS_4lessIS6_EENS4_INS_4pairIKS6_dEEEEEC1B8ue170006Ev, symObjAddr: 0x4100, symBinAddr: 0x1000053F4, symSize: 0x2C }
  - { offsetInCU: 0x2572B, offset: 0x2572B, size: 0x8, addend: 0x0, symName: __ZNSt3__14pairIKNS_12basic_stringIcNS_11char_traitsIcEENS_9allocatorIcEEEEdEC1B8ue170006IRA7_KciLPv0EEEOT_OT0_, symObjAddr: 0x412C, symBinAddr: 0x100005420, symSize: 0x3C }
  - { offsetInCU: 0x25789, offset: 0x25789, size: 0x8, addend: 0x0, symName: __ZNSt3__14pairIKNS_12basic_stringIcNS_11char_traitsIcEENS_9allocatorIcEEEEdED1Ev, symObjAddr: 0x4168, symBinAddr: 0x10000545C, symSize: 0x2C }
  - { offsetInCU: 0x257B5, offset: 0x257B5, size: 0x8, addend: 0x0, symName: __ZNSt3__13mapINS_12basic_stringIcNS_11char_traitsIcEENS_9allocatorIcEEEEdNS_4lessIS6_EENS4_INS_4pairIKS6_dEEEEEC1B8ue170006ESt16initializer_listISB_ERKS8_, symObjAddr: 0x4194, symBinAddr: 0x100005488, symSize: 0x44 }
  - { offsetInCU: 0x25816, offset: 0x25816, size: 0x8, addend: 0x0, symName: __ZNSt3__14pairIKNS_12basic_stringIcNS_11char_traitsIcEENS_9allocatorIcEEEEdEC1B8ue170006IRA9_KciLPv0EEEOT_OT0_, symObjAddr: 0x41D8, symBinAddr: 0x1000054CC, symSize: 0x3C }
  - { offsetInCU: 0x25874, offset: 0x25874, size: 0x8, addend: 0x0, symName: __ZNSt3__16vectorINS_3mapINS_12basic_stringIcNS_11char_traitsIcEENS_9allocatorIcEEEEdNS_4lessIS7_EENS5_INS_4pairIKS7_dEEEEEENS5_ISE_EEEC1B8ue170006ESt16initializer_listISE_E, symObjAddr: 0x4214, symBinAddr: 0x100005508, symSize: 0x3C }
  - { offsetInCU: 0x258AF, offset: 0x258AF, size: 0x8, addend: 0x0, symName: __ZNSt3__14pairIKNS_12basic_stringIcNS_11char_traitsIcEENS_9allocatorIcEEEENS_6vectorINS_3mapIS6_dNS_4lessIS6_EENS4_INS0_IS7_dEEEEEENS4_ISE_EEEEEC1B8ue170006ILb1ELPv0EEERS7_RKSG_, symObjAddr: 0x4250, symBinAddr: 0x100005544, symSize: 0x3C }
  - { offsetInCU: 0x25905, offset: 0x25905, size: 0x8, addend: 0x0, symName: __ZNSt3__16vectorINS_3mapINS_12basic_stringIcNS_11char_traitsIcEENS_9allocatorIcEEEEdNS_4lessIS7_EENS5_INS_4pairIKS7_dEEEEEENS5_ISE_EEEC1B8ue170006Ev, symObjAddr: 0x428C, symBinAddr: 0x100005580, symSize: 0x2C }
  - { offsetInCU: 0x2592F, offset: 0x2592F, size: 0x8, addend: 0x0, symName: __ZNSt3__13mapINS_12basic_stringIcNS_11char_traitsIcEENS_9allocatorIcEEEENS_6vectorINS0_IS6_dNS_4lessIS6_EENS4_INS_4pairIKS6_dEEEEEENS4_ISE_EEEES9_NS4_INSA_ISB_SG_EEEEEC1B8ue170006ESt16initializer_listISH_ERKS9_, symObjAddr: 0x42B8, symBinAddr: 0x1000055AC, symSize: 0x44 }
  - { offsetInCU: 0x25977, offset: 0x25977, size: 0x8, addend: 0x0, symName: __ZNSt3__14pairIKNS_12basic_stringIcNS_11char_traitsIcEENS_9allocatorIcEEEENS_6vectorINS_3mapIS6_dNS_4lessIS6_EENS4_INS0_IS7_dEEEEEENS4_ISE_EEEEED1Ev, symObjAddr: 0x42FC, symBinAddr: 0x1000055F0, symSize: 0x2C }
  - { offsetInCU: 0x259A3, offset: 0x259A3, size: 0x8, addend: 0x0, symName: __ZNSt3__16vectorINS_3mapINS_12basic_stringIcNS_11char_traitsIcEENS_9allocatorIcEEEEdNS_4lessIS7_EENS5_INS_4pairIKS7_dEEEEEENS5_ISE_EEED1B8ue170006Ev, symObjAddr: 0x4328, symBinAddr: 0x10000561C, symSize: 0x2C }
  - { offsetInCU: 0x259CD, offset: 0x259CD, size: 0x8, addend: 0x0, symName: __ZNSt3__13mapINS_12basic_stringIcNS_11char_traitsIcEENS_9allocatorIcEEEEdNS_4lessIS6_EENS4_INS_4pairIKS6_dEEEEED1B8ue170006Ev, symObjAddr: 0x4354, symBinAddr: 0x100005648, symSize: 0x2C }
  - { offsetInCU: 0x259F7, offset: 0x259F7, size: 0x8, addend: 0x0, symName: __ZNSt3__13mapINS_12basic_stringIcNS_11char_traitsIcEENS_9allocatorIcEEEENS_6vectorINS0_IS6_dNS_4lessIS6_EENS4_INS_4pairIKS6_dEEEEEENS4_ISE_EEEES9_NS4_INSA_ISB_SG_EEEEED1B8ue170006Ev, symObjAddr: 0x4380, symBinAddr: 0x100005674, symSize: 0x2C }
  - { offsetInCU: 0x25A20, offset: 0x25A20, size: 0x8, addend: 0x0, symName: __Z18test_serializationv, symObjAddr: 0x43AC, symBinAddr: 0x1000056A0, symSize: 0x238 }
  - { offsetInCU: 0x25A75, offset: 0x25A75, size: 0x8, addend: 0x0, symName: __ZNSt3__13mapINS_12basic_stringIcNS_11char_traitsIcEENS_9allocatorIcEEEENS_6vectorINS0_IS6_dNS_4lessIS6_EENS4_INS_4pairIKS6_dEEEEEENS4_ISE_EEEES9_NS4_INSA_ISB_SG_EEEEEC1B8ue170006Ev, symObjAddr: 0x470C, symBinAddr: 0x100005A00, symSize: 0x2C }
  - { offsetInCU: 0x25A9F, offset: 0x25A9F, size: 0x8, addend: 0x0, symName: __ZN5utils6dict_t3getIdEERT_RKNSt3__112basic_stringIcNS4_11char_traitsIcEENS4_9allocatorIcEEEE, symObjAddr: 0x48E0, symBinAddr: 0x100005BD4, symSize: 0xE4 }
  - { offsetInCU: 0x25AEB, offset: 0x25AEB, size: 0x8, addend: 0x0, symName: __Z7test_eqv, symObjAddr: 0x49C4, symBinAddr: 0x100005CB8, symSize: 0x244 }
  - { offsetInCU: 0x25B40, offset: 0x25B40, size: 0x8, addend: 0x0, symName: __ZNK5utils6dict_tneERKS0_, symObjAddr: 0x4C08, symBinAddr: 0x100005EFC, symSize: 0x34 }
  - { offsetInCU: 0x25B74, offset: 0x25B74, size: 0x8, addend: 0x0, symName: __Z9test_jsonv, symObjAddr: 0x4C3C, symBinAddr: 0x100005F30, symSize: 0x18C }
  - { offsetInCU: 0x25BFB, offset: 0x25BFB, size: 0x8, addend: 0x0, symName: __ZNSt3__118basic_stringstreamIcNS_11char_traitsIcEENS_9allocatorIcEEEC1B8ue170006Ev, symObjAddr: 0x4DC8, symBinAddr: 0x1000060BC, symSize: 0x104 }
  - { offsetInCU: 0x25C25, offset: 0x25C25, size: 0x8, addend: 0x0, symName: __ZNKSt3__118basic_stringstreamIcNS_11char_traitsIcEENS_9allocatorIcEEE5rdbufB8ue170006Ev, symObjAddr: 0x4ECC, symBinAddr: 0x1000061C0, symSize: 0x18 }
  - { offsetInCU: 0x25C4B, offset: 0x25C4B, size: 0x8, addend: 0x0, symName: __ZNSt3__115basic_streambufIcNS_11char_traitsIcEEE10pubseekposB8ue170006ENS_4fposI11__mbstate_tEEj, symObjAddr: 0x4EE4, symBinAddr: 0x1000061D8, symSize: 0x94 }
  - { offsetInCU: 0x25C8E, offset: 0x25C8E, size: 0x8, addend: 0x0, symName: __ZNSt3__14fposI11__mbstate_tEC1B8ue170006Ex, symObjAddr: 0x4F78, symBinAddr: 0x10000626C, symSize: 0x34 }
  - { offsetInCU: 0x25CCC, offset: 0x25CCC, size: 0x8, addend: 0x0, symName: __ZNSt3__118basic_stringstreamIcNS_11char_traitsIcEENS_9allocatorIcEEED1Ev, symObjAddr: 0x4FAC, symBinAddr: 0x1000062A0, symSize: 0x40 }
  - { offsetInCU: 0x25CF8, offset: 0x25CF8, size: 0x8, addend: 0x0, symName: __Z12test_contentv, symObjAddr: 0x4FEC, symBinAddr: 0x1000062E0, symSize: 0x298 }
  - { offsetInCU: 0x25D21, offset: 0x25D21, size: 0x8, addend: 0x0, symName: __ZNK5utils6dict_t7is_dictERKNSt3__112basic_stringIcNS1_11char_traitsIcEENS1_9allocatorIcEEEE, symObjAddr: 0x5284, symBinAddr: 0x100006578, symSize: 0x38 }
  - { offsetInCU: 0x25D56, offset: 0x25D56, size: 0x8, addend: 0x0, symName: __ZNK5utils6dict_t8containsERKNSt3__112basic_stringIcNS1_11char_traitsIcEENS1_9allocatorIcEEEE, symObjAddr: 0x52BC, symBinAddr: 0x1000065B0, symSize: 0x60 }
  - { offsetInCU: 0x25D8B, offset: 0x25D8B, size: 0x8, addend: 0x0, symName: _main, symObjAddr: 0x531C, symBinAddr: 0x100006610, symSize: 0x7C }
  - { offsetInCU: 0x25DB4, offset: 0x25DB4, size: 0x8, addend: 0x0, symName: __ZN5utils6dict_tC2ESt16initializer_listINSt3__14pairIKNS2_12basic_stringIcNS2_11char_traitsIcEENS2_9allocatorIcEEEENS_10TypeErasedEEEE, symObjAddr: 0x5398, symBinAddr: 0x10000668C, symSize: 0x104 }
  - { offsetInCU: 0x25E4D, offset: 0x25E4D, size: 0x8, addend: 0x0, symName: __ZNSt3__13mapINS_12basic_stringIcNS_11char_traitsIcEENS_9allocatorIcEEEEN5utils10TypeErasedENS_4lessIS6_EENS4_INS_4pairIKS6_S8_EEEEEC1B8ue170006Ev, symObjAddr: 0x549C, symBinAddr: 0x100006790, symSize: 0x2C }
  - { offsetInCU: 0x25E77, offset: 0x25E77, size: 0x8, addend: 0x0, symName: __ZNKSt16initializer_listINSt3__14pairIKNS0_12basic_stringIcNS0_11char_traitsIcEENS0_9allocatorIcEEEEN5utils10TypeErasedEEEE5beginB8ue170006Ev, symObjAddr: 0x54C8, symBinAddr: 0x1000067BC, symSize: 0x18 }
  - { offsetInCU: 0x25E9D, offset: 0x25E9D, size: 0x8, addend: 0x0, symName: __ZNKSt16initializer_listINSt3__14pairIKNS0_12basic_stringIcNS0_11char_traitsIcEENS0_9allocatorIcEEEEN5utils10TypeErasedEEEE3endB8ue170006Ev, symObjAddr: 0x54E0, symBinAddr: 0x1000067D4, symSize: 0x20 }
  - { offsetInCU: 0x25EC3, offset: 0x25EC3, size: 0x8, addend: 0x0, symName: __ZNSt3__13mapINS_12basic_stringIcNS_11char_traitsIcEENS_9allocatorIcEEEEN5utils10TypeErasedENS_4lessIS6_EENS4_INS_4pairIKS6_S8_EEEEEixERSC_, symObjAddr: 0x5548, symBinAddr: 0x10000683C, symSize: 0x80 }
  - { offsetInCU: 0x25EFA, offset: 0x25EFA, size: 0x8, addend: 0x0, symName: __ZN5utils10TypeErasedaSERKS0_, symObjAddr: 0x55C8, symBinAddr: 0x1000068BC, symSize: 0x50 }
  - { offsetInCU: 0x25F2E, offset: 0x25F2E, size: 0x8, addend: 0x0, symName: __ZNSt3__13mapINS_12basic_stringIcNS_11char_traitsIcEENS_9allocatorIcEEEEN5utils10TypeErasedENS_4lessIS6_EENS4_INS_4pairIKS6_S8_EEEEED1B8ue170006Ev, symObjAddr: 0x5618, symBinAddr: 0x10000690C, symSize: 0x2C }
  - { offsetInCU: 0x25F58, offset: 0x25F58, size: 0x8, addend: 0x0, symName: __ZNSt3__13mapINS_12basic_stringIcNS_11char_traitsIcEENS_9allocatorIcEEEEN5utils10TypeErasedENS_4lessIS6_EENS4_INS_4pairIKS6_S8_EEEEEC2B8ue170006Ev, symObjAddr: 0x5644, symBinAddr: 0x100006938, symSize: 0x40 }
  - { offsetInCU: 0x25F82, offset: 0x25F82, size: 0x8, addend: 0x0, symName: __ZNSt3__119__map_value_compareINS_12basic_stringIcNS_11char_traitsIcEENS_9allocatorIcEEEENS_12__value_typeIS6_N5utils10TypeErasedEEENS_4lessIS6_EELb1EEC1B8ue170006ESC_, symObjAddr: 0x5684, symBinAddr: 0x100006978, symSize: 0x2C }
  - { offsetInCU: 0x25FBB, offset: 0x25FBB, size: 0x8, addend: 0x0, symName: __ZNSt3__16__treeINS_12__value_typeINS_12basic_stringIcNS_11char_traitsIcEENS_9allocatorIcEEEEN5utils10TypeErasedEEENS_19__map_value_compareIS7_SA_NS_4lessIS7_EELb1EEENS5_ISA_EEEC1ERKSE_, symObjAddr: 0x56B0, symBinAddr: 0x1000069A4, symSize: 0x34 }
  - { offsetInCU: 0x25FF6, offset: 0x25FF6, size: 0x8, addend: 0x0, symName: __ZNSt3__119__map_value_compareINS_12basic_stringIcNS_11char_traitsIcEENS_9allocatorIcEEEENS_12__value_typeIS6_N5utils10TypeErasedEEENS_4lessIS6_EELb1EEC2B8ue170006ESC_, symObjAddr: 0x56E4, symBinAddr: 0x1000069D8, symSize: 0x14 }
  - { offsetInCU: 0x2602F, offset: 0x2602F, size: 0x8, addend: 0x0, symName: __ZNSt3__16__treeINS_12__value_typeINS_12basic_stringIcNS_11char_traitsIcEENS_9allocatorIcEEEEN5utils10TypeErasedEEENS_19__map_value_compareIS7_SA_NS_4lessIS7_EELb1EEENS5_ISA_EEEC2ERKSE_, symObjAddr: 0x56F8, symBinAddr: 0x1000069EC, symSize: 0x7C }
  - { offsetInCU: 0x2606A, offset: 0x2606A, size: 0x8, addend: 0x0, symName: __ZNSt3__117__compressed_pairINS_15__tree_end_nodeIPNS_16__tree_node_baseIPvEEEENS_9allocatorINS_11__tree_nodeINS_12__value_typeINS_12basic_stringIcNS_11char_traitsIcEENS7_IcEEEEN5utils10TypeErasedEEES3_EEEEEC1B8ue170006ILb1EvEEv, symObjAddr: 0x5774, symBinAddr: 0x100006A68, symSize: 0x2C }
  - { offsetInCU: 0x2609F, offset: 0x2609F, size: 0x8, addend: 0x0, symName: __ZNSt3__117__compressed_pairImNS_19__map_value_compareINS_12basic_stringIcNS_11char_traitsIcEENS_9allocatorIcEEEENS_12__value_typeIS7_N5utils10TypeErasedEEENS_4lessIS7_EELb1EEEEC1B8ue170006IiRKSE_EEOT_OT0_, symObjAddr: 0x57AC, symBinAddr: 0x100006AA0, symSize: 0x3C }
  - { offsetInCU: 0x260F7, offset: 0x260F7, size: 0x8, addend: 0x0, symName: __ZNSt3__16__treeINS_12__value_typeINS_12basic_stringIcNS_11char_traitsIcEENS_9allocatorIcEEEEN5utils10TypeErasedEEENS_19__map_value_compareIS7_SA_NS_4lessIS7_EELb1EEENS5_ISA_EEE10__end_nodeB8ue170006Ev, symObjAddr: 0x57E8, symBinAddr: 0x100006ADC, symSize: 0x2C }
  - { offsetInCU: 0x2611D, offset: 0x2611D, size: 0x8, addend: 0x0, symName: __ZNSt3__16__treeINS_12__value_typeINS_12basic_stringIcNS_11char_traitsIcEENS_9allocatorIcEEEEN5utils10TypeErasedEEENS_19__map_value_compareIS7_SA_NS_4lessIS7_EELb1EEENS5_ISA_EEE12__begin_nodeB8ue170006Ev, symObjAddr: 0x5814, symBinAddr: 0x100006B08, symSize: 0x14 }
  - { offsetInCU: 0x26143, offset: 0x26143, size: 0x8, addend: 0x0, symName: __ZNSt3__117__compressed_pairINS_15__tree_end_nodeIPNS_16__tree_node_baseIPvEEEENS_9allocatorINS_11__tree_nodeINS_12__value_typeINS_12basic_stringIcNS_11char_traitsIcEENS7_IcEEEEN5utils10TypeErasedEEES3_EEEEEC2B8ue170006ILb1EvEEv, symObjAddr: 0x5828, symBinAddr: 0x100006B1C, symSize: 0x34 }
  - { offsetInCU: 0x26178, offset: 0x26178, size: 0x8, addend: 0x0, symName: __ZNSt3__122__compressed_pair_elemINS_15__tree_end_nodeIPNS_16__tree_node_baseIPvEEEELi0ELb0EEC2B8ue170006ENS_16__value_init_tagE, symObjAddr: 0x585C, symBinAddr: 0x100006B50, symSize: 0x2C }
  - { offsetInCU: 0x261AD, offset: 0x261AD, size: 0x8, addend: 0x0, symName: __ZNSt3__122__compressed_pair_elemINS_9allocatorINS_11__tree_nodeINS_12__value_typeINS_12basic_stringIcNS_11char_traitsIcEENS1_IcEEEEN5utils10TypeErasedEEEPvEEEELi1ELb1EEC2B8ue170006ENS_16__value_init_tagE, symObjAddr: 0x5888, symBinAddr: 0x100006B7C, symSize: 0x2C }
  - { offsetInCU: 0x261E2, offset: 0x261E2, size: 0x8, addend: 0x0, symName: __ZNSt3__115__tree_end_nodeIPNS_16__tree_node_baseIPvEEEC1B8ue170006Ev, symObjAddr: 0x58B4, symBinAddr: 0x100006BA8, symSize: 0x2C }
  - { offsetInCU: 0x2620C, offset: 0x2620C, size: 0x8, addend: 0x0, symName: __ZNSt3__115__tree_end_nodeIPNS_16__tree_node_baseIPvEEEC2B8ue170006Ev, symObjAddr: 0x58E0, symBinAddr: 0x100006BD4, symSize: 0x18 }
  - { offsetInCU: 0x26236, offset: 0x26236, size: 0x8, addend: 0x0, symName: __ZNSt3__19allocatorINS_11__tree_nodeINS_12__value_typeINS_12basic_stringIcNS_11char_traitsIcEENS0_IcEEEEN5utils10TypeErasedEEEPvEEEC2B8ue170006Ev, symObjAddr: 0x58F8, symBinAddr: 0x100006BEC, symSize: 0x2C }
  - { offsetInCU: 0x26260, offset: 0x26260, size: 0x8, addend: 0x0, symName: __ZNSt3__116__non_trivial_ifILb1ENS_9allocatorINS_11__tree_nodeINS_12__value_typeINS_12basic_stringIcNS_11char_traitsIcEENS1_IcEEEEN5utils10TypeErasedEEEPvEEEEEC2B8ue170006Ev, symObjAddr: 0x5924, symBinAddr: 0x100006C18, symSize: 0x14 }
  - { offsetInCU: 0x2628A, offset: 0x2628A, size: 0x8, addend: 0x0, symName: __ZNSt3__117__compressed_pairImNS_19__map_value_compareINS_12basic_stringIcNS_11char_traitsIcEENS_9allocatorIcEEEENS_12__value_typeIS7_N5utils10TypeErasedEEENS_4lessIS7_EELb1EEEEC2B8ue170006IiRKSE_EEOT_OT0_, symObjAddr: 0x5938, symBinAddr: 0x100006C2C, symSize: 0x44 }
  - { offsetInCU: 0x262E2, offset: 0x262E2, size: 0x8, addend: 0x0, symName: __ZNSt3__122__compressed_pair_elemImLi0ELb0EEC2B8ue170006IivEEOT_, symObjAddr: 0x597C, symBinAddr: 0x100006C70, symSize: 0x24 }
  - { offsetInCU: 0x26324, offset: 0x26324, size: 0x8, addend: 0x0, symName: __ZNSt3__122__compressed_pair_elemINS_19__map_value_compareINS_12basic_stringIcNS_11char_traitsIcEENS_9allocatorIcEEEENS_12__value_typeIS7_N5utils10TypeErasedEEENS_4lessIS7_EELb1EEELi1ELb1EEC2B8ue170006IRKSE_vEEOT_, symObjAddr: 0x59A0, symBinAddr: 0x100006C94, symSize: 0x18 }
  - { offsetInCU: 0x26366, offset: 0x26366, size: 0x8, addend: 0x0, symName: __ZNSt3__114pointer_traitsIPNS_15__tree_end_nodeIPNS_16__tree_node_baseIPvEEEEE10pointer_toB8ue170006ERS6_, symObjAddr: 0x59B8, symBinAddr: 0x100006CAC, symSize: 0x14 }
  - { offsetInCU: 0x26389, offset: 0x26389, size: 0x8, addend: 0x0, symName: __ZNSt3__117__compressed_pairINS_15__tree_end_nodeIPNS_16__tree_node_baseIPvEEEENS_9allocatorINS_11__tree_nodeINS_12__value_typeINS_12basic_stringIcNS_11char_traitsIcEENS7_IcEEEEN5utils10TypeErasedEEES3_EEEEE5firstB8ue170006Ev, symObjAddr: 0x59CC, symBinAddr: 0x100006CC0, symSize: 0x24 }
  - { offsetInCU: 0x263AF, offset: 0x263AF, size: 0x8, addend: 0x0, symName: __ZNSt3__122__compressed_pair_elemINS_15__tree_end_nodeIPNS_16__tree_node_baseIPvEEEELi0ELb0EE5__getB8ue170006Ev, symObjAddr: 0x59F0, symBinAddr: 0x100006CE4, symSize: 0x14 }
  - { offsetInCU: 0x263D5, offset: 0x263D5, size: 0x8, addend: 0x0, symName: __ZNSt3__110__get_pairILm0EE3getB8ue170006IKNS_12basic_stringIcNS_11char_traitsIcEENS_9allocatorIcEEEEN5utils10TypeErasedEEERKT_RKNS_4pairISC_T0_EE, symObjAddr: 0x5A04, symBinAddr: 0x100006CF8, symSize: 0x14 }
  - { offsetInCU: 0x2640B, offset: 0x2640B, size: 0x8, addend: 0x0, symName: __ZNSt3__110__get_pairILm1EE3getB8ue170006IKNS_12basic_stringIcNS_11char_traitsIcEENS_9allocatorIcEEEEN5utils10TypeErasedEEERKT0_RKNS_4pairIT_SC_EE, symObjAddr: 0x5A18, symBinAddr: 0x100006D0C, symSize: 0x18 }
  - { offsetInCU: 0x26459, offset: 0x26459, size: 0x8, addend: 0x0, symName: __ZNSt3__16__treeINS_12__value_typeINS_12basic_stringIcNS_11char_traitsIcEENS_9allocatorIcEEEEN5utils10TypeErasedEEENS_19__map_value_compareIS7_SA_NS_4lessIS7_EELb1EEENS5_ISA_EEE25__emplace_unique_key_argsIS7_JRKNS_21piecewise_construct_tENS_5tupleIJRKS7_EEENSL_IJEEEEEENS_4pairINS_15__tree_iteratorISA_PNS_11__tree_nodeISA_PvEElEEbEERKT_DpOT0_, symObjAddr: 0x5A30, symBinAddr: 0x100006D24, symSize: 0x100 }
  - { offsetInCU: 0x2652F, offset: 0x2652F, size: 0x8, addend: 0x0, symName: __ZNKSt3__115__tree_iteratorINS_12__value_typeINS_12basic_stringIcNS_11char_traitsIcEENS_9allocatorIcEEEEN5utils10TypeErasedEEEPNS_11__tree_nodeISA_PvEElEptB8ue170006Ev, symObjAddr: 0x5B60, symBinAddr: 0x100006E54, symSize: 0x2C }
  - { offsetInCU: 0x26555, offset: 0x26555, size: 0x8, addend: 0x0, symName: __ZNSt3__112__value_typeINS_12basic_stringIcNS_11char_traitsIcEENS_9allocatorIcEEEEN5utils10TypeErasedEE11__get_valueB8ue170006Ev, symObjAddr: 0x5B8C, symBinAddr: 0x100006E80, symSize: 0x24 }
  - { offsetInCU: 0x2657B, offset: 0x2657B, size: 0x8, addend: 0x0, symName: __ZNSt3__16__treeINS_12__value_typeINS_12basic_stringIcNS_11char_traitsIcEENS_9allocatorIcEEEEN5utils10TypeErasedEEENS_19__map_value_compareIS7_SA_NS_4lessIS7_EELb1EEENS5_ISA_EEE12__find_equalIS7_EERPNS_16__tree_node_baseIPvEERPNS_15__tree_end_nodeISL_EERKT_, symObjAddr: 0x5BB0, symBinAddr: 0x100006EA4, symSize: 0x184 }
  - { offsetInCU: 0x265E8, offset: 0x265E8, size: 0x8, addend: 0x0, symName: __ZNSt3__16__treeINS_12__value_typeINS_12basic_stringIcNS_11char_traitsIcEENS_9allocatorIcEEEEN5utils10TypeErasedEEENS_19__map_value_compareIS7_SA_NS_4lessIS7_EELb1EEENS5_ISA_EEE16__construct_nodeIJRKNS_21piecewise_construct_tENS_5tupleIJRKS7_EEENSL_IJEEEEEENS_10unique_ptrINS_11__tree_nodeISA_PvEENS_22__tree_node_destructorINS5_IST_EEEEEEDpOT_, symObjAddr: 0x5D34, symBinAddr: 0x100007028, symSize: 0x120 }
  - { offsetInCU: 0x26671, offset: 0x26671, size: 0x8, addend: 0x0, symName: __ZNSt3__16__treeINS_12__value_typeINS_12basic_stringIcNS_11char_traitsIcEENS_9allocatorIcEEEEN5utils10TypeErasedEEENS_19__map_value_compareIS7_SA_NS_4lessIS7_EELb1EEENS5_ISA_EEE16__insert_node_atEPNS_15__tree_end_nodeIPNS_16__tree_node_baseIPvEEEERSL_SL_, symObjAddr: 0x5E54, symBinAddr: 0x100007148, symSize: 0xCC }
  - { offsetInCU: 0x266C6, offset: 0x266C6, size: 0x8, addend: 0x0, symName: __ZNKSt3__110unique_ptrINS_11__tree_nodeINS_12__value_typeINS_12basic_stringIcNS_11char_traitsIcEENS_9allocatorIcEEEEN5utils10TypeErasedEEEPvEENS_22__tree_node_destructorINS6_ISD_EEEEE3getB8ue170006Ev, symObjAddr: 0x5F20, symBinAddr: 0x100007214, symSize: 0x28 }
  - { offsetInCU: 0x266EC, offset: 0x266EC, size: 0x8, addend: 0x0, symName: __ZNSt3__110unique_ptrINS_11__tree_nodeINS_12__value_typeINS_12basic_stringIcNS_11char_traitsIcEENS_9allocatorIcEEEEN5utils10TypeErasedEEEPvEENS_22__tree_node_destructorINS6_ISD_EEEEE7releaseB8ue170006Ev, symObjAddr: 0x5F48, symBinAddr: 0x10000723C, symSize: 0x44 }
  - { offsetInCU: 0x26721, offset: 0x26721, size: 0x8, addend: 0x0, symName: __ZNSt3__110unique_ptrINS_11__tree_nodeINS_12__value_typeINS_12basic_stringIcNS_11char_traitsIcEENS_9allocatorIcEEEEN5utils10TypeErasedEEEPvEENS_22__tree_node_destructorINS6_ISD_EEEEED1B8ue170006Ev, symObjAddr: 0x5F8C, symBinAddr: 0x100007280, symSize: 0x2C }
  - { offsetInCU: 0x2674B, offset: 0x2674B, size: 0x8, addend: 0x0, symName: __ZNSt3__115__tree_iteratorINS_12__value_typeINS_12basic_stringIcNS_11char_traitsIcEENS_9allocatorIcEEEEN5utils10TypeErasedEEEPNS_11__tree_nodeISA_PvEElEC1B8ue170006ESE_, symObjAddr: 0x5FB8, symBinAddr: 0x1000072AC, symSize: 0x34 }
  - { offsetInCU: 0x2678A, offset: 0x2678A, size: 0x8, addend: 0x0, symName: __ZNSt3__14pairINS_15__tree_iteratorINS_12__value_typeINS_12basic_stringIcNS_11char_traitsIcEENS_9allocatorIcEEEEN5utils10TypeErasedEEEPNS_11__tree_nodeISB_PvEElEEbEC1B8ue170006ISG_RbLSD_0EEEOT_OT0_, symObjAddr: 0x5FEC, symBinAddr: 0x1000072E0, symSize: 0x3C }
  - { offsetInCU: 0x267E8, offset: 0x267E8, size: 0x8, addend: 0x0, symName: __ZNKSt3__16__treeINS_12__value_typeINS_12basic_stringIcNS_11char_traitsIcEENS_9allocatorIcEEEEN5utils10TypeErasedEEENS_19__map_value_compareIS7_SA_NS_4lessIS7_EELb1EEENS5_ISA_EEE6__rootB8ue170006Ev, symObjAddr: 0x6028, symBinAddr: 0x10000731C, symSize: 0x28 }
  - { offsetInCU: 0x2680E, offset: 0x2680E, size: 0x8, addend: 0x0, symName: __ZNKSt3__16__treeINS_12__value_typeINS_12basic_stringIcNS_11char_traitsIcEENS_9allocatorIcEEEEN5utils10TypeErasedEEENS_19__map_value_compareIS7_SA_NS_4lessIS7_EELb1EEENS5_ISA_EEE10__root_ptrB8ue170006Ev, symObjAddr: 0x6050, symBinAddr: 0x100007344, symSize: 0x24 }
  - { offsetInCU: 0x26834, offset: 0x26834, size: 0x8, addend: 0x0, symName: __ZNSt3__16__treeINS_12__value_typeINS_12basic_stringIcNS_11char_traitsIcEENS_9allocatorIcEEEEN5utils10TypeErasedEEENS_19__map_value_compareIS7_SA_NS_4lessIS7_EELb1EEENS5_ISA_EEE10value_compB8ue170006Ev, symObjAddr: 0x6074, symBinAddr: 0x100007368, symSize: 0x28 }
  - { offsetInCU: 0x2685A, offset: 0x2685A, size: 0x8, addend: 0x0, symName: __ZNKSt3__119__map_value_compareINS_12basic_stringIcNS_11char_traitsIcEENS_9allocatorIcEEEENS_12__value_typeIS6_N5utils10TypeErasedEEENS_4lessIS6_EELb1EEclB8ue170006ERKS6_RKSA_, symObjAddr: 0x609C, symBinAddr: 0x100007390, symSize: 0x50 }
  - { offsetInCU: 0x2689E, offset: 0x2689E, size: 0x8, addend: 0x0, symName: __ZNKSt3__119__map_value_compareINS_12basic_stringIcNS_11char_traitsIcEENS_9allocatorIcEEEENS_12__value_typeIS6_N5utils10TypeErasedEEENS_4lessIS6_EELb1EEclB8ue170006ERKSA_RKS6_, symObjAddr: 0x60EC, symBinAddr: 0x1000073E0, symSize: 0x48 }
  - { offsetInCU: 0x268E2, offset: 0x268E2, size: 0x8, addend: 0x0, symName: __ZNKSt3__16__treeINS_12__value_typeINS_12basic_stringIcNS_11char_traitsIcEENS_9allocatorIcEEEEN5utils10TypeErasedEEENS_19__map_value_compareIS7_SA_NS_4lessIS7_EELb1EEENS5_ISA_EEE10__end_nodeB8ue170006Ev, symObjAddr: 0x6134, symBinAddr: 0x100007428, symSize: 0x2C }
  - { offsetInCU: 0x26908, offset: 0x26908, size: 0x8, addend: 0x0, symName: __ZNKSt3__117__compressed_pairINS_15__tree_end_nodeIPNS_16__tree_node_baseIPvEEEENS_9allocatorINS_11__tree_nodeINS_12__value_typeINS_12basic_stringIcNS_11char_traitsIcEENS7_IcEEEEN5utils10TypeErasedEEES3_EEEEE5firstB8ue170006Ev, symObjAddr: 0x6160, symBinAddr: 0x100007454, symSize: 0x24 }
  - { offsetInCU: 0x2692E, offset: 0x2692E, size: 0x8, addend: 0x0, symName: __ZNKSt3__122__compressed_pair_elemINS_15__tree_end_nodeIPNS_16__tree_node_baseIPvEEEELi0ELb0EE5__getB8ue170006Ev, symObjAddr: 0x6184, symBinAddr: 0x100007478, symSize: 0x14 }
  - { offsetInCU: 0x26954, offset: 0x26954, size: 0x8, addend: 0x0, symName: __ZNSt3__117__compressed_pairImNS_19__map_value_compareINS_12basic_stringIcNS_11char_traitsIcEENS_9allocatorIcEEEENS_12__value_typeIS7_N5utils10TypeErasedEEENS_4lessIS7_EELb1EEEE6secondB8ue170006Ev, symObjAddr: 0x6198, symBinAddr: 0x10000748C, symSize: 0x24 }
  - { offsetInCU: 0x2697A, offset: 0x2697A, size: 0x8, addend: 0x0, symName: __ZNSt3__122__compressed_pair_elemINS_19__map_value_compareINS_12basic_stringIcNS_11char_traitsIcEENS_9allocatorIcEEEENS_12__value_typeIS7_N5utils10TypeErasedEEENS_4lessIS7_EELb1EEELi1ELb1EE5__getB8ue170006Ev, symObjAddr: 0x61BC, symBinAddr: 0x1000074B0, symSize: 0x14 }
  - { offsetInCU: 0x269A0, offset: 0x269A0, size: 0x8, addend: 0x0, symName: __ZNKSt3__14lessINS_12basic_stringIcNS_11char_traitsIcEENS_9allocatorIcEEEEEclB8ue170006ERKS6_S9_, symObjAddr: 0x61D0, symBinAddr: 0x1000074C4, symSize: 0x50 }
  - { offsetInCU: 0x269E4, offset: 0x269E4, size: 0x8, addend: 0x0, symName: __ZNKSt3__112__value_typeINS_12basic_stringIcNS_11char_traitsIcEENS_9allocatorIcEEEEN5utils10TypeErasedEE11__get_valueB8ue170006Ev, symObjAddr: 0x6220, symBinAddr: 0x100007514, symSize: 0x24 }
  - { offsetInCU: 0x26A1A, offset: 0x26A1A, size: 0x8, addend: 0x0, symName: __ZNSt3__120_CmpUnspecifiedParamC1B8ue170006EMS0_i, symObjAddr: 0x62C4, symBinAddr: 0x1000075B8, symSize: 0x34 }
  - { offsetInCU: 0x26A4F, offset: 0x26A4F, size: 0x8, addend: 0x0, symName: __ZNKSt3__112basic_stringIcNS_11char_traitsIcEENS_9allocatorIcEEEcvNS_17basic_string_viewIcS2_EEB8ue170006Ev, symObjAddr: 0x6374, symBinAddr: 0x100007668, symSize: 0x50 }
  - { offsetInCU: 0x26A75, offset: 0x26A75, size: 0x8, addend: 0x0, symName: __ZNKSt3__117basic_string_viewIcNS_11char_traitsIcEEE7compareES3_, symObjAddr: 0x63C4, symBinAddr: 0x1000076B8, symSize: 0x13C }
  - { offsetInCU: 0x26AC8, offset: 0x26AC8, size: 0x8, addend: 0x0, symName: __ZNKSt3__117basic_string_viewIcNS_11char_traitsIcEEE4sizeB8ue170006Ev, symObjAddr: 0x652C, symBinAddr: 0x100007820, symSize: 0x18 }
  - { offsetInCU: 0x26AEE, offset: 0x26AEE, size: 0x8, addend: 0x0, symName: __ZNSt3__111char_traitsIcE7compareB8ue170006EPKcS3_m, symObjAddr: 0x6544, symBinAddr: 0x100007838, symSize: 0x34 }
  - { offsetInCU: 0x26B2D, offset: 0x26B2D, size: 0x8, addend: 0x0, symName: __ZNKSt3__117basic_string_viewIcNS_11char_traitsIcEEE4dataB8ue170006Ev, symObjAddr: 0x6578, symBinAddr: 0x10000786C, symSize: 0x18 }
  - { offsetInCU: 0x26B5E, offset: 0x26B5E, size: 0x8, addend: 0x0, symName: __ZNKSt3__16__lessIvvEclB8ue170006ImmEEbRKT_RKT0_, symObjAddr: 0x65E4, symBinAddr: 0x1000078D8, symSize: 0x34 }
  - { offsetInCU: 0x26BB2, offset: 0x26BB2, size: 0x8, addend: 0x0, symName: __ZNKSt3__112basic_stringIcNS_11char_traitsIcEENS_9allocatorIcEEE4dataB8ue170006Ev, symObjAddr: 0x6618, symBinAddr: 0x10000790C, symSize: 0x28 }
  - { offsetInCU: 0x26BD8, offset: 0x26BD8, size: 0x8, addend: 0x0, symName: __ZNKSt3__112basic_stringIcNS_11char_traitsIcEENS_9allocatorIcEEE4sizeB8ue170006Ev, symObjAddr: 0x6640, symBinAddr: 0x100007934, symSize: 0x54 }
  - { offsetInCU: 0x26BFE, offset: 0x26BFE, size: 0x8, addend: 0x0, symName: __ZNSt3__117basic_string_viewIcNS_11char_traitsIcEEEC1B8ue170006EPKcm, symObjAddr: 0x6694, symBinAddr: 0x100007988, symSize: 0x3C }
  - { offsetInCU: 0x26C46, offset: 0x26C46, size: 0x8, addend: 0x0, symName: __ZNKSt3__112basic_stringIcNS_11char_traitsIcEENS_9allocatorIcEEE13__get_pointerB8ue170006Ev, symObjAddr: 0x66E4, symBinAddr: 0x1000079D8, symSize: 0x54 }
  - { offsetInCU: 0x26C6C, offset: 0x26C6C, size: 0x8, addend: 0x0, symName: __ZNKSt3__112basic_stringIcNS_11char_traitsIcEENS_9allocatorIcEEE9__is_longB8ue170006Ev, symObjAddr: 0x6738, symBinAddr: 0x100007A2C, symSize: 0x38 }
  - { offsetInCU: 0x26C92, offset: 0x26C92, size: 0x8, addend: 0x0, symName: __ZNKSt3__112basic_stringIcNS_11char_traitsIcEENS_9allocatorIcEEE18__get_long_pointerB8ue170006Ev, symObjAddr: 0x6770, symBinAddr: 0x100007A64, symSize: 0x28 }
  - { offsetInCU: 0x26CB8, offset: 0x26CB8, size: 0x8, addend: 0x0, symName: __ZNKSt3__112basic_stringIcNS_11char_traitsIcEENS_9allocatorIcEEE19__get_short_pointerB8ue170006Ev, symObjAddr: 0x6798, symBinAddr: 0x100007A8C, symSize: 0x28 }
  - { offsetInCU: 0x26CDE, offset: 0x26CDE, size: 0x8, addend: 0x0, symName: __ZNKSt3__117__compressed_pairINS_12basic_stringIcNS_11char_traitsIcEENS_9allocatorIcEEE5__repES5_E5firstB8ue170006Ev, symObjAddr: 0x67C0, symBinAddr: 0x100007AB4, symSize: 0x24 }
  - { offsetInCU: 0x26D04, offset: 0x26D04, size: 0x8, addend: 0x0, symName: __ZNKSt3__122__compressed_pair_elemINS_12basic_stringIcNS_11char_traitsIcEENS_9allocatorIcEEE5__repELi0ELb0EE5__getB8ue170006Ev, symObjAddr: 0x67E4, symBinAddr: 0x100007AD8, symSize: 0x14 }
  - { offsetInCU: 0x26D2A, offset: 0x26D2A, size: 0x8, addend: 0x0, symName: __ZNSt3__114pointer_traitsIPKcE10pointer_toB8ue170006ERS1_, symObjAddr: 0x67F8, symBinAddr: 0x100007AEC, symSize: 0x14 }
  - { offsetInCU: 0x26D4D, offset: 0x26D4D, size: 0x8, addend: 0x0, symName: __ZNKSt3__112basic_stringIcNS_11char_traitsIcEENS_9allocatorIcEEE15__get_long_sizeB8ue170006Ev, symObjAddr: 0x680C, symBinAddr: 0x100007B00, symSize: 0x28 }
  - { offsetInCU: 0x26D73, offset: 0x26D73, size: 0x8, addend: 0x0, symName: __ZNKSt3__112basic_stringIcNS_11char_traitsIcEENS_9allocatorIcEEE16__get_short_sizeB8ue170006Ev, symObjAddr: 0x6834, symBinAddr: 0x100007B28, symSize: 0x34 }
  - { offsetInCU: 0x26D99, offset: 0x26D99, size: 0x8, addend: 0x0, symName: __ZNSt3__117basic_string_viewIcNS_11char_traitsIcEEEC2B8ue170006EPKcm, symObjAddr: 0x6868, symBinAddr: 0x100007B5C, symSize: 0x2C }
  - { offsetInCU: 0x26DE1, offset: 0x26DE1, size: 0x8, addend: 0x0, symName: __ZNSt3__120_CmpUnspecifiedParamC2B8ue170006EMS0_i, symObjAddr: 0x6894, symBinAddr: 0x100007B88, symSize: 0x18 }
  - { offsetInCU: 0x26E16, offset: 0x26E16, size: 0x8, addend: 0x0, symName: __ZNSt3__16__treeINS_12__value_typeINS_12basic_stringIcNS_11char_traitsIcEENS_9allocatorIcEEEEN5utils10TypeErasedEEENS_19__map_value_compareIS7_SA_NS_4lessIS7_EELb1EEENS5_ISA_EEE12__node_allocB8ue170006Ev, symObjAddr: 0x68E4, symBinAddr: 0x100007BD8, symSize: 0x28 }
  - { offsetInCU: 0x26E3C, offset: 0x26E3C, size: 0x8, addend: 0x0, symName: __ZNSt3__116allocator_traitsINS_9allocatorINS_11__tree_nodeINS_12__value_typeINS_12basic_stringIcNS_11char_traitsIcEENS1_IcEEEEN5utils10TypeErasedEEEPvEEEEE8allocateB8ue170006ERSE_m, symObjAddr: 0x690C, symBinAddr: 0x100007C00, symSize: 0x2C }
  - { offsetInCU: 0x26E6F, offset: 0x26E6F, size: 0x8, addend: 0x0, symName: __ZNSt3__122__tree_node_destructorINS_9allocatorINS_11__tree_nodeINS_12__value_typeINS_12basic_stringIcNS_11char_traitsIcEENS1_IcEEEEN5utils10TypeErasedEEEPvEEEEEC1B8ue170006ERSE_b, symObjAddr: 0x6938, symBinAddr: 0x100007C2C, symSize: 0x48 }
  - { offsetInCU: 0x26EBD, offset: 0x26EBD, size: 0x8, addend: 0x0, symName: __ZNSt3__110unique_ptrINS_11__tree_nodeINS_12__value_typeINS_12basic_stringIcNS_11char_traitsIcEENS_9allocatorIcEEEEN5utils10TypeErasedEEEPvEENS_22__tree_node_destructorINS6_ISD_EEEEEC1B8ue170006ILb1EvEEPSD_NS_16__dependent_typeINS_27__unique_ptr_deleter_sfinaeISG_EEXT_EE20__good_rval_ref_typeE, symObjAddr: 0x6980, symBinAddr: 0x100007C74, symSize: 0x3C }
  - { offsetInCU: 0x26F0E, offset: 0x26F0E, size: 0x8, addend: 0x0, symName: __ZNSt3__116allocator_traitsINS_9allocatorINS_11__tree_nodeINS_12__value_typeINS_12basic_stringIcNS_11char_traitsIcEENS1_IcEEEEN5utils10TypeErasedEEEPvEEEEE9constructB8ue170006INS_4pairIKS8_SA_EEJRKNS_21piecewise_construct_tENS_5tupleIJRSI_EEENSN_IJEEEEvvEEvRSE_PT_DpOT0_, symObjAddr: 0x69BC, symBinAddr: 0x100007CB0, symSize: 0x40 }
  - { offsetInCU: 0x26F8A, offset: 0x26F8A, size: 0x8, addend: 0x0, symName: __ZNSt3__122__tree_key_value_typesINS_12__value_typeINS_12basic_stringIcNS_11char_traitsIcEENS_9allocatorIcEEEEN5utils10TypeErasedEEEE9__get_ptrB8ue170006ERSA_, symObjAddr: 0x69FC, symBinAddr: 0x100007CF0, symSize: 0x24 }
  - { offsetInCU: 0x26FAE, offset: 0x26FAE, size: 0x8, addend: 0x0, symName: __ZNKSt3__110unique_ptrINS_11__tree_nodeINS_12__value_typeINS_12basic_stringIcNS_11char_traitsIcEENS_9allocatorIcEEEEN5utils10TypeErasedEEEPvEENS_22__tree_node_destructorINS6_ISD_EEEEEptB8ue170006Ev, symObjAddr: 0x6A20, symBinAddr: 0x100007D14, symSize: 0x28 }
  - { offsetInCU: 0x26FD4, offset: 0x26FD4, size: 0x8, addend: 0x0, symName: __ZNSt3__110unique_ptrINS_11__tree_nodeINS_12__value_typeINS_12basic_stringIcNS_11char_traitsIcEENS_9allocatorIcEEEEN5utils10TypeErasedEEEPvEENS_22__tree_node_destructorINS6_ISD_EEEEE11get_deleterB8ue170006Ev, symObjAddr: 0x6A48, symBinAddr: 0x100007D3C, symSize: 0x24 }
  - { offsetInCU: 0x26FFA, offset: 0x26FFA, size: 0x8, addend: 0x0, symName: __ZNSt3__117__compressed_pairINS_15__tree_end_nodeIPNS_16__tree_node_baseIPvEEEENS_9allocatorINS_11__tree_nodeINS_12__value_typeINS_12basic_stringIcNS_11char_traitsIcEENS7_IcEEEEN5utils10TypeErasedEEES3_EEEEE6secondB8ue170006Ev, symObjAddr: 0x6A6C, symBinAddr: 0x100007D60, symSize: 0x24 }
  - { offsetInCU: 0x27020, offset: 0x27020, size: 0x8, addend: 0x0, symName: __ZNSt3__122__compressed_pair_elemINS_9allocatorINS_11__tree_nodeINS_12__value_typeINS_12basic_stringIcNS_11char_traitsIcEENS1_IcEEEEN5utils10TypeErasedEEEPvEEEELi1ELb1EE5__getB8ue170006Ev, symObjAddr: 0x6A90, symBinAddr: 0x100007D84, symSize: 0x14 }
  - { offsetInCU: 0x27046, offset: 0x27046, size: 0x8, addend: 0x0, symName: __ZNSt3__19allocatorINS_11__tree_nodeINS_12__value_typeINS_12basic_stringIcNS_11char_traitsIcEENS0_IcEEEEN5utils10TypeErasedEEEPvEEE8allocateB8ue170006Em, symObjAddr: 0x6AA4, symBinAddr: 0x100007D98, symSize: 0x58 }
  - { offsetInCU: 0x27085, offset: 0x27085, size: 0x8, addend: 0x0, symName: __ZNSt3__116allocator_traitsINS_9allocatorINS_11__tree_nodeINS_12__value_typeINS_12basic_stringIcNS_11char_traitsIcEENS1_IcEEEEN5utils10TypeErasedEEEPvEEEEE8max_sizeB8ue170006ISE_vvEEmRKSE_, symObjAddr: 0x6AFC, symBinAddr: 0x100007DF0, symSize: 0x28 }
  - { offsetInCU: 0x270B0, offset: 0x270B0, size: 0x8, addend: 0x0, symName: __ZNSt3__114numeric_limitsImE3maxB8ue170006Ev, symObjAddr: 0x6BB8, symBinAddr: 0x100007EAC, symSize: 0x14 }
  - { offsetInCU: 0x270C4, offset: 0x270C4, size: 0x8, addend: 0x0, symName: __ZNSt3__123__libcpp_numeric_limitsImLb1EE3maxB8ue170006Ev, symObjAddr: 0x6BCC, symBinAddr: 0x100007EC0, symSize: 0x8 }
  - { offsetInCU: 0x270D8, offset: 0x270D8, size: 0x8, addend: 0x0, symName: __ZNSt3__122__tree_node_destructorINS_9allocatorINS_11__tree_nodeINS_12__value_typeINS_12basic_stringIcNS_11char_traitsIcEENS1_IcEEEEN5utils10TypeErasedEEEPvEEEEEC2B8ue170006ERSE_b, symObjAddr: 0x6C44, symBinAddr: 0x100007F38, symSize: 0x38 }
  - { offsetInCU: 0x27120, offset: 0x27120, size: 0x8, addend: 0x0, symName: __ZNSt3__110unique_ptrINS_11__tree_nodeINS_12__value_typeINS_12basic_stringIcNS_11char_traitsIcEENS_9allocatorIcEEEEN5utils10TypeErasedEEEPvEENS_22__tree_node_destructorINS6_ISD_EEEEEC2B8ue170006ILb1EvEEPSD_NS_16__dependent_typeINS_27__unique_ptr_deleter_sfinaeISG_EEXT_EE20__good_rval_ref_typeE, symObjAddr: 0x6C7C, symBinAddr: 0x100007F70, symSize: 0x48 }
  - { offsetInCU: 0x27171, offset: 0x27171, size: 0x8, addend: 0x0, symName: __ZNSt3__117__compressed_pairIPNS_11__tree_nodeINS_12__value_typeINS_12basic_stringIcNS_11char_traitsIcEENS_9allocatorIcEEEEN5utils10TypeErasedEEEPvEENS_22__tree_node_destructorINS6_ISD_EEEEEC1B8ue170006IRSE_SH_EEOT_OT0_, symObjAddr: 0x6CC4, symBinAddr: 0x100007FB8, symSize: 0x3C }
  - { offsetInCU: 0x271C9, offset: 0x271C9, size: 0x8, addend: 0x0, symName: __ZNSt3__117__compressed_pairIPNS_11__tree_nodeINS_12__value_typeINS_12basic_stringIcNS_11char_traitsIcEENS_9allocatorIcEEEEN5utils10TypeErasedEEEPvEENS_22__tree_node_destructorINS6_ISD_EEEEEC2B8ue170006IRSE_SH_EEOT_OT0_, symObjAddr: 0x6D00, symBinAddr: 0x100007FF4, symSize: 0x48 }
  - { offsetInCU: 0x27221, offset: 0x27221, size: 0x8, addend: 0x0, symName: __ZNSt3__122__compressed_pair_elemIPNS_11__tree_nodeINS_12__value_typeINS_12basic_stringIcNS_11char_traitsIcEENS_9allocatorIcEEEEN5utils10TypeErasedEEEPvEELi0ELb0EEC2B8ue170006IRSE_vEEOT_, symObjAddr: 0x6D48, symBinAddr: 0x10000803C, symSize: 0x24 }
  - { offsetInCU: 0x27263, offset: 0x27263, size: 0x8, addend: 0x0, symName: __ZNSt3__122__compressed_pair_elemINS_22__tree_node_destructorINS_9allocatorINS_11__tree_nodeINS_12__value_typeINS_12basic_stringIcNS_11char_traitsIcEENS2_IcEEEEN5utils10TypeErasedEEEPvEEEEEELi1ELb0EEC2B8ue170006ISG_vEEOT_, symObjAddr: 0x6D6C, symBinAddr: 0x100008060, symSize: 0x24 }
  - { offsetInCU: 0x272A5, offset: 0x272A5, size: 0x8, addend: 0x0, symName: __ZNSt3__14pairIKNS_12basic_stringIcNS_11char_traitsIcEENS_9allocatorIcEEEEN5utils10TypeErasedEEC1B8ue170006IJRS7_EJEEENS_21piecewise_construct_tENS_5tupleIJDpT_EEENSE_IJDpT0_EEE, symObjAddr: 0x6DE0, symBinAddr: 0x1000080D4, symSize: 0x3C }
  - { offsetInCU: 0x2730C, offset: 0x2730C, size: 0x8, addend: 0x0, symName: __ZNSt3__14pairIKNS_12basic_stringIcNS_11char_traitsIcEENS_9allocatorIcEEEEN5utils10TypeErasedEEC1B8ue170006IJRS7_EJEJLm0EEJEEENS_21piecewise_construct_tERNS_5tupleIJDpT_EEERNSE_IJDpT0_EEENS_15__tuple_indicesIJXspT1_EEEENSN_IJXspT2_EEEE, symObjAddr: 0x6E1C, symBinAddr: 0x100008110, symSize: 0x3C }
  - { offsetInCU: 0x27399, offset: 0x27399, size: 0x8, addend: 0x0, symName: __ZNSt3__14pairIKNS_12basic_stringIcNS_11char_traitsIcEENS_9allocatorIcEEEEN5utils10TypeErasedEEC2B8ue170006IJRS7_EJEJLm0EEJEEENS_21piecewise_construct_tERNS_5tupleIJDpT_EEERNSE_IJDpT0_EEENS_15__tuple_indicesIJXspT1_EEEENSN_IJXspT2_EEEE, symObjAddr: 0x6E58, symBinAddr: 0x10000814C, symSize: 0x54 }
  - { offsetInCU: 0x27426, offset: 0x27426, size: 0x8, addend: 0x0, symName: __ZN5utils10TypeErasedC1Ev, symObjAddr: 0x6ED0, symBinAddr: 0x1000081C4, symSize: 0x2C }
  - { offsetInCU: 0x27450, offset: 0x27450, size: 0x8, addend: 0x0, symName: __ZNSt3__112__tuple_leafILm0ERKNS_12basic_stringIcNS_11char_traitsIcEENS_9allocatorIcEEEELb0EE3getB8ue170006Ev, symObjAddr: 0x6EFC, symBinAddr: 0x1000081F0, symSize: 0x18 }
  - { offsetInCU: 0x27476, offset: 0x27476, size: 0x8, addend: 0x0, symName: __ZN5utils10TypeErasedC2Ev, symObjAddr: 0x6F14, symBinAddr: 0x100008208, symSize: 0x2C }
  - { offsetInCU: 0x274A0, offset: 0x274A0, size: 0x8, addend: 0x0, symName: __ZNSt3__110unique_ptrIN5utils10TypeErased4BaseENS_14default_deleteIS3_EEEC1B8ue170006ILb1EvEEv, symObjAddr: 0x6F40, symBinAddr: 0x100008234, symSize: 0x2C }
  - { offsetInCU: 0x274D5, offset: 0x274D5, size: 0x8, addend: 0x0, symName: __ZNSt3__110unique_ptrIN5utils10TypeErased4BaseENS_14default_deleteIS3_EEEC2B8ue170006ILb1EvEEv, symObjAddr: 0x6F6C, symBinAddr: 0x100008260, symSize: 0x3C }
  - { offsetInCU: 0x27510, offset: 0x27510, size: 0x8, addend: 0x0, symName: __ZNSt3__117__compressed_pairIPN5utils10TypeErased4BaseENS_14default_deleteIS3_EEEC1B8ue170006INS_16__value_init_tagES9_EEOT_OT0_, symObjAddr: 0x6FA8, symBinAddr: 0x10000829C, symSize: 0x3C }
  - { offsetInCU: 0x27568, offset: 0x27568, size: 0x8, addend: 0x0, symName: __ZNSt3__117__compressed_pairIPN5utils10TypeErased4BaseENS_14default_deleteIS3_EEEC2B8ue170006INS_16__value_init_tagES9_EEOT_OT0_, symObjAddr: 0x6FE4, symBinAddr: 0x1000082D8, symSize: 0x3C }
  - { offsetInCU: 0x275C0, offset: 0x275C0, size: 0x8, addend: 0x0, symName: __ZNSt3__122__compressed_pair_elemIPN5utils10TypeErased4BaseELi0ELb0EEC2B8ue170006ENS_16__value_init_tagE, symObjAddr: 0x7020, symBinAddr: 0x100008314, symSize: 0x18 }
  - { offsetInCU: 0x275F5, offset: 0x275F5, size: 0x8, addend: 0x0, symName: __ZNSt3__122__compressed_pair_elemINS_14default_deleteIN5utils10TypeErased4BaseEEELi1ELb1EEC2B8ue170006ENS_16__value_init_tagE, symObjAddr: 0x7038, symBinAddr: 0x10000832C, symSize: 0x14 }
  - { offsetInCU: 0x2762A, offset: 0x2762A, size: 0x8, addend: 0x0, symName: __ZNKSt3__117__compressed_pairIPNS_11__tree_nodeINS_12__value_typeINS_12basic_stringIcNS_11char_traitsIcEENS_9allocatorIcEEEEN5utils10TypeErasedEEEPvEENS_22__tree_node_destructorINS6_ISD_EEEEE5firstB8ue170006Ev, symObjAddr: 0x704C, symBinAddr: 0x100008340, symSize: 0x24 }
  - { offsetInCU: 0x27650, offset: 0x27650, size: 0x8, addend: 0x0, symName: __ZNKSt3__122__compressed_pair_elemIPNS_11__tree_nodeINS_12__value_typeINS_12basic_stringIcNS_11char_traitsIcEENS_9allocatorIcEEEEN5utils10TypeErasedEEEPvEELi0ELb0EE5__getB8ue170006Ev, symObjAddr: 0x7070, symBinAddr: 0x100008364, symSize: 0x14 }
  - { offsetInCU: 0x27676, offset: 0x27676, size: 0x8, addend: 0x0, symName: __ZNSt3__117__compressed_pairIPNS_11__tree_nodeINS_12__value_typeINS_12basic_stringIcNS_11char_traitsIcEENS_9allocatorIcEEEEN5utils10TypeErasedEEEPvEENS_22__tree_node_destructorINS6_ISD_EEEEE6secondB8ue170006Ev, symObjAddr: 0x7084, symBinAddr: 0x100008378, symSize: 0x28 }
  - { offsetInCU: 0x2769C, offset: 0x2769C, size: 0x8, addend: 0x0, symName: __ZNSt3__122__compressed_pair_elemINS_22__tree_node_destructorINS_9allocatorINS_11__tree_nodeINS_12__value_typeINS_12basic_stringIcNS_11char_traitsIcEENS2_IcEEEEN5utils10TypeErasedEEEPvEEEEEELi1ELb0EE5__getB8ue170006Ev, symObjAddr: 0x70AC, symBinAddr: 0x1000083A0, symSize: 0x14 }
  - { offsetInCU: 0x276C2, offset: 0x276C2, size: 0x8, addend: 0x0, symName: __ZNSt3__16__treeINS_12__value_typeINS_12basic_stringIcNS_11char_traitsIcEENS_9allocatorIcEEEEN5utils10TypeErasedEEENS_19__map_value_compareIS7_SA_NS_4lessIS7_EELb1EEENS5_ISA_EEE4sizeB8ue170006Ev, symObjAddr: 0x73EC, symBinAddr: 0x1000086E0, symSize: 0x28 }
  - { offsetInCU: 0x276E8, offset: 0x276E8, size: 0x8, addend: 0x0, symName: __ZNKSt3__116__tree_node_baseIPvE15__parent_unsafeB8ue170006Ev, symObjAddr: 0x7414, symBinAddr: 0x100008708, symSize: 0x18 }
  - { offsetInCU: 0x2770E, offset: 0x2770E, size: 0x8, addend: 0x0, symName: __ZNSt3__116__tree_node_baseIPvE12__set_parentB8ue170006EPS2_, symObjAddr: 0x75FC, symBinAddr: 0x1000088F0, symSize: 0x20 }
  - { offsetInCU: 0x27743, offset: 0x27743, size: 0x8, addend: 0x0, symName: __ZNSt3__117__compressed_pairImNS_19__map_value_compareINS_12basic_stringIcNS_11char_traitsIcEENS_9allocatorIcEEEENS_12__value_typeIS7_N5utils10TypeErasedEEENS_4lessIS7_EELb1EEEE5firstB8ue170006Ev, symObjAddr: 0x761C, symBinAddr: 0x100008910, symSize: 0x24 }
  - { offsetInCU: 0x27769, offset: 0x27769, size: 0x8, addend: 0x0, symName: __ZNSt3__122__compressed_pair_elemImLi0ELb0EE5__getB8ue170006Ev, symObjAddr: 0x7640, symBinAddr: 0x100008934, symSize: 0x14 }
  - { offsetInCU: 0x2778F, offset: 0x2778F, size: 0x8, addend: 0x0, symName: __ZNSt3__117__compressed_pairIPNS_11__tree_nodeINS_12__value_typeINS_12basic_stringIcNS_11char_traitsIcEENS_9allocatorIcEEEEN5utils10TypeErasedEEEPvEENS_22__tree_node_destructorINS6_ISD_EEEEE5firstB8ue170006Ev, symObjAddr: 0x7654, symBinAddr: 0x100008948, symSize: 0x24 }
  - { offsetInCU: 0x277B5, offset: 0x277B5, size: 0x8, addend: 0x0, symName: __ZNSt3__122__compressed_pair_elemIPNS_11__tree_nodeINS_12__value_typeINS_12basic_stringIcNS_11char_traitsIcEENS_9allocatorIcEEEEN5utils10TypeErasedEEEPvEELi0ELb0EE5__getB8ue170006Ev, symObjAddr: 0x7678, symBinAddr: 0x10000896C, symSize: 0x14 }
  - { offsetInCU: 0x277DB, offset: 0x277DB, size: 0x8, addend: 0x0, symName: __ZNSt3__110unique_ptrINS_11__tree_nodeINS_12__value_typeINS_12basic_stringIcNS_11char_traitsIcEENS_9allocatorIcEEEEN5utils10TypeErasedEEEPvEENS_22__tree_node_destructorINS6_ISD_EEEEED2B8ue170006Ev, symObjAddr: 0x768C, symBinAddr: 0x100008980, symSize: 0x30 }
  - { offsetInCU: 0x27805, offset: 0x27805, size: 0x8, addend: 0x0, symName: __ZNSt3__110unique_ptrINS_11__tree_nodeINS_12__value_typeINS_12basic_stringIcNS_11char_traitsIcEENS_9allocatorIcEEEEN5utils10TypeErasedEEEPvEENS_22__tree_node_destructorINS6_ISD_EEEEE5resetB8ue170006EPSD_, symObjAddr: 0x76BC, symBinAddr: 0x1000089B0, symSize: 0x78 }
  - { offsetInCU: 0x27849, offset: 0x27849, size: 0x8, addend: 0x0, symName: __ZNSt3__122__tree_node_destructorINS_9allocatorINS_11__tree_nodeINS_12__value_typeINS_12basic_stringIcNS_11char_traitsIcEENS1_IcEEEEN5utils10TypeErasedEEEPvEEEEEclB8ue170006EPSD_, symObjAddr: 0x7734, symBinAddr: 0x100008A28, symSize: 0x98 }
  - { offsetInCU: 0x2787E, offset: 0x2787E, size: 0x8, addend: 0x0, symName: __ZNSt3__116allocator_traitsINS_9allocatorINS_11__tree_nodeINS_12__value_typeINS_12basic_stringIcNS_11char_traitsIcEENS1_IcEEEEN5utils10TypeErasedEEEPvEEEEE7destroyB8ue170006INS_4pairIKS8_SA_EEvvEEvRSE_PT_, symObjAddr: 0x77CC, symBinAddr: 0x100008AC0, symSize: 0x28 }
  - { offsetInCU: 0x278B8, offset: 0x278B8, size: 0x8, addend: 0x0, symName: __ZNSt3__116allocator_traitsINS_9allocatorINS_11__tree_nodeINS_12__value_typeINS_12basic_stringIcNS_11char_traitsIcEENS1_IcEEEEN5utils10TypeErasedEEEPvEEEEE10deallocateB8ue170006ERSE_PSD_m, symObjAddr: 0x77F4, symBinAddr: 0x100008AE8, symSize: 0x34 }
  - { offsetInCU: 0x278FA, offset: 0x278FA, size: 0x8, addend: 0x0, symName: __ZNSt3__19allocatorINS_11__tree_nodeINS_12__value_typeINS_12basic_stringIcNS_11char_traitsIcEENS0_IcEEEEN5utils10TypeErasedEEEPvEEE10deallocateB8ue170006EPSC_m, symObjAddr: 0x7870, symBinAddr: 0x100008B64, symSize: 0x40 }
  - { offsetInCU: 0x2793C, offset: 0x2793C, size: 0x8, addend: 0x0, symName: __ZNSt3__115__tree_iteratorINS_12__value_typeINS_12basic_stringIcNS_11char_traitsIcEENS_9allocatorIcEEEEN5utils10TypeErasedEEEPNS_11__tree_nodeISA_PvEElEC2B8ue170006ESE_, symObjAddr: 0x79B8, symBinAddr: 0x100008CAC, symSize: 0x20 }
  - { offsetInCU: 0x27975, offset: 0x27975, size: 0x8, addend: 0x0, symName: __ZNSt3__14pairINS_15__tree_iteratorINS_12__value_typeINS_12basic_stringIcNS_11char_traitsIcEENS_9allocatorIcEEEEN5utils10TypeErasedEEEPNS_11__tree_nodeISB_PvEElEEbEC2B8ue170006ISG_RbLSD_0EEEOT_OT0_, symObjAddr: 0x79D8, symBinAddr: 0x100008CCC, symSize: 0x38 }
  - { offsetInCU: 0x279D3, offset: 0x279D3, size: 0x8, addend: 0x0, symName: __ZNSt3__15tupleIJRKNS_12basic_stringIcNS_11char_traitsIcEENS_9allocatorIcEEEEEEC1B8ue170006INS_4_AndELi0EEES8_, symObjAddr: 0x7A10, symBinAddr: 0x100008D04, symSize: 0x34 }
  - { offsetInCU: 0x27A1B, offset: 0x27A1B, size: 0x8, addend: 0x0, symName: __ZNSt3__15tupleIJRKNS_12basic_stringIcNS_11char_traitsIcEENS_9allocatorIcEEEEEEC2B8ue170006INS_4_AndELi0EEES8_, symObjAddr: 0x7A44, symBinAddr: 0x100008D38, symSize: 0x34 }
  - { offsetInCU: 0x27A63, offset: 0x27A63, size: 0x8, addend: 0x0, symName: __ZNSt3__112__tuple_implINS_15__tuple_indicesIJLm0EEEEJRKNS_12basic_stringIcNS_11char_traitsIcEENS_9allocatorIcEEEEEEC1B8ue170006IJLm0EEJSA_EJEJEJSA_EEENS1_IJXspT_EEEENS_13__tuple_typesIJDpT0_EEENS1_IJXspT1_EEEENSE_IJDpT2_EEEDpOT3_, symObjAddr: 0x7A78, symBinAddr: 0x100008D6C, symSize: 0x34 }
  - { offsetInCU: 0x27AF4, offset: 0x27AF4, size: 0x8, addend: 0x0, symName: __ZNSt3__112__tuple_implINS_15__tuple_indicesIJLm0EEEEJRKNS_12basic_stringIcNS_11char_traitsIcEENS_9allocatorIcEEEEEEC2B8ue170006IJLm0EEJSA_EJEJEJSA_EEENS1_IJXspT_EEEENS_13__tuple_typesIJDpT0_EEENS1_IJXspT1_EEEENSE_IJDpT2_EEEDpOT3_, symObjAddr: 0x7AAC, symBinAddr: 0x100008DA0, symSize: 0x34 }
  - { offsetInCU: 0x27B85, offset: 0x27B85, size: 0x8, addend: 0x0, symName: __ZNSt3__112__tuple_leafILm0ERKNS_12basic_stringIcNS_11char_traitsIcEENS_9allocatorIcEEEELb0EEC2B8ue170006IS8_vEEOT_, symObjAddr: 0x7AE0, symBinAddr: 0x100008DD4, symSize: 0x20 }
  - { offsetInCU: 0x27BC8, offset: 0x27BC8, size: 0x8, addend: 0x0, symName: __ZNSt3__114pointer_traitsIPNS_12__value_typeINS_12basic_stringIcNS_11char_traitsIcEENS_9allocatorIcEEEEN5utils10TypeErasedEEEE10pointer_toB8ue170006ERSA_, symObjAddr: 0x7B00, symBinAddr: 0x100008DF4, symSize: 0x14 }
  - { offsetInCU: 0x27BEB, offset: 0x27BEB, size: 0x8, addend: 0x0, symName: __ZNKSt3__115__tree_iteratorINS_12__value_typeINS_12basic_stringIcNS_11char_traitsIcEENS_9allocatorIcEEEEN5utils10TypeErasedEEEPNS_11__tree_nodeISA_PvEElE8__get_npB8ue170006Ev, symObjAddr: 0x7B14, symBinAddr: 0x100008E08, symSize: 0x18 }
  - { offsetInCU: 0x27C11, offset: 0x27C11, size: 0x8, addend: 0x0, symName: __ZN5utils10TypeErasedC1ERKS0_, symObjAddr: 0x7B64, symBinAddr: 0x100008E58, symSize: 0x34 }
  - { offsetInCU: 0x27C49, offset: 0x27C49, size: 0x8, addend: 0x0, symName: __ZN5utils10TypeErased4swapERS0_, symObjAddr: 0x7B98, symBinAddr: 0x100008E8C, symSize: 0x2C }
  - { offsetInCU: 0x27C7D, offset: 0x27C7D, size: 0x8, addend: 0x0, symName: __ZN5utils10TypeErasedC2ERKS0_, symObjAddr: 0x7BC4, symBinAddr: 0x100008EB8, symSize: 0xA0 }
  - { offsetInCU: 0x27CB5, offset: 0x27CB5, size: 0x8, addend: 0x0, symName: __ZNKSt3__110unique_ptrIN5utils10TypeErased4BaseENS_14default_deleteIS3_EEEcvbB8ue170006Ev, symObjAddr: 0x7C64, symBinAddr: 0x100008F58, symSize: 0x34 }
  - { offsetInCU: 0x27CDB, offset: 0x27CDB, size: 0x8, addend: 0x0, symName: __ZNKSt3__110unique_ptrIN5utils10TypeErased4BaseENS_14default_deleteIS3_EEEptB8ue170006Ev, symObjAddr: 0x7C98, symBinAddr: 0x100008F8C, symSize: 0x28 }
  - { offsetInCU: 0x27D01, offset: 0x27D01, size: 0x8, addend: 0x0, symName: __ZNSt3__110unique_ptrIN5utils10TypeErased4BaseENS_14default_deleteIS3_EEEaSB8ue170006EOS6_, symObjAddr: 0x7CC0, symBinAddr: 0x100008FB4, symSize: 0x50 }
  - { offsetInCU: 0x27D35, offset: 0x27D35, size: 0x8, addend: 0x0, symName: __ZNSt3__110unique_ptrIN5utils10TypeErased4BaseENS_14default_deleteIS3_EEED1B8ue170006Ev, symObjAddr: 0x7D10, symBinAddr: 0x100009004, symSize: 0x2C }
  - { offsetInCU: 0x27D5F, offset: 0x27D5F, size: 0x8, addend: 0x0, symName: __ZNKSt3__117__compressed_pairIPN5utils10TypeErased4BaseENS_14default_deleteIS3_EEE5firstB8ue170006Ev, symObjAddr: 0x7D3C, symBinAddr: 0x100009030, symSize: 0x24 }
  - { offsetInCU: 0x27D85, offset: 0x27D85, size: 0x8, addend: 0x0, symName: __ZNKSt3__122__compressed_pair_elemIPN5utils10TypeErased4BaseELi0ELb0EE5__getB8ue170006Ev, symObjAddr: 0x7D60, symBinAddr: 0x100009054, symSize: 0x14 }
  - { offsetInCU: 0x27DAB, offset: 0x27DAB, size: 0x8, addend: 0x0, symName: __ZNSt3__110unique_ptrIN5utils10TypeErased4BaseENS_14default_deleteIS3_EEE5resetB8ue170006EPS3_, symObjAddr: 0x7D74, symBinAddr: 0x100009068, symSize: 0x78 }
  - { offsetInCU: 0x27DEF, offset: 0x27DEF, size: 0x8, addend: 0x0, symName: __ZNSt3__110unique_ptrIN5utils10TypeErased4BaseENS_14default_deleteIS3_EEE7releaseB8ue170006Ev, symObjAddr: 0x7DEC, symBinAddr: 0x1000090E0, symSize: 0x44 }
  - { offsetInCU: 0x27E24, offset: 0x27E24, size: 0x8, addend: 0x0, symName: __ZNSt3__110unique_ptrIN5utils10TypeErased4BaseENS_14default_deleteIS3_EEE11get_deleterB8ue170006Ev, symObjAddr: 0x7E30, symBinAddr: 0x100009124, symSize: 0x24 }
  - { offsetInCU: 0x27E4A, offset: 0x27E4A, size: 0x8, addend: 0x0, symName: __ZNSt3__117__compressed_pairIPN5utils10TypeErased4BaseENS_14default_deleteIS3_EEE6secondB8ue170006Ev, symObjAddr: 0x7E54, symBinAddr: 0x100009148, symSize: 0x24 }
  - { offsetInCU: 0x27E70, offset: 0x27E70, size: 0x8, addend: 0x0, symName: __ZNSt3__117__compressed_pairIPN5utils10TypeErased4BaseENS_14default_deleteIS3_EEE5firstB8ue170006Ev, symObjAddr: 0x7E78, symBinAddr: 0x10000916C, symSize: 0x24 }
  - { offsetInCU: 0x27E96, offset: 0x27E96, size: 0x8, addend: 0x0, symName: __ZNKSt3__114default_deleteIN5utils10TypeErased4BaseEEclB8ue170006EPS3_, symObjAddr: 0x7E9C, symBinAddr: 0x100009190, symSize: 0x4C }
  - { offsetInCU: 0x27ECA, offset: 0x27ECA, size: 0x8, addend: 0x0, symName: __ZNSt3__122__compressed_pair_elemIPN5utils10TypeErased4BaseELi0ELb0EE5__getB8ue170006Ev, symObjAddr: 0x7EE8, symBinAddr: 0x1000091DC, symSize: 0x14 }
  - { offsetInCU: 0x27EF0, offset: 0x27EF0, size: 0x8, addend: 0x0, symName: __ZNSt3__122__compressed_pair_elemINS_14default_deleteIN5utils10TypeErased4BaseEEELi1ELb1EE5__getB8ue170006Ev, symObjAddr: 0x7EFC, symBinAddr: 0x1000091F0, symSize: 0x14 }
  - { offsetInCU: 0x27F16, offset: 0x27F16, size: 0x8, addend: 0x0, symName: __ZNSt3__110unique_ptrIN5utils10TypeErased4BaseENS_14default_deleteIS3_EEED2B8ue170006Ev, symObjAddr: 0x7F10, symBinAddr: 0x100009204, symSize: 0x30 }
  - { offsetInCU: 0x27F40, offset: 0x27F40, size: 0x8, addend: 0x0, symName: __ZNSt3__110unique_ptrIN5utils10TypeErased4BaseENS_14default_deleteIS3_EEE4swapB8ue170006ERS6_, symObjAddr: 0x7F6C, symBinAddr: 0x100009260, symSize: 0x2C }
  - { offsetInCU: 0x27F75, offset: 0x27F75, size: 0x8, addend: 0x0, symName: __ZNSt3__117__compressed_pairIPN5utils10TypeErased4BaseENS_14default_deleteIS3_EEE4swapB8ue170006ERS7_, symObjAddr: 0x7F98, symBinAddr: 0x10000928C, symSize: 0x64 }
  - { offsetInCU: 0x27FA9, offset: 0x27FA9, size: 0x8, addend: 0x0, symName: __ZNSt3__13mapINS_12basic_stringIcNS_11char_traitsIcEENS_9allocatorIcEEEEN5utils10TypeErasedENS_4lessIS6_EENS4_INS_4pairIKS6_S8_EEEEED2B8ue170006Ev, symObjAddr: 0x804C, symBinAddr: 0x100009340, symSize: 0x2C }
  - { offsetInCU: 0x27FD3, offset: 0x27FD3, size: 0x8, addend: 0x0, symName: __ZNSt3__16__treeINS_12__value_typeINS_12basic_stringIcNS_11char_traitsIcEENS_9allocatorIcEEEEN5utils10TypeErasedEEENS_19__map_value_compareIS7_SA_NS_4lessIS7_EELb1EEENS5_ISA_EEED1Ev, symObjAddr: 0x8078, symBinAddr: 0x10000936C, symSize: 0x2C }
  - { offsetInCU: 0x27FFF, offset: 0x27FFF, size: 0x8, addend: 0x0, symName: __ZNSt3__16__treeINS_12__value_typeINS_12basic_stringIcNS_11char_traitsIcEENS_9allocatorIcEEEEN5utils10TypeErasedEEENS_19__map_value_compareIS7_SA_NS_4lessIS7_EELb1EEENS5_ISA_EEED2Ev, symObjAddr: 0x80A4, symBinAddr: 0x100009398, symSize: 0x38 }
  - { offsetInCU: 0x2802B, offset: 0x2802B, size: 0x8, addend: 0x0, symName: __ZNSt3__16__treeINS_12__value_typeINS_12basic_stringIcNS_11char_traitsIcEENS_9allocatorIcEEEEN5utils10TypeErasedEEENS_19__map_value_compareIS7_SA_NS_4lessIS7_EELb1EEENS5_ISA_EEE7destroyEPNS_11__tree_nodeISA_PvEE, symObjAddr: 0x80DC, symBinAddr: 0x1000093D0, symSize: 0xAC }
  - { offsetInCU: 0x28077, offset: 0x28077, size: 0x8, addend: 0x0, symName: __ZN5utils6dict_tD2Ev, symObjAddr: 0x8188, symBinAddr: 0x10000947C, symSize: 0x2C }
  - { offsetInCU: 0x280A3, offset: 0x280A3, size: 0x8, addend: 0x0, symName: __ZNSt3__119basic_ostringstreamIcNS_11char_traitsIcEENS_9allocatorIcEEED2Ev, symObjAddr: 0x81B4, symBinAddr: 0x1000094A8, symSize: 0x64 }
  - { offsetInCU: 0x280DD, offset: 0x280DD, size: 0x8, addend: 0x0, symName: __ZTv0_n24_NSt3__119basic_ostringstreamIcNS_11char_traitsIcEENS_9allocatorIcEEED1Ev, symObjAddr: 0x8218, symBinAddr: 0x10000950C, symSize: 0x28 }
  - { offsetInCU: 0x280FA, offset: 0x280FA, size: 0x8, addend: 0x0, symName: __ZNSt3__115basic_stringbufIcNS_11char_traitsIcEENS_9allocatorIcEEED1Ev, symObjAddr: 0x8240, symBinAddr: 0x100009534, symSize: 0x2C }
  - { offsetInCU: 0x28127, offset: 0x28127, size: 0x8, addend: 0x0, symName: __ZNSt3__115basic_stringbufIcNS_11char_traitsIcEENS_9allocatorIcEEED2Ev, symObjAddr: 0x826C, symBinAddr: 0x100009560, symSize: 0x48 }
  - { offsetInCU: 0x28154, offset: 0x28154, size: 0x8, addend: 0x0, symName: __ZNKSt3__13mapINS_12basic_stringIcNS_11char_traitsIcEENS_9allocatorIcEEEEN5utils10TypeErasedENS_4lessIS6_EENS4_INS_4pairIKS6_S8_EEEEE6cbeginB8ue170006Ev, symObjAddr: 0x82B4, symBinAddr: 0x1000095A8, symSize: 0x2C }
  - { offsetInCU: 0x2817A, offset: 0x2817A, size: 0x8, addend: 0x0, symName: __ZNKSt3__13mapINS_12basic_stringIcNS_11char_traitsIcEENS_9allocatorIcEEEEN5utils10TypeErasedENS_4lessIS6_EENS4_INS_4pairIKS6_S8_EEEEE5beginB8ue170006Ev, symObjAddr: 0x82E0, symBinAddr: 0x1000095D4, symSize: 0x38 }
  - { offsetInCU: 0x281A0, offset: 0x281A0, size: 0x8, addend: 0x0, symName: __ZNKSt3__16__treeINS_12__value_typeINS_12basic_stringIcNS_11char_traitsIcEENS_9allocatorIcEEEEN5utils10TypeErasedEEENS_19__map_value_compareIS7_SA_NS_4lessIS7_EELb1EEENS5_ISA_EEE5beginB8ue170006Ev, symObjAddr: 0x8318, symBinAddr: 0x10000960C, symSize: 0x34 }
  - { offsetInCU: 0x281C6, offset: 0x281C6, size: 0x8, addend: 0x0, symName: __ZNSt3__120__map_const_iteratorINS_21__tree_const_iteratorINS_12__value_typeINS_12basic_stringIcNS_11char_traitsIcEENS_9allocatorIcEEEEN5utils10TypeErasedEEEPNS_11__tree_nodeISB_PvEElEEEC1B8ue170006ESG_, symObjAddr: 0x834C, symBinAddr: 0x100009640, symSize: 0x34 }
  - { offsetInCU: 0x281FF, offset: 0x281FF, size: 0x8, addend: 0x0, symName: __ZNKSt3__16__treeINS_12__value_typeINS_12basic_stringIcNS_11char_traitsIcEENS_9allocatorIcEEEEN5utils10TypeErasedEEENS_19__map_value_compareIS7_SA_NS_4lessIS7_EELb1EEENS5_ISA_EEE12__begin_nodeB8ue170006Ev, symObjAddr: 0x8380, symBinAddr: 0x100009674, symSize: 0x14 }
  - { offsetInCU: 0x28225, offset: 0x28225, size: 0x8, addend: 0x0, symName: __ZNSt3__121__tree_const_iteratorINS_12__value_typeINS_12basic_stringIcNS_11char_traitsIcEENS_9allocatorIcEEEEN5utils10TypeErasedEEEPNS_11__tree_nodeISA_PvEElEC1B8ue170006EPNS_15__tree_end_nodeIPNS_16__tree_node_baseISC_EEEE, symObjAddr: 0x8394, symBinAddr: 0x100009688, symSize: 0x34 }
  - { offsetInCU: 0x2825E, offset: 0x2825E, size: 0x8, addend: 0x0, symName: __ZNSt3__121__tree_const_iteratorINS_12__value_typeINS_12basic_stringIcNS_11char_traitsIcEENS_9allocatorIcEEEEN5utils10TypeErasedEEEPNS_11__tree_nodeISA_PvEElEC2B8ue170006EPNS_15__tree_end_nodeIPNS_16__tree_node_baseISC_EEEE, symObjAddr: 0x83C8, symBinAddr: 0x1000096BC, symSize: 0x20 }
  - { offsetInCU: 0x28297, offset: 0x28297, size: 0x8, addend: 0x0, symName: __ZNSt3__120__map_const_iteratorINS_21__tree_const_iteratorINS_12__value_typeINS_12basic_stringIcNS_11char_traitsIcEENS_9allocatorIcEEEEN5utils10TypeErasedEEEPNS_11__tree_nodeISB_PvEElEEEC2B8ue170006ESG_, symObjAddr: 0x83E8, symBinAddr: 0x1000096DC, symSize: 0x20 }
  - { offsetInCU: 0x282D0, offset: 0x282D0, size: 0x8, addend: 0x0, symName: __ZNKSt3__13mapINS_12basic_stringIcNS_11char_traitsIcEENS_9allocatorIcEEEEN5utils10TypeErasedENS_4lessIS6_EENS4_INS_4pairIKS6_S8_EEEEE4cendB8ue170006Ev, symObjAddr: 0x8408, symBinAddr: 0x1000096FC, symSize: 0x2C }
  - { offsetInCU: 0x282F6, offset: 0x282F6, size: 0x8, addend: 0x0, symName: __ZNKSt3__13mapINS_12basic_stringIcNS_11char_traitsIcEENS_9allocatorIcEEEEN5utils10TypeErasedENS_4lessIS6_EENS4_INS_4pairIKS6_S8_EEEEE3endB8ue170006Ev, symObjAddr: 0x8434, symBinAddr: 0x100009728, symSize: 0x38 }
  - { offsetInCU: 0x2831C, offset: 0x2831C, size: 0x8, addend: 0x0, symName: __ZNKSt3__16__treeINS_12__value_typeINS_12basic_stringIcNS_11char_traitsIcEENS_9allocatorIcEEEEN5utils10TypeErasedEEENS_19__map_value_compareIS7_SA_NS_4lessIS7_EELb1EEENS5_ISA_EEE3endB8ue170006Ev, symObjAddr: 0x846C, symBinAddr: 0x100009760, symSize: 0x34 }
  - { offsetInCU: 0x28342, offset: 0x28342, size: 0x8, addend: 0x0, symName: __ZNSt3__14pairIKNS_12basic_stringIcNS_11char_traitsIcEENS_9allocatorIcEEEEN5utils10TypeErasedEEC2B8ue170006ERKSA_, symObjAddr: 0x84A0, symBinAddr: 0x100009794, symSize: 0x70 }
  - { offsetInCU: 0x2837D, offset: 0x2837D, size: 0x8, addend: 0x0, symName: __ZNSt3__110__get_pairILm0EE3getB8ue170006IKNS_12basic_stringIcNS_11char_traitsIcEENS_9allocatorIcEEEEN5utils10TypeErasedEEEOT_ONS_4pairISC_T0_EE, symObjAddr: 0x8510, symBinAddr: 0x100009804, symSize: 0x14 }
  - { offsetInCU: 0x283B3, offset: 0x283B3, size: 0x8, addend: 0x0, symName: __ZNSt3__110__get_pairILm1EE3getB8ue170006IKNS_12basic_stringIcNS_11char_traitsIcEENS_9allocatorIcEEEEN5utils10TypeErasedEEEOT0_ONS_4pairIT_SC_EE, symObjAddr: 0x8524, symBinAddr: 0x100009818, symSize: 0x18 }
  - { offsetInCU: 0x283E9, offset: 0x283E9, size: 0x8, addend: 0x0, symName: __ZNK5utils6dict_t11get_any_ptrIiaJhstjlmxxyEEENSt3__18optionalIT_EERKNS2_12basic_stringIcNS2_11char_traitsIcEENS2_9allocatorIcEEEE, symObjAddr: 0x853C, symBinAddr: 0x100009830, symSize: 0x7C }
  - { offsetInCU: 0x2847D, offset: 0x2847D, size: 0x8, addend: 0x0, symName: __ZNK5utils6dict_t7get_ptrIaEEPKT_RKNSt3__112basic_stringIcNS5_11char_traitsIcEENS5_9allocatorIcEEEE, symObjAddr: 0x85B8, symBinAddr: 0x1000098AC, symSize: 0xE4 }
  - { offsetInCU: 0x284D3, offset: 0x284D3, size: 0x8, addend: 0x0, symName: __ZNK5utils6dict_t11get_any_ptrIihJstjlmxxyEEENSt3__18optionalIT_EERKNS2_12basic_stringIcNS2_11char_traitsIcEENS2_9allocatorIcEEEE, symObjAddr: 0x869C, symBinAddr: 0x100009990, symSize: 0x7C }
  - { offsetInCU: 0x28557, offset: 0x28557, size: 0x8, addend: 0x0, symName: __ZNSt3__18optionalIiEC1B8ue170006IiLi0EEEOT_, symObjAddr: 0x8718, symBinAddr: 0x100009A0C, symSize: 0x34 }
  - { offsetInCU: 0x2859F, offset: 0x2859F, size: 0x8, addend: 0x0, symName: __ZNKSt3__13mapINS_12basic_stringIcNS_11char_traitsIcEENS_9allocatorIcEEEEN5utils10TypeErasedENS_4lessIS6_EENS4_INS_4pairIKS6_S8_EEEEE4findB8ue170006ERSC_, symObjAddr: 0x874C, symBinAddr: 0x100009A40, symSize: 0x40 }
  - { offsetInCU: 0x285D4, offset: 0x285D4, size: 0x8, addend: 0x0, symName: __ZNKSt3__120__map_const_iteratorINS_21__tree_const_iteratorINS_12__value_typeINS_12basic_stringIcNS_11char_traitsIcEENS_9allocatorIcEEEEN5utils10TypeErasedEEEPNS_11__tree_nodeISB_PvEElEEEptB8ue170006Ev, symObjAddr: 0x87BC, symBinAddr: 0x100009AB0, symSize: 0x2C }
  - { offsetInCU: 0x285FA, offset: 0x285FA, size: 0x8, addend: 0x0, symName: __ZNK5utils10TypeErased12getObjectPtrIaEEPKT_v, symObjAddr: 0x87E8, symBinAddr: 0x100009ADC, symSize: 0xEC }
  - { offsetInCU: 0x28645, offset: 0x28645, size: 0x8, addend: 0x0, symName: __ZNKSt3__16__treeINS_12__value_typeINS_12basic_stringIcNS_11char_traitsIcEENS_9allocatorIcEEEEN5utils10TypeErasedEEENS_19__map_value_compareIS7_SA_NS_4lessIS7_EELb1EEENS5_ISA_EEE4findIS7_EENS_21__tree_const_iteratorISA_PNS_11__tree_nodeISA_PvEElEERKT_, symObjAddr: 0x88D4, symBinAddr: 0x100009BC8, symSize: 0xF8 }
  - { offsetInCU: 0x28694, offset: 0x28694, size: 0x8, addend: 0x0, symName: __ZNKSt3__16__treeINS_12__value_typeINS_12basic_stringIcNS_11char_traitsIcEENS_9allocatorIcEEEEN5utils10TypeErasedEEENS_19__map_value_compareIS7_SA_NS_4lessIS7_EELb1EEENS5_ISA_EEE13__lower_boundIS7_EENS_21__tree_const_iteratorISA_PNS_11__tree_nodeISA_PvEElEERKT_SM_PNS_15__tree_end_nodeIPNS_16__tree_node_baseISK_EEEE, symObjAddr: 0x89CC, symBinAddr: 0x100009CC0, symSize: 0xA4 }
  - { offsetInCU: 0x286F2, offset: 0x286F2, size: 0x8, addend: 0x0, symName: __ZNKSt3__16__treeINS_12__value_typeINS_12basic_stringIcNS_11char_traitsIcEENS_9allocatorIcEEEEN5utils10TypeErasedEEENS_19__map_value_compareIS7_SA_NS_4lessIS7_EELb1EEENS5_ISA_EEE10value_compB8ue170006Ev, symObjAddr: 0x8AA4, symBinAddr: 0x100009D98, symSize: 0x28 }
  - { offsetInCU: 0x28718, offset: 0x28718, size: 0x8, addend: 0x0, symName: __ZNKSt3__121__tree_const_iteratorINS_12__value_typeINS_12basic_stringIcNS_11char_traitsIcEENS_9allocatorIcEEEEN5utils10TypeErasedEEEPNS_11__tree_nodeISA_PvEElEdeB8ue170006Ev, symObjAddr: 0x8ACC, symBinAddr: 0x100009DC0, symSize: 0x28 }
  - { offsetInCU: 0x2873E, offset: 0x2873E, size: 0x8, addend: 0x0, symName: __ZNKSt3__117__compressed_pairImNS_19__map_value_compareINS_12basic_stringIcNS_11char_traitsIcEENS_9allocatorIcEEEENS_12__value_typeIS7_N5utils10TypeErasedEEENS_4lessIS7_EELb1EEEE6secondB8ue170006Ev, symObjAddr: 0x8B24, symBinAddr: 0x100009E18, symSize: 0x24 }
  - { offsetInCU: 0x28764, offset: 0x28764, size: 0x8, addend: 0x0, symName: __ZNKSt3__122__compressed_pair_elemINS_19__map_value_compareINS_12basic_stringIcNS_11char_traitsIcEENS_9allocatorIcEEEENS_12__value_typeIS7_N5utils10TypeErasedEEENS_4lessIS7_EELb1EEELi1ELb1EE5__getB8ue170006Ev, symObjAddr: 0x8B48, symBinAddr: 0x100009E3C, symSize: 0x14 }
  - { offsetInCU: 0x2878A, offset: 0x2878A, size: 0x8, addend: 0x0, symName: __ZNKSt3__121__tree_const_iteratorINS_12__value_typeINS_12basic_stringIcNS_11char_traitsIcEENS_9allocatorIcEEEEN5utils10TypeErasedEEEPNS_11__tree_nodeISA_PvEElE8__get_npB8ue170006Ev, symObjAddr: 0x8B5C, symBinAddr: 0x100009E50, symSize: 0x18 }
  - { offsetInCU: 0x287B0, offset: 0x287B0, size: 0x8, addend: 0x0, symName: __ZNSt3__114pointer_traitsIPKNS_4pairIKNS_12basic_stringIcNS_11char_traitsIcEENS_9allocatorIcEEEEN5utils10TypeErasedEEEE10pointer_toB8ue170006ERSC_, symObjAddr: 0x8B74, symBinAddr: 0x100009E68, symSize: 0x14 }
  - { offsetInCU: 0x287D3, offset: 0x287D3, size: 0x8, addend: 0x0, symName: __ZNKSt3__121__tree_const_iteratorINS_12__value_typeINS_12basic_stringIcNS_11char_traitsIcEENS_9allocatorIcEEEEN5utils10TypeErasedEEEPNS_11__tree_nodeISA_PvEElEptB8ue170006Ev, symObjAddr: 0x8B88, symBinAddr: 0x100009E7C, symSize: 0x2C }
  - { offsetInCU: 0x287F9, offset: 0x287F9, size: 0x8, addend: 0x0, symName: __ZNSt3__114pointer_traitsIPKNS_12__value_typeINS_12basic_stringIcNS_11char_traitsIcEENS_9allocatorIcEEEEN5utils10TypeErasedEEEE10pointer_toB8ue170006ERSB_, symObjAddr: 0x8BB4, symBinAddr: 0x100009EA8, symSize: 0x14 }
  - { offsetInCU: 0x2881C, offset: 0x2881C, size: 0x8, addend: 0x0, symName: __ZNK5utils10TypeErased4typeEv, symObjAddr: 0x8BC8, symBinAddr: 0x100009EBC, symSize: 0x30 }
  - { offsetInCU: 0x28877, offset: 0x28877, size: 0x8, addend: 0x0, symName: __ZNKSt9type_infoeqB8ue170006ERKS_, symObjAddr: 0x8BF8, symBinAddr: 0x100009EEC, symSize: 0xDC }
  - { offsetInCU: 0x28911, offset: 0x28911, size: 0x8, addend: 0x0, symName: __ZNKSt3__110unique_ptrIN5utils10TypeErased4BaseENS_14default_deleteIS3_EEE3getB8ue170006Ev, symObjAddr: 0x8CD4, symBinAddr: 0x100009FC8, symSize: 0x28 }
  - { offsetInCU: 0x28937, offset: 0x28937, size: 0x8, addend: 0x0, symName: __ZNSt27__type_info_implementations30__non_unique_arm_rtti_bit_impl21__is_type_name_uniqueB8ue170006Em, symObjAddr: 0x8CFC, symBinAddr: 0x100009FF0, symSize: 0x20 }
  - { offsetInCU: 0x28966, offset: 0x28966, size: 0x8, addend: 0x0, symName: __ZNK5utils6dict_t7get_ptrIhEEPKT_RKNSt3__112basic_stringIcNS5_11char_traitsIcEENS5_9allocatorIcEEEE, symObjAddr: 0x8D1C, symBinAddr: 0x10000A010, symSize: 0xE4 }
  - { offsetInCU: 0x289BC, offset: 0x289BC, size: 0x8, addend: 0x0, symName: __ZNK5utils6dict_t11get_any_ptrIisJtjlmxxyEEENSt3__18optionalIT_EERKNS2_12basic_stringIcNS2_11char_traitsIcEENS2_9allocatorIcEEEE, symObjAddr: 0x8E00, symBinAddr: 0x10000A0F4, symSize: 0x7C }
  - { offsetInCU: 0x28A3B, offset: 0x28A3B, size: 0x8, addend: 0x0, symName: __ZNK5utils10TypeErased12getObjectPtrIhEEPKT_v, symObjAddr: 0x8E7C, symBinAddr: 0x10000A170, symSize: 0xEC }
  - { offsetInCU: 0x28A91, offset: 0x28A91, size: 0x8, addend: 0x0, symName: __ZNK5utils6dict_t7get_ptrIsEEPKT_RKNSt3__112basic_stringIcNS5_11char_traitsIcEENS5_9allocatorIcEEEE, symObjAddr: 0x8F68, symBinAddr: 0x10000A25C, symSize: 0xE4 }
  - { offsetInCU: 0x28AE7, offset: 0x28AE7, size: 0x8, addend: 0x0, symName: __ZNK5utils6dict_t11get_any_ptrIitJjlmxxyEEENSt3__18optionalIT_EERKNS2_12basic_stringIcNS2_11char_traitsIcEENS2_9allocatorIcEEEE, symObjAddr: 0x904C, symBinAddr: 0x10000A340, symSize: 0x7C }
  - { offsetInCU: 0x28B61, offset: 0x28B61, size: 0x8, addend: 0x0, symName: __ZNK5utils10TypeErased12getObjectPtrIsEEPKT_v, symObjAddr: 0x90C8, symBinAddr: 0x10000A3BC, symSize: 0xEC }
  - { offsetInCU: 0x28BB7, offset: 0x28BB7, size: 0x8, addend: 0x0, symName: __ZNK5utils6dict_t7get_ptrItEEPKT_RKNSt3__112basic_stringIcNS5_11char_traitsIcEENS5_9allocatorIcEEEE, symObjAddr: 0x91B4, symBinAddr: 0x10000A4A8, symSize: 0xE4 }
  - { offsetInCU: 0x28C0D, offset: 0x28C0D, size: 0x8, addend: 0x0, symName: __ZNK5utils6dict_t11get_any_ptrIijJlmxxyEEENSt3__18optionalIT_EERKNS2_12basic_stringIcNS2_11char_traitsIcEENS2_9allocatorIcEEEE, symObjAddr: 0x9298, symBinAddr: 0x10000A58C, symSize: 0x7C }
  - { offsetInCU: 0x28C82, offset: 0x28C82, size: 0x8, addend: 0x0, symName: __ZNK5utils10TypeErased12getObjectPtrItEEPKT_v, symObjAddr: 0x9314, symBinAddr: 0x10000A608, symSize: 0xEC }
  - { offsetInCU: 0x28CD8, offset: 0x28CD8, size: 0x8, addend: 0x0, symName: __ZNK5utils6dict_t7get_ptrIjEEPKT_RKNSt3__112basic_stringIcNS5_11char_traitsIcEENS5_9allocatorIcEEEE, symObjAddr: 0x9400, symBinAddr: 0x10000A6F4, symSize: 0xE4 }
  - { offsetInCU: 0x28D2E, offset: 0x28D2E, size: 0x8, addend: 0x0, symName: __ZNK5utils6dict_t11get_any_ptrIilJmxxyEEENSt3__18optionalIT_EERKNS2_12basic_stringIcNS2_11char_traitsIcEENS2_9allocatorIcEEEE, symObjAddr: 0x94E4, symBinAddr: 0x10000A7D8, symSize: 0x7C }
  - { offsetInCU: 0x28D9E, offset: 0x28D9E, size: 0x8, addend: 0x0, symName: __ZNK5utils10TypeErased12getObjectPtrIjEEPKT_v, symObjAddr: 0x9560, symBinAddr: 0x10000A854, symSize: 0xEC }
  - { offsetInCU: 0x28DF4, offset: 0x28DF4, size: 0x8, addend: 0x0, symName: __ZNK5utils6dict_t7get_ptrIlEEPKT_RKNSt3__112basic_stringIcNS5_11char_traitsIcEENS5_9allocatorIcEEEE, symObjAddr: 0x964C, symBinAddr: 0x10000A940, symSize: 0xE4 }
  - { offsetInCU: 0x28E4A, offset: 0x28E4A, size: 0x8, addend: 0x0, symName: __ZNK5utils6dict_t11get_any_ptrIimJxxyEEENSt3__18optionalIT_EERKNS2_12basic_stringIcNS2_11char_traitsIcEENS2_9allocatorIcEEEE, symObjAddr: 0x9730, symBinAddr: 0x10000AA24, symSize: 0x7C }
  - { offsetInCU: 0x28EB5, offset: 0x28EB5, size: 0x8, addend: 0x0, symName: __ZNK5utils10TypeErased12getObjectPtrIlEEPKT_v, symObjAddr: 0x97AC, symBinAddr: 0x10000AAA0, symSize: 0xEC }
  - { offsetInCU: 0x28F06, offset: 0x28F06, size: 0x8, addend: 0x0, symName: __ZNK5utils6dict_t7get_ptrImEEPKT_RKNSt3__112basic_stringIcNS5_11char_traitsIcEENS5_9allocatorIcEEEE, symObjAddr: 0x9898, symBinAddr: 0x10000AB8C, symSize: 0xE4 }
  - { offsetInCU: 0x28F5C, offset: 0x28F5C, size: 0x8, addend: 0x0, symName: __ZNK5utils6dict_t11get_any_ptrIixJxyEEENSt3__18optionalIT_EERKNS2_12basic_stringIcNS2_11char_traitsIcEENS2_9allocatorIcEEEE, symObjAddr: 0x997C, symBinAddr: 0x10000AC70, symSize: 0x7C }
  - { offsetInCU: 0x28FC2, offset: 0x28FC2, size: 0x8, addend: 0x0, symName: __ZNK5utils10TypeErased12getObjectPtrImEEPKT_v, symObjAddr: 0x99F8, symBinAddr: 0x10000ACEC, symSize: 0xEC }
  - { offsetInCU: 0x29018, offset: 0x29018, size: 0x8, addend: 0x0, symName: __ZNK5utils6dict_t7get_ptrIxEEPKT_RKNSt3__112basic_stringIcNS5_11char_traitsIcEENS5_9allocatorIcEEEE, symObjAddr: 0x9AE4, symBinAddr: 0x10000ADD8, symSize: 0xE4 }
  - { offsetInCU: 0x2906E, offset: 0x2906E, size: 0x8, addend: 0x0, symName: __ZNK5utils6dict_t11get_any_ptrIixJyEEENSt3__18optionalIT_EERKNS2_12basic_stringIcNS2_11char_traitsIcEENS2_9allocatorIcEEEE, symObjAddr: 0x9BC8, symBinAddr: 0x10000AEBC, symSize: 0x7C }
  - { offsetInCU: 0x290CF, offset: 0x290CF, size: 0x8, addend: 0x0, symName: __ZNK5utils10TypeErased12getObjectPtrIxEEPKT_v, symObjAddr: 0x9C44, symBinAddr: 0x10000AF38, symSize: 0xEC }
  - { offsetInCU: 0x2911A, offset: 0x2911A, size: 0x8, addend: 0x0, symName: __ZNK5utils6dict_t11get_any_ptrIiyJEEENSt3__18optionalIT_EERKNS2_12basic_stringIcNS2_11char_traitsIcEENS2_9allocatorIcEEEE, symObjAddr: 0x9D30, symBinAddr: 0x10000B024, symSize: 0x7C }
  - { offsetInCU: 0x29180, offset: 0x29180, size: 0x8, addend: 0x0, symName: __ZNK5utils6dict_t7get_ptrIyEEPKT_RKNSt3__112basic_stringIcNS5_11char_traitsIcEENS5_9allocatorIcEEEE, symObjAddr: 0x9DAC, symBinAddr: 0x10000B0A0, symSize: 0xE4 }
  - { offsetInCU: 0x291D6, offset: 0x291D6, size: 0x8, addend: 0x0, symName: __ZNK5utils6dict_t11get_any_ptrIiEENSt3__18optionalIT_EERKNS2_12basic_stringIcNS2_11char_traitsIcEENS2_9allocatorIcEEEE, symObjAddr: 0x9E90, symBinAddr: 0x10000B184, symSize: 0x64 }
  - { offsetInCU: 0x29223, offset: 0x29223, size: 0x8, addend: 0x0, symName: __ZNK5utils10TypeErased12getObjectPtrIyEEPKT_v, symObjAddr: 0x9EF4, symBinAddr: 0x10000B1E8, symSize: 0xEC }
  - { offsetInCU: 0x2926E, offset: 0x2926E, size: 0x8, addend: 0x0, symName: __ZNK5utils6dict_t7get_ptrIiEEPKT_RKNSt3__112basic_stringIcNS5_11char_traitsIcEENS5_9allocatorIcEEEE, symObjAddr: 0x9FE0, symBinAddr: 0x10000B2D4, symSize: 0xE4 }
  - { offsetInCU: 0x292C4, offset: 0x292C4, size: 0x8, addend: 0x0, symName: __ZNSt3__18optionalIiEC1B8ue170006ENS_9nullopt_tE, symObjAddr: 0xA0C4, symBinAddr: 0x10000B3B8, symSize: 0x2C }
  - { offsetInCU: 0x292FF, offset: 0x292FF, size: 0x8, addend: 0x0, symName: __ZNSt3__18optionalIiEC1B8ue170006IRKiLi0EEEOT_, symObjAddr: 0xA0F0, symBinAddr: 0x10000B3E4, symSize: 0x34 }
  - { offsetInCU: 0x29347, offset: 0x29347, size: 0x8, addend: 0x0, symName: __ZNK5utils10TypeErased12getObjectPtrIiEEPKT_v, symObjAddr: 0xA124, symBinAddr: 0x10000B418, symSize: 0xEC }
  - { offsetInCU: 0x29392, offset: 0x29392, size: 0x8, addend: 0x0, symName: __ZNSt3__18optionalIiEC2B8ue170006ENS_9nullopt_tE, symObjAddr: 0xA210, symBinAddr: 0x10000B504, symSize: 0x2C }
  - { offsetInCU: 0x293CD, offset: 0x293CD, size: 0x8, addend: 0x0, symName: __ZNSt3__127__optional_move_assign_baseIiLb1EEC2Ev, symObjAddr: 0xA23C, symBinAddr: 0x10000B530, symSize: 0x2C }
  - { offsetInCU: 0x29400, offset: 0x29400, size: 0x8, addend: 0x0, symName: __ZNSt3__127__optional_copy_assign_baseIiLb1EEC2Ev, symObjAddr: 0xA268, symBinAddr: 0x10000B55C, symSize: 0x2C }
  - { offsetInCU: 0x29433, offset: 0x29433, size: 0x8, addend: 0x0, symName: __ZNSt3__120__optional_move_baseIiLb1EEC2Ev, symObjAddr: 0xA294, symBinAddr: 0x10000B588, symSize: 0x2C }
  - { offsetInCU: 0x29466, offset: 0x29466, size: 0x8, addend: 0x0, symName: __ZNSt3__120__optional_copy_baseIiLb1EEC2Ev, symObjAddr: 0xA2C0, symBinAddr: 0x10000B5B4, symSize: 0x2C }
  - { offsetInCU: 0x29493, offset: 0x29493, size: 0x8, addend: 0x0, symName: __ZNSt3__123__optional_storage_baseIiLb0EEC2Ev, symObjAddr: 0xA2EC, symBinAddr: 0x10000B5E0, symSize: 0x2C }
  - { offsetInCU: 0x294C0, offset: 0x294C0, size: 0x8, addend: 0x0, symName: __ZNSt3__124__optional_destruct_baseIiLb1EEC2B8ue170006Ev, symObjAddr: 0xA318, symBinAddr: 0x10000B60C, symSize: 0x1C }
  - { offsetInCU: 0x294EA, offset: 0x294EA, size: 0x8, addend: 0x0, symName: __ZNSt3__18optionalIiEC2B8ue170006IRKiLi0EEEOT_, symObjAddr: 0xA334, symBinAddr: 0x10000B628, symSize: 0x34 }
  - { offsetInCU: 0x29532, offset: 0x29532, size: 0x8, addend: 0x0, symName: __ZNSt3__127__optional_move_assign_baseIiLb1EECI2NS_24__optional_destruct_baseIiLb1EEEIJRKiEEENS_10in_place_tEDpOT_, symObjAddr: 0xA368, symBinAddr: 0x10000B65C, symSize: 0x34 }
  - { offsetInCU: 0x29571, offset: 0x29571, size: 0x8, addend: 0x0, symName: __ZNSt3__127__optional_copy_assign_baseIiLb1EECI2NS_24__optional_destruct_baseIiLb1EEEIJRKiEEENS_10in_place_tEDpOT_, symObjAddr: 0xA39C, symBinAddr: 0x10000B690, symSize: 0x34 }
  - { offsetInCU: 0x295B0, offset: 0x295B0, size: 0x8, addend: 0x0, symName: __ZNSt3__120__optional_move_baseIiLb1EECI2NS_24__optional_destruct_baseIiLb1EEEIJRKiEEENS_10in_place_tEDpOT_, symObjAddr: 0xA3D0, symBinAddr: 0x10000B6C4, symSize: 0x34 }
  - { offsetInCU: 0x295EF, offset: 0x295EF, size: 0x8, addend: 0x0, symName: __ZNSt3__120__optional_copy_baseIiLb1EECI2NS_24__optional_destruct_baseIiLb1EEEIJRKiEEENS_10in_place_tEDpOT_, symObjAddr: 0xA404, symBinAddr: 0x10000B6F8, symSize: 0x34 }
  - { offsetInCU: 0x2962E, offset: 0x2962E, size: 0x8, addend: 0x0, symName: __ZNSt3__123__optional_storage_baseIiLb0EECI2NS_24__optional_destruct_baseIiLb1EEEIJRKiEEENS_10in_place_tEDpOT_, symObjAddr: 0xA438, symBinAddr: 0x10000B72C, symSize: 0x34 }
  - { offsetInCU: 0x2966D, offset: 0x2966D, size: 0x8, addend: 0x0, symName: __ZNSt3__124__optional_destruct_baseIiLb1EEC2B8ue170006IJRKiEEENS_10in_place_tEDpOT_, symObjAddr: 0xA46C, symBinAddr: 0x10000B760, symSize: 0x2C }
  - { offsetInCU: 0x296BC, offset: 0x296BC, size: 0x8, addend: 0x0, symName: __ZNSt3__18optionalIiEC2B8ue170006IiLi0EEEOT_, symObjAddr: 0xA498, symBinAddr: 0x10000B78C, symSize: 0x34 }
  - { offsetInCU: 0x29704, offset: 0x29704, size: 0x8, addend: 0x0, symName: __ZNSt3__127__optional_move_assign_baseIiLb1EECI2NS_24__optional_destruct_baseIiLb1EEEIJiEEENS_10in_place_tEDpOT_, symObjAddr: 0xA4CC, symBinAddr: 0x10000B7C0, symSize: 0x34 }
  - { offsetInCU: 0x29743, offset: 0x29743, size: 0x8, addend: 0x0, symName: __ZNSt3__127__optional_copy_assign_baseIiLb1EECI2NS_24__optional_destruct_baseIiLb1EEEIJiEEENS_10in_place_tEDpOT_, symObjAddr: 0xA500, symBinAddr: 0x10000B7F4, symSize: 0x34 }
  - { offsetInCU: 0x29782, offset: 0x29782, size: 0x8, addend: 0x0, symName: __ZNSt3__120__optional_move_baseIiLb1EECI2NS_24__optional_destruct_baseIiLb1EEEIJiEEENS_10in_place_tEDpOT_, symObjAddr: 0xA534, symBinAddr: 0x10000B828, symSize: 0x34 }
  - { offsetInCU: 0x297C1, offset: 0x297C1, size: 0x8, addend: 0x0, symName: __ZNSt3__120__optional_copy_baseIiLb1EECI2NS_24__optional_destruct_baseIiLb1EEEIJiEEENS_10in_place_tEDpOT_, symObjAddr: 0xA568, symBinAddr: 0x10000B85C, symSize: 0x34 }
  - { offsetInCU: 0x29800, offset: 0x29800, size: 0x8, addend: 0x0, symName: __ZNSt3__123__optional_storage_baseIiLb0EECI2NS_24__optional_destruct_baseIiLb1EEEIJiEEENS_10in_place_tEDpOT_, symObjAddr: 0xA59C, symBinAddr: 0x10000B890, symSize: 0x34 }
  - { offsetInCU: 0x2983F, offset: 0x2983F, size: 0x8, addend: 0x0, symName: __ZNSt3__124__optional_destruct_baseIiLb1EEC2B8ue170006IJiEEENS_10in_place_tEDpOT_, symObjAddr: 0xA5D0, symBinAddr: 0x10000B8C4, symSize: 0x2C }
  - { offsetInCU: 0x2988E, offset: 0x2988E, size: 0x8, addend: 0x0, symName: __ZNKSt3__123__optional_storage_baseIiLb0EE9has_valueB8ue170006Ev, symObjAddr: 0xA5FC, symBinAddr: 0x10000B8F0, symSize: 0x1C }
  - { offsetInCU: 0x298B4, offset: 0x298B4, size: 0x8, addend: 0x0, symName: __ZNRSt3__123__optional_storage_baseIiLb0EE5__getB8ue170006Ev, symObjAddr: 0xA650, symBinAddr: 0x10000B944, symSize: 0x14 }
  - { offsetInCU: 0x298EB, offset: 0x298EB, size: 0x8, addend: 0x0, symName: __ZNSt19bad_optional_accessC1Ev, symObjAddr: 0xA664, symBinAddr: 0x10000B958, symSize: 0x2C }
  - { offsetInCU: 0x29917, offset: 0x29917, size: 0x8, addend: 0x0, symName: __ZNSt19bad_optional_accessC2Ev, symObjAddr: 0xA690, symBinAddr: 0x10000B984, symSize: 0x44 }
  - { offsetInCU: 0x29943, offset: 0x29943, size: 0x8, addend: 0x0, symName: __ZNSt9exceptionC2B8ue170006Ev, symObjAddr: 0xA6D4, symBinAddr: 0x10000B9C8, symSize: 0x24 }
  - { offsetInCU: 0x2996D, offset: 0x2996D, size: 0x8, addend: 0x0, symName: __ZNK5utils6dict_t11get_any_ptrIdfJeEEENSt3__18optionalIT_EERKNS2_12basic_stringIcNS2_11char_traitsIcEENS2_9allocatorIcEEEE, symObjAddr: 0xA6F8, symBinAddr: 0x10000B9EC, symSize: 0x88 }
  - { offsetInCU: 0x299D9, offset: 0x299D9, size: 0x8, addend: 0x0, symName: __ZNK5utils6dict_t7get_ptrIfEEPKT_RKNSt3__112basic_stringIcNS5_11char_traitsIcEENS5_9allocatorIcEEEE, symObjAddr: 0xA780, symBinAddr: 0x10000BA74, symSize: 0xE4 }
  - { offsetInCU: 0x29A2F, offset: 0x29A2F, size: 0x8, addend: 0x0, symName: __ZNK5utils6dict_t11get_any_ptrIdeJEEENSt3__18optionalIT_EERKNS2_12basic_stringIcNS2_11char_traitsIcEENS2_9allocatorIcEEEE, symObjAddr: 0xA864, symBinAddr: 0x10000BB58, symSize: 0x84 }
  - { offsetInCU: 0x29A8A, offset: 0x29A8A, size: 0x8, addend: 0x0, symName: __ZNSt3__18optionalIdEC1B8ue170006IdLi0EEEOT_, symObjAddr: 0xA8E8, symBinAddr: 0x10000BBDC, symSize: 0x34 }
  - { offsetInCU: 0x29AD2, offset: 0x29AD2, size: 0x8, addend: 0x0, symName: __ZNK5utils10TypeErased12getObjectPtrIfEEPKT_v, symObjAddr: 0xA91C, symBinAddr: 0x10000BC10, symSize: 0xEC }
  - { offsetInCU: 0x29B28, offset: 0x29B28, size: 0x8, addend: 0x0, symName: __ZNK5utils6dict_t7get_ptrIeEEPKT_RKNSt3__112basic_stringIcNS5_11char_traitsIcEENS5_9allocatorIcEEEE, symObjAddr: 0xAA08, symBinAddr: 0x10000BCFC, symSize: 0xE4 }
  - { offsetInCU: 0x29B7E, offset: 0x29B7E, size: 0x8, addend: 0x0, symName: __ZNK5utils6dict_t11get_any_ptrIdEENSt3__18optionalIT_EERKNS2_12basic_stringIcNS2_11char_traitsIcEENS2_9allocatorIcEEEE, symObjAddr: 0xAAEC, symBinAddr: 0x10000BDE0, symSize: 0x68 }
  - { offsetInCU: 0x29BCB, offset: 0x29BCB, size: 0x8, addend: 0x0, symName: __ZNK5utils10TypeErased12getObjectPtrIeEEPKT_v, symObjAddr: 0xAB54, symBinAddr: 0x10000BE48, symSize: 0xEC }
  - { offsetInCU: 0x29C16, offset: 0x29C16, size: 0x8, addend: 0x0, symName: __ZNK5utils6dict_t7get_ptrIdEEPKT_RKNSt3__112basic_stringIcNS5_11char_traitsIcEENS5_9allocatorIcEEEE, symObjAddr: 0xAC40, symBinAddr: 0x10000BF34, symSize: 0xE4 }
  - { offsetInCU: 0x29C6C, offset: 0x29C6C, size: 0x8, addend: 0x0, symName: __ZNSt3__18optionalIdEC1B8ue170006ENS_9nullopt_tE, symObjAddr: 0xAD24, symBinAddr: 0x10000C018, symSize: 0x2C }
  - { offsetInCU: 0x29CA7, offset: 0x29CA7, size: 0x8, addend: 0x0, symName: __ZNSt3__18optionalIdEC1B8ue170006IRKdLi0EEEOT_, symObjAddr: 0xAD50, symBinAddr: 0x10000C044, symSize: 0x34 }
  - { offsetInCU: 0x29CEF, offset: 0x29CEF, size: 0x8, addend: 0x0, symName: __ZNK5utils10TypeErased12getObjectPtrIdEEPKT_v, symObjAddr: 0xAD84, symBinAddr: 0x10000C078, symSize: 0xEC }
  - { offsetInCU: 0x29D3A, offset: 0x29D3A, size: 0x8, addend: 0x0, symName: __ZNSt3__18optionalIdEC2B8ue170006ENS_9nullopt_tE, symObjAddr: 0xAE70, symBinAddr: 0x10000C164, symSize: 0x2C }
  - { offsetInCU: 0x29D75, offset: 0x29D75, size: 0x8, addend: 0x0, symName: __ZNSt3__127__optional_move_assign_baseIdLb1EEC2Ev, symObjAddr: 0xAE9C, symBinAddr: 0x10000C190, symSize: 0x2C }
  - { offsetInCU: 0x29DA8, offset: 0x29DA8, size: 0x8, addend: 0x0, symName: __ZNSt3__127__optional_copy_assign_baseIdLb1EEC2Ev, symObjAddr: 0xAEC8, symBinAddr: 0x10000C1BC, symSize: 0x2C }
  - { offsetInCU: 0x29DDB, offset: 0x29DDB, size: 0x8, addend: 0x0, symName: __ZNSt3__120__optional_move_baseIdLb1EEC2Ev, symObjAddr: 0xAEF4, symBinAddr: 0x10000C1E8, symSize: 0x2C }
  - { offsetInCU: 0x29E0E, offset: 0x29E0E, size: 0x8, addend: 0x0, symName: __ZNSt3__120__optional_copy_baseIdLb1EEC2Ev, symObjAddr: 0xAF20, symBinAddr: 0x10000C214, symSize: 0x2C }
  - { offsetInCU: 0x29E3B, offset: 0x29E3B, size: 0x8, addend: 0x0, symName: __ZNSt3__123__optional_storage_baseIdLb0EEC2Ev, symObjAddr: 0xAF4C, symBinAddr: 0x10000C240, symSize: 0x2C }
  - { offsetInCU: 0x29E68, offset: 0x29E68, size: 0x8, addend: 0x0, symName: __ZNSt3__124__optional_destruct_baseIdLb1EEC2B8ue170006Ev, symObjAddr: 0xAF78, symBinAddr: 0x10000C26C, symSize: 0x1C }
  - { offsetInCU: 0x29E92, offset: 0x29E92, size: 0x8, addend: 0x0, symName: __ZNSt3__18optionalIdEC2B8ue170006IRKdLi0EEEOT_, symObjAddr: 0xAF94, symBinAddr: 0x10000C288, symSize: 0x34 }
  - { offsetInCU: 0x29EDA, offset: 0x29EDA, size: 0x8, addend: 0x0, symName: __ZNSt3__127__optional_move_assign_baseIdLb1EECI2NS_24__optional_destruct_baseIdLb1EEEIJRKdEEENS_10in_place_tEDpOT_, symObjAddr: 0xAFC8, symBinAddr: 0x10000C2BC, symSize: 0x34 }
  - { offsetInCU: 0x29F19, offset: 0x29F19, size: 0x8, addend: 0x0, symName: __ZNSt3__127__optional_copy_assign_baseIdLb1EECI2NS_24__optional_destruct_baseIdLb1EEEIJRKdEEENS_10in_place_tEDpOT_, symObjAddr: 0xAFFC, symBinAddr: 0x10000C2F0, symSize: 0x34 }
  - { offsetInCU: 0x29F58, offset: 0x29F58, size: 0x8, addend: 0x0, symName: __ZNSt3__120__optional_move_baseIdLb1EECI2NS_24__optional_destruct_baseIdLb1EEEIJRKdEEENS_10in_place_tEDpOT_, symObjAddr: 0xB030, symBinAddr: 0x10000C324, symSize: 0x34 }
  - { offsetInCU: 0x29F97, offset: 0x29F97, size: 0x8, addend: 0x0, symName: __ZNSt3__120__optional_copy_baseIdLb1EECI2NS_24__optional_destruct_baseIdLb1EEEIJRKdEEENS_10in_place_tEDpOT_, symObjAddr: 0xB064, symBinAddr: 0x10000C358, symSize: 0x34 }
  - { offsetInCU: 0x29FD6, offset: 0x29FD6, size: 0x8, addend: 0x0, symName: __ZNSt3__123__optional_storage_baseIdLb0EECI2NS_24__optional_destruct_baseIdLb1EEEIJRKdEEENS_10in_place_tEDpOT_, symObjAddr: 0xB098, symBinAddr: 0x10000C38C, symSize: 0x34 }
  - { offsetInCU: 0x2A015, offset: 0x2A015, size: 0x8, addend: 0x0, symName: __ZNSt3__124__optional_destruct_baseIdLb1EEC2B8ue170006IJRKdEEENS_10in_place_tEDpOT_, symObjAddr: 0xB0CC, symBinAddr: 0x10000C3C0, symSize: 0x2C }
  - { offsetInCU: 0x2A064, offset: 0x2A064, size: 0x8, addend: 0x0, symName: __ZNSt3__18optionalIdEC2B8ue170006IdLi0EEEOT_, symObjAddr: 0xB0F8, symBinAddr: 0x10000C3EC, symSize: 0x34 }
  - { offsetInCU: 0x2A0AC, offset: 0x2A0AC, size: 0x8, addend: 0x0, symName: __ZNSt3__127__optional_move_assign_baseIdLb1EECI2NS_24__optional_destruct_baseIdLb1EEEIJdEEENS_10in_place_tEDpOT_, symObjAddr: 0xB12C, symBinAddr: 0x10000C420, symSize: 0x34 }
  - { offsetInCU: 0x2A0EB, offset: 0x2A0EB, size: 0x8, addend: 0x0, symName: __ZNSt3__127__optional_copy_assign_baseIdLb1EECI2NS_24__optional_destruct_baseIdLb1EEEIJdEEENS_10in_place_tEDpOT_, symObjAddr: 0xB160, symBinAddr: 0x10000C454, symSize: 0x34 }
  - { offsetInCU: 0x2A12A, offset: 0x2A12A, size: 0x8, addend: 0x0, symName: __ZNSt3__120__optional_move_baseIdLb1EECI2NS_24__optional_destruct_baseIdLb1EEEIJdEEENS_10in_place_tEDpOT_, symObjAddr: 0xB194, symBinAddr: 0x10000C488, symSize: 0x34 }
  - { offsetInCU: 0x2A169, offset: 0x2A169, size: 0x8, addend: 0x0, symName: __ZNSt3__120__optional_copy_baseIdLb1EECI2NS_24__optional_destruct_baseIdLb1EEEIJdEEENS_10in_place_tEDpOT_, symObjAddr: 0xB1C8, symBinAddr: 0x10000C4BC, symSize: 0x34 }
  - { offsetInCU: 0x2A1A8, offset: 0x2A1A8, size: 0x8, addend: 0x0, symName: __ZNSt3__123__optional_storage_baseIdLb0EECI2NS_24__optional_destruct_baseIdLb1EEEIJdEEENS_10in_place_tEDpOT_, symObjAddr: 0xB1FC, symBinAddr: 0x10000C4F0, symSize: 0x34 }
  - { offsetInCU: 0x2A1E7, offset: 0x2A1E7, size: 0x8, addend: 0x0, symName: __ZNSt3__124__optional_destruct_baseIdLb1EEC2B8ue170006IJdEEENS_10in_place_tEDpOT_, symObjAddr: 0xB230, symBinAddr: 0x10000C524, symSize: 0x2C }
  - { offsetInCU: 0x2A236, offset: 0x2A236, size: 0x8, addend: 0x0, symName: __ZNKSt3__123__optional_storage_baseIdLb0EE9has_valueB8ue170006Ev, symObjAddr: 0xB25C, symBinAddr: 0x10000C550, symSize: 0x1C }
  - { offsetInCU: 0x2A25C, offset: 0x2A25C, size: 0x8, addend: 0x0, symName: __ZNRSt3__123__optional_storage_baseIdLb0EE5__getB8ue170006Ev, symObjAddr: 0xB278, symBinAddr: 0x10000C56C, symSize: 0x14 }
  - { offsetInCU: 0x2A282, offset: 0x2A282, size: 0x8, addend: 0x0, symName: __ZN15bad_format_jsonC2Ev, symObjAddr: 0xB28C, symBinAddr: 0x10000C580, symSize: 0x44 }
  - { offsetInCU: 0x2A2AE, offset: 0x2A2AE, size: 0x8, addend: 0x0, symName: __ZN15bad_format_jsonD0Ev, symObjAddr: 0xB2D0, symBinAddr: 0x10000C5C4, symSize: 0x30 }
  - { offsetInCU: 0x2A2DA, offset: 0x2A2DA, size: 0x8, addend: 0x0, symName: __ZNK15bad_format_json4whatEv, symObjAddr: 0xB300, symBinAddr: 0x10000C5F4, symSize: 0x18 }
  - { offsetInCU: 0x2A300, offset: 0x2A300, size: 0x8, addend: 0x0, symName: __ZN15bad_format_jsonD2Ev, symObjAddr: 0xB318, symBinAddr: 0x10000C60C, symSize: 0x2C }
  - { offsetInCU: 0x2A32C, offset: 0x2A32C, size: 0x8, addend: 0x0, symName: __ZNSt3__14pairIKNS_12basic_stringIcNS_11char_traitsIcEENS_9allocatorIcEEEEN5utils10TypeErasedEED2Ev, symObjAddr: 0xB344, symBinAddr: 0x10000C638, symSize: 0x38 }
  - { offsetInCU: 0x2A358, offset: 0x2A358, size: 0x8, addend: 0x0, symName: __ZN9rapidjson6WriterINS_19GenericStringBufferINS_4UTF8IcEENS_12CrtAllocatorEEES3_S3_S4_Lj0EED2Ev, symObjAddr: 0xB37C, symBinAddr: 0x10000C670, symSize: 0x30 }
  - { offsetInCU: 0x2A384, offset: 0x2A384, size: 0x8, addend: 0x0, symName: __ZN9rapidjson8internal5StackINS_12CrtAllocatorEED1Ev, symObjAddr: 0xB3AC, symBinAddr: 0x10000C6A0, symSize: 0x2C }
  - { offsetInCU: 0x2A3AE, offset: 0x2A3AE, size: 0x8, addend: 0x0, symName: __ZN9rapidjson8internal5StackINS_12CrtAllocatorEED2Ev, symObjAddr: 0xB3D8, symBinAddr: 0x10000C6CC, symSize: 0x34 }
  - { offsetInCU: 0x2A3D8, offset: 0x2A3D8, size: 0x8, addend: 0x0, symName: __ZN9rapidjson8internal5StackINS_12CrtAllocatorEE7DestroyEv, symObjAddr: 0xB40C, symBinAddr: 0x10000C700, symSize: 0x54 }
  - { offsetInCU: 0x2A3FE, offset: 0x2A3FE, size: 0x8, addend: 0x0, symName: __ZN9rapidjson12CrtAllocator4FreeEPv, symObjAddr: 0xB460, symBinAddr: 0x10000C754, symSize: 0x2C }
  - { offsetInCU: 0x2A421, offset: 0x2A421, size: 0x8, addend: 0x0, symName: __ZN9rapidjson19GenericStringBufferINS_4UTF8IcEENS_12CrtAllocatorEED2Ev, symObjAddr: 0xB48C, symBinAddr: 0x10000C780, symSize: 0x2C }
  - { offsetInCU: 0x2A44D, offset: 0x2A44D, size: 0x8, addend: 0x0, symName: __ZNSt3__112basic_stringIcNS_11char_traitsIcEENS_9allocatorIcEEEC2B8ue170006ILi0EEEPKc, symObjAddr: 0xB4B8, symBinAddr: 0x10000C7AC, symSize: 0x58 }
  - { offsetInCU: 0x2A492, offset: 0x2A492, size: 0x8, addend: 0x0, symName: __ZNSt3__117__compressed_pairINS_12basic_stringIcNS_11char_traitsIcEENS_9allocatorIcEEE5__repES5_EC1B8ue170006INS_18__default_init_tagESA_EEOT_OT0_, symObjAddr: 0xB510, symBinAddr: 0x10000C804, symSize: 0x3C }
  - { offsetInCU: 0x2A4EA, offset: 0x2A4EA, size: 0x8, addend: 0x0, symName: __ZNSt3__111char_traitsIcE6lengthB8ue170006EPKc, symObjAddr: 0xB54C, symBinAddr: 0x10000C840, symSize: 0x34 }
  - { offsetInCU: 0x2A50D, offset: 0x2A50D, size: 0x8, addend: 0x0, symName: __ZNSt3__117__compressed_pairINS_12basic_stringIcNS_11char_traitsIcEENS_9allocatorIcEEE5__repES5_EC2B8ue170006INS_18__default_init_tagESA_EEOT_OT0_, symObjAddr: 0xB580, symBinAddr: 0x10000C874, symSize: 0x3C }
  - { offsetInCU: 0x2A565, offset: 0x2A565, size: 0x8, addend: 0x0, symName: __ZNSt3__122__compressed_pair_elemINS_12basic_stringIcNS_11char_traitsIcEENS_9allocatorIcEEE5__repELi0ELb0EEC2B8ue170006ENS_18__default_init_tagE, symObjAddr: 0xB5BC, symBinAddr: 0x10000C8B0, symSize: 0x14 }
  - { offsetInCU: 0x2A59A, offset: 0x2A59A, size: 0x8, addend: 0x0, symName: __ZNSt3__122__compressed_pair_elemINS_9allocatorIcEELi1ELb1EEC2B8ue170006ENS_18__default_init_tagE, symObjAddr: 0xB5D0, symBinAddr: 0x10000C8C4, symSize: 0x2C }
  - { offsetInCU: 0x2A5CF, offset: 0x2A5CF, size: 0x8, addend: 0x0, symName: __ZNSt3__19allocatorIcEC2B8ue170006Ev, symObjAddr: 0xB5FC, symBinAddr: 0x10000C8F0, symSize: 0x2C }
  - { offsetInCU: 0x2A5F9, offset: 0x2A5F9, size: 0x8, addend: 0x0, symName: __ZNSt3__116__non_trivial_ifILb1ENS_9allocatorIcEEEC2B8ue170006Ev, symObjAddr: 0xB628, symBinAddr: 0x10000C91C, symSize: 0x14 }
  - { offsetInCU: 0x2A623, offset: 0x2A623, size: 0x8, addend: 0x0, symName: __ZN5utils6dict_tC2Ev, symObjAddr: 0xB660, symBinAddr: 0x10000C954, symSize: 0x2C }
  - { offsetInCU: 0x2A64D, offset: 0x2A64D, size: 0x8, addend: 0x0, symName: __ZN5utils10TypeErasedaSEOS0_, symObjAddr: 0xB68C, symBinAddr: 0x10000C980, symSize: 0x50 }
  - { offsetInCU: 0x2A681, offset: 0x2A681, size: 0x8, addend: 0x0, symName: __ZN5utils10TypeErasedC1EOS0_, symObjAddr: 0xB6DC, symBinAddr: 0x10000C9D0, symSize: 0x34 }
  - { offsetInCU: 0x2A6B9, offset: 0x2A6B9, size: 0x8, addend: 0x0, symName: __ZN5utils10TypeErasedC2EOS0_, symObjAddr: 0xB710, symBinAddr: 0x10000CA04, symSize: 0x34 }
  - { offsetInCU: 0x2A6F1, offset: 0x2A6F1, size: 0x8, addend: 0x0, symName: __ZNSt3__110unique_ptrIN5utils10TypeErased4BaseENS_14default_deleteIS3_EEEC1B8ue170006EOS6_, symObjAddr: 0xB744, symBinAddr: 0x10000CA38, symSize: 0x34 }
  - { offsetInCU: 0x2A729, offset: 0x2A729, size: 0x8, addend: 0x0, symName: __ZNSt3__110unique_ptrIN5utils10TypeErased4BaseENS_14default_deleteIS3_EEEC2B8ue170006EOS6_, symObjAddr: 0xB778, symBinAddr: 0x10000CA6C, symSize: 0x60 }
  - { offsetInCU: 0x2A76D, offset: 0x2A76D, size: 0x8, addend: 0x0, symName: __ZNSt3__117__compressed_pairIPN5utils10TypeErased4BaseENS_14default_deleteIS3_EEEC1B8ue170006IS4_S6_EEOT_OT0_, symObjAddr: 0xB7D8, symBinAddr: 0x10000CACC, symSize: 0x3C }
  - { offsetInCU: 0x2A7C5, offset: 0x2A7C5, size: 0x8, addend: 0x0, symName: __ZNSt3__117__compressed_pairIPN5utils10TypeErased4BaseENS_14default_deleteIS3_EEEC2B8ue170006IS4_S6_EEOT_OT0_, symObjAddr: 0xB814, symBinAddr: 0x10000CB08, symSize: 0x44 }
  - { offsetInCU: 0x2A81D, offset: 0x2A81D, size: 0x8, addend: 0x0, symName: __ZNSt3__122__compressed_pair_elemIPN5utils10TypeErased4BaseELi0ELb0EEC2B8ue170006IS4_vEEOT_, symObjAddr: 0xB858, symBinAddr: 0x10000CB4C, symSize: 0x24 }
  - { offsetInCU: 0x2A85F, offset: 0x2A85F, size: 0x8, addend: 0x0, symName: __ZNSt3__122__compressed_pair_elemINS_14default_deleteIN5utils10TypeErased4BaseEEELi1ELb1EEC2B8ue170006IS5_vEEOT_, symObjAddr: 0xB87C, symBinAddr: 0x10000CB70, symSize: 0x18 }
  - { offsetInCU: 0x2A8A1, offset: 0x2A8A1, size: 0x8, addend: 0x0, symName: __ZN5utils10TypeErasedD2Ev, symObjAddr: 0xB894, symBinAddr: 0x10000CB88, symSize: 0x2C }
  - { offsetInCU: 0x2A8CD, offset: 0x2A8CD, size: 0x8, addend: 0x0, symName: __ZNSt3__14pairIKNS_12basic_stringIcNS_11char_traitsIcEENS_9allocatorIcEEEEN5utils10TypeErasedEEC2B8ue170006IRA5_KciLPv0EEEOT_OT0_, symObjAddr: 0xB8C0, symBinAddr: 0x10000CBB4, symSize: 0x70 }
  - { offsetInCU: 0x2A92B, offset: 0x2A92B, size: 0x8, addend: 0x0, symName: __ZNSt3__14pairIKNS_12basic_stringIcNS_11char_traitsIcEENS_9allocatorIcEEEEN5utils10TypeErasedEEC2B8ue170006IRA12_KcdLPv0EEEOT_OT0_, symObjAddr: 0xB930, symBinAddr: 0x10000CC24, symSize: 0x70 }
  - { offsetInCU: 0x2A989, offset: 0x2A989, size: 0x8, addend: 0x0, symName: __ZNSt3__14pairIKNS_12basic_stringIcNS_11char_traitsIcEENS_9allocatorIcEEEEN5utils10TypeErasedEEC2B8ue170006IRA8_KcbLPv0EEEOT_OT0_, symObjAddr: 0xB9A0, symBinAddr: 0x10000CC94, symSize: 0x70 }
  - { offsetInCU: 0x2A9E7, offset: 0x2A9E7, size: 0x8, addend: 0x0, symName: __ZNSt3__14pairIKNS_12basic_stringIcNS_11char_traitsIcEENS_9allocatorIcEEEEN5utils10TypeErasedEEC2B8ue170006IRA8_KcS6_LPv0EEEOT_OT0_, symObjAddr: 0xBA10, symBinAddr: 0x10000CD04, symSize: 0x70 }
  - { offsetInCU: 0x2AA45, offset: 0x2AA45, size: 0x8, addend: 0x0, symName: __ZNSt3__14pairIKNS_12basic_stringIcNS_11char_traitsIcEENS_9allocatorIcEEEEN5utils10TypeErasedEEC2B8ue170006IRA3_KcdLPv0EEEOT_OT0_, symObjAddr: 0xBA80, symBinAddr: 0x10000CD74, symSize: 0x70 }
  - { offsetInCU: 0x2AAA3, offset: 0x2AAA3, size: 0x8, addend: 0x0, symName: __ZNSt3__14pairIKNS_12basic_stringIcNS_11char_traitsIcEENS_9allocatorIcEEEEN5utils10TypeErasedEEC2B8ue170006ILb1ELPv0EEERS7_RKS9_, symObjAddr: 0xBAF0, symBinAddr: 0x10000CDE4, symSize: 0x70 }
  - { offsetInCU: 0x2AAF9, offset: 0x2AAF9, size: 0x8, addend: 0x0, symName: __ZN5utils6dict_tC2ERKS0_, symObjAddr: 0xBB60, symBinAddr: 0x10000CE54, symSize: 0x64 }
  - { offsetInCU: 0x2AB31, offset: 0x2AB31, size: 0x8, addend: 0x0, symName: __ZNKSt3__13mapINS_12basic_stringIcNS_11char_traitsIcEENS_9allocatorIcEEEEN5utils10TypeErasedENS_4lessIS6_EENS4_INS_4pairIKS6_S8_EEEEE4sizeB8ue170006Ev, symObjAddr: 0xBC5C, symBinAddr: 0x10000CF50, symSize: 0x28 }
  - { offsetInCU: 0x2AB57, offset: 0x2AB57, size: 0x8, addend: 0x0, symName: __ZNKSt3__16__treeINS_12__value_typeINS_12basic_stringIcNS_11char_traitsIcEENS_9allocatorIcEEEEN5utils10TypeErasedEEENS_19__map_value_compareIS7_SA_NS_4lessIS7_EELb1EEENS5_ISA_EEE4sizeB8ue170006Ev, symObjAddr: 0xBCD4, symBinAddr: 0x10000CFC8, symSize: 0x28 }
  - { offsetInCU: 0x2AB7D, offset: 0x2AB7D, size: 0x8, addend: 0x0, symName: __ZNKSt3__117__compressed_pairImNS_19__map_value_compareINS_12basic_stringIcNS_11char_traitsIcEENS_9allocatorIcEEEENS_12__value_typeIS7_N5utils10TypeErasedEEENS_4lessIS7_EELb1EEEE5firstB8ue170006Ev, symObjAddr: 0xBCFC, symBinAddr: 0x10000CFF0, symSize: 0x24 }
  - { offsetInCU: 0x2ABA3, offset: 0x2ABA3, size: 0x8, addend: 0x0, symName: __ZNKSt3__122__compressed_pair_elemImLi0ELb0EE5__getB8ue170006Ev, symObjAddr: 0xBD20, symBinAddr: 0x10000D014, symSize: 0x14 }
  - { offsetInCU: 0x2ABD4, offset: 0x2ABD4, size: 0x8, addend: 0x0, symName: __ZNKSt3__110__equal_toclB8ue170006INS_4pairIKNS_12basic_stringIcNS_11char_traitsIcEENS_9allocatorIcEEEEN5utils10TypeErasedEEESC_EEbRKT_RKT0_, symObjAddr: 0xBE9C, symBinAddr: 0x10000D190, symSize: 0x34 }
  - { offsetInCU: 0x2AC28, offset: 0x2AC28, size: 0x8, addend: 0x0, symName: __ZNK5utils10TypeErasedeqERKS0_, symObjAddr: 0xC078, symBinAddr: 0x10000D36C, symSize: 0xBC }
  - { offsetInCU: 0x2AC5C, offset: 0x2AC5C, size: 0x8, addend: 0x0, symName: __ZNKSt3__110unique_ptrIN5utils10TypeErased4BaseENS_14default_deleteIS3_EEEdeB8ue170006Ev, symObjAddr: 0xC134, symBinAddr: 0x10000D428, symSize: 0x28 }
  - { offsetInCU: 0x2AC82, offset: 0x2AC82, size: 0x8, addend: 0x0, symName: __ZNSt3__118__unwrap_iter_implINS_20__map_const_iteratorINS_21__tree_const_iteratorINS_12__value_typeINS_12basic_stringIcNS_11char_traitsIcEENS_9allocatorIcEEEEN5utils10TypeErasedEEEPNS_11__tree_nodeISC_PvEElEEEELb0EE8__unwrapB8ue170006ESI_, symObjAddr: 0xC15C, symBinAddr: 0x10000D450, symSize: 0x1C }
  - { offsetInCU: 0x2ACA5, offset: 0x2ACA5, size: 0x8, addend: 0x0, symName: __ZNSt3__13mapINS_12basic_stringIcNS_11char_traitsIcEENS_9allocatorIcEEEEN5utils10TypeErasedENS_4lessIS6_EENS4_INS_4pairIKS6_S8_EEEEE5clearB8ue170006Ev, symObjAddr: 0xC178, symBinAddr: 0x10000D46C, symSize: 0x24 }
  - { offsetInCU: 0x2ACCB, offset: 0x2ACCB, size: 0x8, addend: 0x0, symName: __ZNSt3__16__treeINS_12__value_typeINS_12basic_stringIcNS_11char_traitsIcEENS_9allocatorIcEEEEN5utils10TypeErasedEEENS_19__map_value_compareIS7_SA_NS_4lessIS7_EELb1EEENS5_ISA_EEE5clearEv, symObjAddr: 0xC19C, symBinAddr: 0x10000D490, symSize: 0x74 }
  - { offsetInCU: 0x2ACF3, offset: 0x2ACF3, size: 0x8, addend: 0x0, symName: __ZNSt3__13mapINS_12basic_stringIcNS_11char_traitsIcEENS_9allocatorIcEEEEN5utils10TypeErasedENS_4lessIS6_EENS4_INS_4pairIKS6_S8_EEEEEaSB8ue170006EOSF_, symObjAddr: 0xC210, symBinAddr: 0x10000D504, symSize: 0x34 }
  - { offsetInCU: 0x2AD28, offset: 0x2AD28, size: 0x8, addend: 0x0, symName: __ZN5utils6dict_t5clearEv, symObjAddr: 0xC244, symBinAddr: 0x10000D538, symSize: 0x24 }
  - { offsetInCU: 0x2AD4E, offset: 0x2AD4E, size: 0x8, addend: 0x0, symName: __ZNSt3__16__treeINS_12__value_typeINS_12basic_stringIcNS_11char_traitsIcEENS_9allocatorIcEEEEN5utils10TypeErasedEEENS_19__map_value_compareIS7_SA_NS_4lessIS7_EELb1EEENS5_ISA_EEEaSEOSG_, symObjAddr: 0xC268, symBinAddr: 0x10000D55C, symSize: 0x34 }
  - { offsetInCU: 0x2AD85, offset: 0x2AD85, size: 0x8, addend: 0x0, symName: __ZNSt3__16__treeINS_12__value_typeINS_12basic_stringIcNS_11char_traitsIcEENS_9allocatorIcEEEEN5utils10TypeErasedEEENS_19__map_value_compareIS7_SA_NS_4lessIS7_EELb1EEENS5_ISA_EEE13__move_assignERSG_NS_17integral_constantIbLb1EEE, symObjAddr: 0xC29C, symBinAddr: 0x10000D590, symSize: 0x138 }
  - { offsetInCU: 0x2ADC7, offset: 0x2ADC7, size: 0x8, addend: 0x0, symName: __ZNSt3__16__treeINS_12__value_typeINS_12basic_stringIcNS_11char_traitsIcEENS_9allocatorIcEEEEN5utils10TypeErasedEEENS_19__map_value_compareIS7_SA_NS_4lessIS7_EELb1EEENS5_ISA_EEE19__move_assign_allocB8ue170006ERSG_, symObjAddr: 0xC3D4, symBinAddr: 0x10000D6C8, symSize: 0x2C }
  - { offsetInCU: 0x2ADFC, offset: 0x2ADFC, size: 0x8, addend: 0x0, symName: __ZNSt3__16__treeINS_12__value_typeINS_12basic_stringIcNS_11char_traitsIcEENS_9allocatorIcEEEEN5utils10TypeErasedEEENS_19__map_value_compareIS7_SA_NS_4lessIS7_EELb1EEENS5_ISA_EEE19__move_assign_allocB8ue170006ERSG_NS_17integral_constantIbLb1EEE, symObjAddr: 0xC400, symBinAddr: 0x10000D6F4, symSize: 0x38 }
  - { offsetInCU: 0x2AE3C, offset: 0x2AE3C, size: 0x8, addend: 0x0, symName: __ZNKSt3__13mapINS_12basic_stringIcNS_11char_traitsIcEENS_9allocatorIcEEEEN5utils10TypeErasedENS_4lessIS6_EENS4_INS_4pairIKS6_S8_EEEEE5emptyB8ue170006Ev, symObjAddr: 0xC438, symBinAddr: 0x10000D72C, symSize: 0x34 }
  - { offsetInCU: 0x2AE62, offset: 0x2AE62, size: 0x8, addend: 0x0, symName: __ZN5utils6dict_tC2EOS0_, symObjAddr: 0xC46C, symBinAddr: 0x10000D760, symSize: 0x3C }
  - { offsetInCU: 0x2AE9A, offset: 0x2AE9A, size: 0x8, addend: 0x0, symName: __ZNSt3__14pairIKNS_12basic_stringIcNS_11char_traitsIcEENS_9allocatorIcEEEEdEC2B8ue170006IRA7_KciLPv0EEEOT_OT0_, symObjAddr: 0xC4A8, symBinAddr: 0x10000D79C, symSize: 0x50 }
  - { offsetInCU: 0x2AEF8, offset: 0x2AEF8, size: 0x8, addend: 0x0, symName: __ZNSt3__14pairIKNS_12basic_stringIcNS_11char_traitsIcEENS_9allocatorIcEEEEdED2Ev, symObjAddr: 0xC4F8, symBinAddr: 0x10000D7EC, symSize: 0x2C }
  - { offsetInCU: 0x2AF24, offset: 0x2AF24, size: 0x8, addend: 0x0, symName: __ZNSt3__14pairIKNS_12basic_stringIcNS_11char_traitsIcEENS_9allocatorIcEEEEdEC2B8ue170006IRA9_KciLPv0EEEOT_OT0_, symObjAddr: 0xC524, symBinAddr: 0x10000D818, symSize: 0x50 }
  - { offsetInCU: 0x2AF82, offset: 0x2AF82, size: 0x8, addend: 0x0, symName: __ZNSt3__16vectorINS_3mapINS_12basic_stringIcNS_11char_traitsIcEENS_9allocatorIcEEEEdNS_4lessIS7_EENS5_INS_4pairIKS7_dEEEEEENS5_ISE_EEEC2B8ue170006ESt16initializer_listISE_E, symObjAddr: 0xC574, symBinAddr: 0x10000D868, symSize: 0x120 }
  - { offsetInCU: 0x2AFD8, offset: 0x2AFD8, size: 0x8, addend: 0x0, symName: __ZNSt3__117__compressed_pairIPNS_3mapINS_12basic_stringIcNS_11char_traitsIcEENS_9allocatorIcEEEEdNS_4lessIS7_EENS5_INS_4pairIKS7_dEEEEEENS5_ISE_EEEC1B8ue170006IDnNS_18__default_init_tagEEEOT_OT0_, symObjAddr: 0xC694, symBinAddr: 0x10000D988, symSize: 0x3C }
  - { offsetInCU: 0x2B030, offset: 0x2B030, size: 0x8, addend: 0x0, symName: __ZNSt3__16vectorINS_3mapINS_12basic_stringIcNS_11char_traitsIcEENS_9allocatorIcEEEEdNS_4lessIS7_EENS5_INS_4pairIKS7_dEEEEEENS5_ISE_EEE16__destroy_vectorC1B8ue170006ERSG_, symObjAddr: 0xC710, symBinAddr: 0x10000DA04, symSize: 0x34 }
  - { offsetInCU: 0x2B069, offset: 0x2B069, size: 0x8, addend: 0x0, symName: __ZNKSt16initializer_listINSt3__13mapINS0_12basic_stringIcNS0_11char_traitsIcEENS0_9allocatorIcEEEEdNS0_4lessIS7_EENS5_INS0_4pairIKS7_dEEEEEEE4sizeB8ue170006Ev, symObjAddr: 0xC744, symBinAddr: 0x10000DA38, symSize: 0x18 }
  - { offsetInCU: 0x2B08F, offset: 0x2B08F, size: 0x8, addend: 0x0, symName: __ZNSt3__16vectorINS_3mapINS_12basic_stringIcNS_11char_traitsIcEENS_9allocatorIcEEEEdNS_4lessIS7_EENS5_INS_4pairIKS7_dEEEEEENS5_ISE_EEE11__vallocateB8ue170006Em, symObjAddr: 0xC75C, symBinAddr: 0x10000DA50, symSize: 0xB4 }
  - { offsetInCU: 0x2B0D3, offset: 0x2B0D3, size: 0x8, addend: 0x0, symName: __ZNSt3__16vectorINS_3mapINS_12basic_stringIcNS_11char_traitsIcEENS_9allocatorIcEEEEdNS_4lessIS7_EENS5_INS_4pairIKS7_dEEEEEENS5_ISE_EEE18__construct_at_endIPKSE_SJ_EEvT_T0_m, symObjAddr: 0xC810, symBinAddr: 0x10000DB04, symSize: 0x8C }
  - { offsetInCU: 0x2B149, offset: 0x2B149, size: 0x8, addend: 0x0, symName: __ZNKSt16initializer_listINSt3__13mapINS0_12basic_stringIcNS0_11char_traitsIcEENS0_9allocatorIcEEEEdNS0_4lessIS7_EENS5_INS0_4pairIKS7_dEEEEEEE5beginB8ue170006Ev, symObjAddr: 0xC89C, symBinAddr: 0x10000DB90, symSize: 0x18 }
  - { offsetInCU: 0x2B16F, offset: 0x2B16F, size: 0x8, addend: 0x0, symName: __ZNKSt16initializer_listINSt3__13mapINS0_12basic_stringIcNS0_11char_traitsIcEENS0_9allocatorIcEEEEdNS0_4lessIS7_EENS5_INS0_4pairIKS7_dEEEEEEE3endB8ue170006Ev, symObjAddr: 0xC8B4, symBinAddr: 0x10000DBA8, symSize: 0x28 }
  - { offsetInCU: 0x2B195, offset: 0x2B195, size: 0x8, addend: 0x0, symName: __ZNSt3__128__exception_guard_exceptionsINS_6vectorINS_3mapINS_12basic_stringIcNS_11char_traitsIcEENS_9allocatorIcEEEEdNS_4lessIS8_EENS6_INS_4pairIKS8_dEEEEEENS6_ISF_EEE16__destroy_vectorEE10__completeB8ue170006Ev, symObjAddr: 0xC8DC, symBinAddr: 0x10000DBD0, symSize: 0x1C }
  - { offsetInCU: 0x2B1BB, offset: 0x2B1BB, size: 0x8, addend: 0x0, symName: __ZNSt3__128__exception_guard_exceptionsINS_6vectorINS_3mapINS_12basic_stringIcNS_11char_traitsIcEENS_9allocatorIcEEEEdNS_4lessIS8_EENS6_INS_4pairIKS8_dEEEEEENS6_ISF_EEE16__destroy_vectorEED1B8ue170006Ev, symObjAddr: 0xC8F8, symBinAddr: 0x10000DBEC, symSize: 0x2C }
  - { offsetInCU: 0x2B1E5, offset: 0x2B1E5, size: 0x8, addend: 0x0, symName: __ZNSt3__117__compressed_pairIPNS_3mapINS_12basic_stringIcNS_11char_traitsIcEENS_9allocatorIcEEEEdNS_4lessIS7_EENS5_INS_4pairIKS7_dEEEEEENS5_ISE_EEEC2B8ue170006IDnNS_18__default_init_tagEEEOT_OT0_, symObjAddr: 0xC924, symBinAddr: 0x10000DC18, symSize: 0x40 }
  - { offsetInCU: 0x2B23D, offset: 0x2B23D, size: 0x8, addend: 0x0, symName: __ZNSt3__122__compressed_pair_elemIPNS_3mapINS_12basic_stringIcNS_11char_traitsIcEENS_9allocatorIcEEEEdNS_4lessIS7_EENS5_INS_4pairIKS7_dEEEEEELi0ELb0EEC2B8ue170006IDnvEEOT_, symObjAddr: 0xC964, symBinAddr: 0x10000DC58, symSize: 0x1C }
  - { offsetInCU: 0x2B27F, offset: 0x2B27F, size: 0x8, addend: 0x0, symName: __ZNSt3__122__compressed_pair_elemINS_9allocatorINS_3mapINS_12basic_stringIcNS_11char_traitsIcEENS1_IcEEEEdNS_4lessIS7_EENS1_INS_4pairIKS7_dEEEEEEEELi1ELb1EEC2B8ue170006ENS_18__default_init_tagE, symObjAddr: 0xC980, symBinAddr: 0x10000DC74, symSize: 0x2C }
  - { offsetInCU: 0x2B2B4, offset: 0x2B2B4, size: 0x8, addend: 0x0, symName: __ZNSt3__19allocatorINS_3mapINS_12basic_stringIcNS_11char_traitsIcEENS0_IcEEEEdNS_4lessIS6_EENS0_INS_4pairIKS6_dEEEEEEEC2B8ue170006Ev, symObjAddr: 0xC9AC, symBinAddr: 0x10000DCA0, symSize: 0x2C }
  - { offsetInCU: 0x2B2DE, offset: 0x2B2DE, size: 0x8, addend: 0x0, symName: __ZNSt3__116__non_trivial_ifILb1ENS_9allocatorINS_3mapINS_12basic_stringIcNS_11char_traitsIcEENS1_IcEEEEdNS_4lessIS7_EENS1_INS_4pairIKS7_dEEEEEEEEEC2B8ue170006Ev, symObjAddr: 0xC9D8, symBinAddr: 0x10000DCCC, symSize: 0x14 }
  - { offsetInCU: 0x2B308, offset: 0x2B308, size: 0x8, addend: 0x0, symName: __ZNSt3__128__exception_guard_exceptionsINS_6vectorINS_3mapINS_12basic_stringIcNS_11char_traitsIcEENS_9allocatorIcEEEEdNS_4lessIS8_EENS6_INS_4pairIKS8_dEEEEEENS6_ISF_EEE16__destroy_vectorEEC1B8ue170006ESI_, symObjAddr: 0xC9EC, symBinAddr: 0x10000DCE0, symSize: 0x34 }
  - { offsetInCU: 0x2B340, offset: 0x2B340, size: 0x8, addend: 0x0, symName: __ZNSt3__128__exception_guard_exceptionsINS_6vectorINS_3mapINS_12basic_stringIcNS_11char_traitsIcEENS_9allocatorIcEEEEdNS_4lessIS8_EENS6_INS_4pairIKS8_dEEEEEENS6_ISF_EEE16__destroy_vectorEEC2B8ue170006ESI_, symObjAddr: 0xCA20, symBinAddr: 0x10000DD14, symSize: 0x24 }
  - { offsetInCU: 0x2B378, offset: 0x2B378, size: 0x8, addend: 0x0, symName: __ZNSt3__16vectorINS_3mapINS_12basic_stringIcNS_11char_traitsIcEENS_9allocatorIcEEEEdNS_4lessIS7_EENS5_INS_4pairIKS7_dEEEEEENS5_ISE_EEE16__destroy_vectorC2B8ue170006ERSG_, symObjAddr: 0xCA44, symBinAddr: 0x10000DD38, symSize: 0x20 }
  - { offsetInCU: 0x2B3B1, offset: 0x2B3B1, size: 0x8, addend: 0x0, symName: __ZNKSt3__16vectorINS_3mapINS_12basic_stringIcNS_11char_traitsIcEENS_9allocatorIcEEEEdNS_4lessIS7_EENS5_INS_4pairIKS7_dEEEEEENS5_ISE_EEE8max_sizeEv, symObjAddr: 0xCA64, symBinAddr: 0x10000DD58, symSize: 0x60 }
  - { offsetInCU: 0x2B3D9, offset: 0x2B3D9, size: 0x8, addend: 0x0, symName: __ZNKSt3__16vectorINS_3mapINS_12basic_stringIcNS_11char_traitsIcEENS_9allocatorIcEEEEdNS_4lessIS7_EENS5_INS_4pairIKS7_dEEEEEENS5_ISE_EEE20__throw_length_errorB8ue170006Ev, symObjAddr: 0xCAC4, symBinAddr: 0x10000DDB8, symSize: 0x1C }
  - { offsetInCU: 0x2B3FF, offset: 0x2B3FF, size: 0x8, addend: 0x0, symName: __ZNSt3__16vectorINS_3mapINS_12basic_stringIcNS_11char_traitsIcEENS_9allocatorIcEEEEdNS_4lessIS7_EENS5_INS_4pairIKS7_dEEEEEENS5_ISE_EEE7__allocB8ue170006Ev, symObjAddr: 0xCB20, symBinAddr: 0x10000DE14, symSize: 0x28 }
  - { offsetInCU: 0x2B425, offset: 0x2B425, size: 0x8, addend: 0x0, symName: __ZNSt3__16vectorINS_3mapINS_12basic_stringIcNS_11char_traitsIcEENS_9allocatorIcEEEEdNS_4lessIS7_EENS5_INS_4pairIKS7_dEEEEEENS5_ISE_EEE9__end_capB8ue170006Ev, symObjAddr: 0xCB48, symBinAddr: 0x10000DE3C, symSize: 0x28 }
  - { offsetInCU: 0x2B44B, offset: 0x2B44B, size: 0x8, addend: 0x0, symName: __ZNKSt3__16vectorINS_3mapINS_12basic_stringIcNS_11char_traitsIcEENS_9allocatorIcEEEEdNS_4lessIS7_EENS5_INS_4pairIKS7_dEEEEEENS5_ISE_EEE14__annotate_newB8ue170006Em, symObjAddr: 0xCB70, symBinAddr: 0x10000DE64, symSize: 0xC8 }
  - { offsetInCU: 0x2B48B, offset: 0x2B48B, size: 0x8, addend: 0x0, symName: __ZNSt3__116allocator_traitsINS_9allocatorINS_3mapINS_12basic_stringIcNS_11char_traitsIcEENS1_IcEEEEdNS_4lessIS7_EENS1_INS_4pairIKS7_dEEEEEEEEE8max_sizeB8ue170006ISF_vvEEmRKSF_, symObjAddr: 0xCC38, symBinAddr: 0x10000DF2C, symSize: 0x28 }
  - { offsetInCU: 0x2B4B6, offset: 0x2B4B6, size: 0x8, addend: 0x0, symName: __ZNKSt3__16vectorINS_3mapINS_12basic_stringIcNS_11char_traitsIcEENS_9allocatorIcEEEEdNS_4lessIS7_EENS5_INS_4pairIKS7_dEEEEEENS5_ISE_EEE7__allocB8ue170006Ev, symObjAddr: 0xCC60, symBinAddr: 0x10000DF54, symSize: 0x28 }
  - { offsetInCU: 0x2B4DC, offset: 0x2B4DC, size: 0x8, addend: 0x0, symName: __ZNSt3__114numeric_limitsIlE3maxB8ue170006Ev, symObjAddr: 0xCC88, symBinAddr: 0x10000DF7C, symSize: 0x14 }
  - { offsetInCU: 0x2B4F0, offset: 0x2B4F0, size: 0x8, addend: 0x0, symName: __ZNKSt3__117__compressed_pairIPNS_3mapINS_12basic_stringIcNS_11char_traitsIcEENS_9allocatorIcEEEEdNS_4lessIS7_EENS5_INS_4pairIKS7_dEEEEEENS5_ISE_EEE6secondB8ue170006Ev, symObjAddr: 0xCC9C, symBinAddr: 0x10000DF90, symSize: 0x24 }
  - { offsetInCU: 0x2B516, offset: 0x2B516, size: 0x8, addend: 0x0, symName: __ZNKSt3__122__compressed_pair_elemINS_9allocatorINS_3mapINS_12basic_stringIcNS_11char_traitsIcEENS1_IcEEEEdNS_4lessIS7_EENS1_INS_4pairIKS7_dEEEEEEEELi1ELb1EE5__getB8ue170006Ev, symObjAddr: 0xCCC0, symBinAddr: 0x10000DFB4, symSize: 0x14 }
  - { offsetInCU: 0x2B53C, offset: 0x2B53C, size: 0x8, addend: 0x0, symName: __ZNSt3__123__libcpp_numeric_limitsIlLb1EE3maxB8ue170006Ev, symObjAddr: 0xCCD4, symBinAddr: 0x10000DFC8, symSize: 0x8 }
  - { offsetInCU: 0x2B550, offset: 0x2B550, size: 0x8, addend: 0x0, symName: __ZNSt12length_errorC1B8ue170006EPKc, symObjAddr: 0xCD40, symBinAddr: 0x10000E034, symSize: 0x34 }
  - { offsetInCU: 0x2B588, offset: 0x2B588, size: 0x8, addend: 0x0, symName: __ZNSt12length_errorC2B8ue170006EPKc, symObjAddr: 0xCD74, symBinAddr: 0x10000E068, symSize: 0x4C }
  - { offsetInCU: 0x2B5C0, offset: 0x2B5C0, size: 0x8, addend: 0x0, symName: __ZNSt3__19allocatorINS_3mapINS_12basic_stringIcNS_11char_traitsIcEENS0_IcEEEEdNS_4lessIS6_EENS0_INS_4pairIKS6_dEEEEEEE8allocateB8ue170006Em, symObjAddr: 0xCDC0, symBinAddr: 0x10000E0B4, symSize: 0x5C }
  - { offsetInCU: 0x2B5F4, offset: 0x2B5F4, size: 0x8, addend: 0x0, symName: __ZNSt3__117__compressed_pairIPNS_3mapINS_12basic_stringIcNS_11char_traitsIcEENS_9allocatorIcEEEEdNS_4lessIS7_EENS5_INS_4pairIKS7_dEEEEEENS5_ISE_EEE6secondB8ue170006Ev, symObjAddr: 0xCE1C, symBinAddr: 0x10000E110, symSize: 0x24 }
  - { offsetInCU: 0x2B61A, offset: 0x2B61A, size: 0x8, addend: 0x0, symName: __ZNSt3__122__compressed_pair_elemINS_9allocatorINS_3mapINS_12basic_stringIcNS_11char_traitsIcEENS1_IcEEEEdNS_4lessIS7_EENS1_INS_4pairIKS7_dEEEEEEEELi1ELb1EE5__getB8ue170006Ev, symObjAddr: 0xCE40, symBinAddr: 0x10000E134, symSize: 0x14 }
  - { offsetInCU: 0x2B640, offset: 0x2B640, size: 0x8, addend: 0x0, symName: __ZNSt3__117__compressed_pairIPNS_3mapINS_12basic_stringIcNS_11char_traitsIcEENS_9allocatorIcEEEEdNS_4lessIS7_EENS5_INS_4pairIKS7_dEEEEEENS5_ISE_EEE5firstB8ue170006Ev, symObjAddr: 0xCE54, symBinAddr: 0x10000E148, symSize: 0x24 }
  - { offsetInCU: 0x2B666, offset: 0x2B666, size: 0x8, addend: 0x0, symName: __ZNSt3__122__compressed_pair_elemIPNS_3mapINS_12basic_stringIcNS_11char_traitsIcEENS_9allocatorIcEEEEdNS_4lessIS7_EENS5_INS_4pairIKS7_dEEEEEELi0ELb0EE5__getB8ue170006Ev, symObjAddr: 0xCE78, symBinAddr: 0x10000E16C, symSize: 0x14 }
  - { offsetInCU: 0x2B68C, offset: 0x2B68C, size: 0x8, addend: 0x0, symName: __ZNKSt3__16vectorINS_3mapINS_12basic_stringIcNS_11char_traitsIcEENS_9allocatorIcEEEEdNS_4lessIS7_EENS5_INS_4pairIKS7_dEEEEEENS5_ISE_EEE31__annotate_contiguous_containerB8ue170006EPKvSI_SI_SI_, symObjAddr: 0xCE8C, symBinAddr: 0x10000E180, symSize: 0x20 }
  - { offsetInCU: 0x2B6DE, offset: 0x2B6DE, size: 0x8, addend: 0x0, symName: __ZNKSt3__16vectorINS_3mapINS_12basic_stringIcNS_11char_traitsIcEENS_9allocatorIcEEEEdNS_4lessIS7_EENS5_INS_4pairIKS7_dEEEEEENS5_ISE_EEE4dataB8ue170006Ev, symObjAddr: 0xCEAC, symBinAddr: 0x10000E1A0, symSize: 0x28 }
  - { offsetInCU: 0x2B704, offset: 0x2B704, size: 0x8, addend: 0x0, symName: __ZNKSt3__16vectorINS_3mapINS_12basic_stringIcNS_11char_traitsIcEENS_9allocatorIcEEEEdNS_4lessIS7_EENS5_INS_4pairIKS7_dEEEEEENS5_ISE_EEE8capacityB8ue170006Ev, symObjAddr: 0xCED4, symBinAddr: 0x10000E1C8, symSize: 0x40 }
  - { offsetInCU: 0x2B72A, offset: 0x2B72A, size: 0x8, addend: 0x0, symName: __ZNKSt3__16vectorINS_3mapINS_12basic_stringIcNS_11char_traitsIcEENS_9allocatorIcEEEEdNS_4lessIS7_EENS5_INS_4pairIKS7_dEEEEEENS5_ISE_EEE9__end_capB8ue170006Ev, symObjAddr: 0xCF28, symBinAddr: 0x10000E21C, symSize: 0x28 }
  - { offsetInCU: 0x2B750, offset: 0x2B750, size: 0x8, addend: 0x0, symName: __ZNKSt3__117__compressed_pairIPNS_3mapINS_12basic_stringIcNS_11char_traitsIcEENS_9allocatorIcEEEEdNS_4lessIS7_EENS5_INS_4pairIKS7_dEEEEEENS5_ISE_EEE5firstB8ue170006Ev, symObjAddr: 0xCF50, symBinAddr: 0x10000E244, symSize: 0x24 }
  - { offsetInCU: 0x2B776, offset: 0x2B776, size: 0x8, addend: 0x0, symName: __ZNKSt3__122__compressed_pair_elemIPNS_3mapINS_12basic_stringIcNS_11char_traitsIcEENS_9allocatorIcEEEEdNS_4lessIS7_EENS5_INS_4pairIKS7_dEEEEEELi0ELb0EE5__getB8ue170006Ev, symObjAddr: 0xCF74, symBinAddr: 0x10000E268, symSize: 0x14 }
  - { offsetInCU: 0x2B7B8, offset: 0x2B7B8, size: 0x8, addend: 0x0, symName: __ZNSt3__16vectorINS_3mapINS_12basic_stringIcNS_11char_traitsIcEENS_9allocatorIcEEEEdNS_4lessIS7_EENS5_INS_4pairIKS7_dEEEEEENS5_ISE_EEE21_ConstructTransactionC1B8ue170006ERSG_m, symObjAddr: 0xCF88, symBinAddr: 0x10000E27C, symSize: 0x3C }
  - { offsetInCU: 0x2B800, offset: 0x2B800, size: 0x8, addend: 0x0, symName: __ZNSt3__16vectorINS_3mapINS_12basic_stringIcNS_11char_traitsIcEENS_9allocatorIcEEEEdNS_4lessIS7_EENS5_INS_4pairIKS7_dEEEEEENS5_ISE_EEE21_ConstructTransactionD1B8ue170006Ev, symObjAddr: 0xD044, symBinAddr: 0x10000E338, symSize: 0x2C }
  - { offsetInCU: 0x2B82A, offset: 0x2B82A, size: 0x8, addend: 0x0, symName: __ZNSt3__16vectorINS_3mapINS_12basic_stringIcNS_11char_traitsIcEENS_9allocatorIcEEEEdNS_4lessIS7_EENS5_INS_4pairIKS7_dEEEEEENS5_ISE_EEE21_ConstructTransactionC2B8ue170006ERSG_m, symObjAddr: 0xD070, symBinAddr: 0x10000E364, symSize: 0x4C }
  - { offsetInCU: 0x2B88F, offset: 0x2B88F, size: 0x8, addend: 0x0, symName: __ZNSt3__119__unwrap_range_implIPKNS_3mapINS_12basic_stringIcNS_11char_traitsIcEENS_9allocatorIcEEEEdNS_4lessIS7_EENS5_INS_4pairIKS7_dEEEEEESG_E8__unwrapB8ue170006ESG_SG_, symObjAddr: 0xD24C, symBinAddr: 0x10000E540, symSize: 0x58 }
  - { offsetInCU: 0x2B8C6, offset: 0x2B8C6, size: 0x8, addend: 0x0, symName: __ZNSt3__14pairIPKNS_3mapINS_12basic_stringIcNS_11char_traitsIcEENS_9allocatorIcEEEEdNS_4lessIS7_EENS5_INS0_IKS7_dEEEEEESF_EC1B8ue170006ISF_SF_LPv0EEEOT_OT0_, symObjAddr: 0xD2C8, symBinAddr: 0x10000E5BC, symSize: 0x3C }
  - { offsetInCU: 0x2B924, offset: 0x2B924, size: 0x8, addend: 0x0, symName: __ZNSt3__118__unwrap_iter_implIPKNS_3mapINS_12basic_stringIcNS_11char_traitsIcEENS_9allocatorIcEEEEdNS_4lessIS7_EENS5_INS_4pairIKS7_dEEEEEELb1EE8__unwrapB8ue170006ESG_, symObjAddr: 0xD304, symBinAddr: 0x10000E5F8, symSize: 0x24 }
  - { offsetInCU: 0x2B947, offset: 0x2B947, size: 0x8, addend: 0x0, symName: __ZNSt3__14pairIPKNS_3mapINS_12basic_stringIcNS_11char_traitsIcEENS_9allocatorIcEEEEdNS_4lessIS7_EENS5_INS0_IKS7_dEEEEEESF_EC2B8ue170006ISF_SF_LPv0EEEOT_OT0_, symObjAddr: 0xD33C, symBinAddr: 0x10000E630, symSize: 0x34 }
  - { offsetInCU: 0x2B9A5, offset: 0x2B9A5, size: 0x8, addend: 0x0, symName: __ZNSt3__129_AllocatorDestroyRangeReverseINS_9allocatorINS_3mapINS_12basic_stringIcNS_11char_traitsIcEENS1_IcEEEEdNS_4lessIS7_EENS1_INS_4pairIKS7_dEEEEEEEEPSE_EC1B8ue170006ERSF_RSG_SJ_, symObjAddr: 0xD3BC, symBinAddr: 0x10000E6B0, symSize: 0x44 }
  - { offsetInCU: 0x2B9FC, offset: 0x2B9FC, size: 0x8, addend: 0x0, symName: __ZNSt3__116allocator_traitsINS_9allocatorINS_3mapINS_12basic_stringIcNS_11char_traitsIcEENS1_IcEEEEdNS_4lessIS7_EENS1_INS_4pairIKS7_dEEEEEEEEE9constructB8ue170006ISE_JRKSE_EvvEEvRSF_PT_DpOT0_, symObjAddr: 0xD400, symBinAddr: 0x10000E6F4, symSize: 0x30 }
  - { offsetInCU: 0x2BA50, offset: 0x2BA50, size: 0x8, addend: 0x0, symName: __ZNSt3__128__exception_guard_exceptionsINS_29_AllocatorDestroyRangeReverseINS_9allocatorINS_3mapINS_12basic_stringIcNS_11char_traitsIcEENS2_IcEEEEdNS_4lessIS8_EENS2_INS_4pairIKS8_dEEEEEEEEPSF_EEE10__completeB8ue170006Ev, symObjAddr: 0xD430, symBinAddr: 0x10000E724, symSize: 0x1C }
  - { offsetInCU: 0x2BA76, offset: 0x2BA76, size: 0x8, addend: 0x0, symName: __ZNSt3__128__exception_guard_exceptionsINS_29_AllocatorDestroyRangeReverseINS_9allocatorINS_3mapINS_12basic_stringIcNS_11char_traitsIcEENS2_IcEEEEdNS_4lessIS8_EENS2_INS_4pairIKS8_dEEEEEEEEPSF_EEED1B8ue170006Ev, symObjAddr: 0xD44C, symBinAddr: 0x10000E740, symSize: 0x2C }
  - { offsetInCU: 0x2BAA0, offset: 0x2BAA0, size: 0x8, addend: 0x0, symName: __ZNSt3__128__exception_guard_exceptionsINS_29_AllocatorDestroyRangeReverseINS_9allocatorINS_3mapINS_12basic_stringIcNS_11char_traitsIcEENS2_IcEEEEdNS_4lessIS8_EENS2_INS_4pairIKS8_dEEEEEEEEPSF_EEEC1B8ue170006ESI_, symObjAddr: 0xD478, symBinAddr: 0x10000E76C, symSize: 0x34 }
  - { offsetInCU: 0x2BAD9, offset: 0x2BAD9, size: 0x8, addend: 0x0, symName: __ZNSt3__128__exception_guard_exceptionsINS_29_AllocatorDestroyRangeReverseINS_9allocatorINS_3mapINS_12basic_stringIcNS_11char_traitsIcEENS2_IcEEEEdNS_4lessIS8_EENS2_INS_4pairIKS8_dEEEEEEEEPSF_EEEC2B8ue170006ESI_, symObjAddr: 0xD4AC, symBinAddr: 0x10000E7A0, symSize: 0x30 }
  - { offsetInCU: 0x2BB12, offset: 0x2BB12, size: 0x8, addend: 0x0, symName: __ZNSt3__129_AllocatorDestroyRangeReverseINS_9allocatorINS_3mapINS_12basic_stringIcNS_11char_traitsIcEENS1_IcEEEEdNS_4lessIS7_EENS1_INS_4pairIKS7_dEEEEEEEEPSE_EC2B8ue170006ERSF_RSG_SJ_, symObjAddr: 0xD4DC, symBinAddr: 0x10000E7D0, symSize: 0x38 }
  - { offsetInCU: 0x2BB69, offset: 0x2BB69, size: 0x8, addend: 0x0, symName: __ZNSt3__13mapINS_12basic_stringIcNS_11char_traitsIcEENS_9allocatorIcEEEEdNS_4lessIS6_EENS4_INS_4pairIKS6_dEEEEEC1B8ue170006ERKSD_, symObjAddr: 0xD550, symBinAddr: 0x10000E844, symSize: 0x34 }
  - { offsetInCU: 0x2BBA2, offset: 0x2BBA2, size: 0x8, addend: 0x0, symName: __ZNSt3__13mapINS_12basic_stringIcNS_11char_traitsIcEENS_9allocatorIcEEEEdNS_4lessIS6_EENS4_INS_4pairIKS6_dEEEEEC2B8ue170006ERKSD_, symObjAddr: 0xD584, symBinAddr: 0x10000E878, symSize: 0x88 }
  - { offsetInCU: 0x2BBDB, offset: 0x2BBDB, size: 0x8, addend: 0x0, symName: __ZNSt3__16__treeINS_12__value_typeINS_12basic_stringIcNS_11char_traitsIcEENS_9allocatorIcEEEEdEENS_19__map_value_compareIS7_S8_NS_4lessIS7_EELb1EEENS5_IS8_EEEC1ERKSE_, symObjAddr: 0xD60C, symBinAddr: 0x10000E900, symSize: 0x34 }
  - { offsetInCU: 0x2BC16, offset: 0x2BC16, size: 0x8, addend: 0x0, symName: __ZNSt3__13mapINS_12basic_stringIcNS_11char_traitsIcEENS_9allocatorIcEEEEdNS_4lessIS6_EENS4_INS_4pairIKS6_dEEEEE6insertB8ue170006INS_20__map_const_iteratorINS_21__tree_const_iteratorINS_12__value_typeIS6_dEEPNS_11__tree_nodeISI_PvEElEEEEEEvT_SP_, symObjAddr: 0xD640, symBinAddr: 0x10000E934, symSize: 0x8C }
  - { offsetInCU: 0x2BC80, offset: 0x2BC80, size: 0x8, addend: 0x0, symName: __ZNKSt3__13mapINS_12basic_stringIcNS_11char_traitsIcEENS_9allocatorIcEEEEdNS_4lessIS6_EENS4_INS_4pairIKS6_dEEEEE5beginB8ue170006Ev, symObjAddr: 0xD6CC, symBinAddr: 0x10000E9C0, symSize: 0x38 }
  - { offsetInCU: 0x2BCA6, offset: 0x2BCA6, size: 0x8, addend: 0x0, symName: __ZNKSt3__13mapINS_12basic_stringIcNS_11char_traitsIcEENS_9allocatorIcEEEEdNS_4lessIS6_EENS4_INS_4pairIKS6_dEEEEE3endB8ue170006Ev, symObjAddr: 0xD704, symBinAddr: 0x10000E9F8, symSize: 0x38 }
  - { offsetInCU: 0x2BCCC, offset: 0x2BCCC, size: 0x8, addend: 0x0, symName: __ZNSt3__16__treeINS_12__value_typeINS_12basic_stringIcNS_11char_traitsIcEENS_9allocatorIcEEEEdEENS_19__map_value_compareIS7_S8_NS_4lessIS7_EELb1EEENS5_IS8_EEED1Ev, symObjAddr: 0xD73C, symBinAddr: 0x10000EA30, symSize: 0x2C }
  - { offsetInCU: 0x2BCF8, offset: 0x2BCF8, size: 0x8, addend: 0x0, symName: __ZNSt3__16__treeINS_12__value_typeINS_12basic_stringIcNS_11char_traitsIcEENS_9allocatorIcEEEEdEENS_19__map_value_compareIS7_S8_NS_4lessIS7_EELb1EEENS5_IS8_EEEC2ERKSE_, symObjAddr: 0xD768, symBinAddr: 0x10000EA5C, symSize: 0x9C }
  - { offsetInCU: 0x2BD3E, offset: 0x2BD3E, size: 0x8, addend: 0x0, symName: __ZNSt3__116allocator_traitsINS_9allocatorINS_11__tree_nodeINS_12__value_typeINS_12basic_stringIcNS_11char_traitsIcEENS1_IcEEEEdEEPvEEEEE37select_on_container_copy_constructionB8ue170006ISC_vvEESC_RKSC_, symObjAddr: 0xD804, symBinAddr: 0x10000EAF8, symSize: 0x10 }
  - { offsetInCU: 0x2BD6D, offset: 0x2BD6D, size: 0x8, addend: 0x0, symName: __ZNKSt3__16__treeINS_12__value_typeINS_12basic_stringIcNS_11char_traitsIcEENS_9allocatorIcEEEEdEENS_19__map_value_compareIS7_S8_NS_4lessIS7_EELb1EEENS5_IS8_EEE12__node_allocB8ue170006Ev, symObjAddr: 0xD814, symBinAddr: 0x10000EB08, symSize: 0x28 }
  - { offsetInCU: 0x2BD99, offset: 0x2BD99, size: 0x8, addend: 0x0, symName: __ZNSt3__117__compressed_pairINS_15__tree_end_nodeIPNS_16__tree_node_baseIPvEEEENS_9allocatorINS_11__tree_nodeINS_12__value_typeINS_12basic_stringIcNS_11char_traitsIcEENS7_IcEEEEdEES3_EEEEEC1B8ue170006INS_18__default_init_tagESH_EEOT_OT0_, symObjAddr: 0xD83C, symBinAddr: 0x10000EB30, symSize: 0x3C }
  - { offsetInCU: 0x2BDF1, offset: 0x2BDF1, size: 0x8, addend: 0x0, symName: __ZNKSt3__16__treeINS_12__value_typeINS_12basic_stringIcNS_11char_traitsIcEENS_9allocatorIcEEEEdEENS_19__map_value_compareIS7_S8_NS_4lessIS7_EELb1EEENS5_IS8_EEE10value_compB8ue170006Ev, symObjAddr: 0xD878, symBinAddr: 0x10000EB6C, symSize: 0x28 }
  - { offsetInCU: 0x2BE17, offset: 0x2BE17, size: 0x8, addend: 0x0, symName: __ZNSt3__117__compressed_pairImNS_19__map_value_compareINS_12basic_stringIcNS_11char_traitsIcEENS_9allocatorIcEEEENS_12__value_typeIS7_dEENS_4lessIS7_EELb1EEEEC1B8ue170006IiRKSC_EEOT_OT0_, symObjAddr: 0xD8A0, symBinAddr: 0x10000EB94, symSize: 0x3C }
  - { offsetInCU: 0x2BE6F, offset: 0x2BE6F, size: 0x8, addend: 0x0, symName: __ZNSt3__16__treeINS_12__value_typeINS_12basic_stringIcNS_11char_traitsIcEENS_9allocatorIcEEEEdEENS_19__map_value_compareIS7_S8_NS_4lessIS7_EELb1EEENS5_IS8_EEE10__end_nodeB8ue170006Ev, symObjAddr: 0xD8DC, symBinAddr: 0x10000EBD0, symSize: 0x2C }
  - { offsetInCU: 0x2BE95, offset: 0x2BE95, size: 0x8, addend: 0x0, symName: __ZNSt3__16__treeINS_12__value_typeINS_12basic_stringIcNS_11char_traitsIcEENS_9allocatorIcEEEEdEENS_19__map_value_compareIS7_S8_NS_4lessIS7_EELb1EEENS5_IS8_EEE12__begin_nodeB8ue170006Ev, symObjAddr: 0xD908, symBinAddr: 0x10000EBFC, symSize: 0x14 }
  - { offsetInCU: 0x2BEBB, offset: 0x2BEBB, size: 0x8, addend: 0x0, symName: __ZNKSt3__117__compressed_pairINS_15__tree_end_nodeIPNS_16__tree_node_baseIPvEEEENS_9allocatorINS_11__tree_nodeINS_12__value_typeINS_12basic_stringIcNS_11char_traitsIcEENS7_IcEEEEdEES3_EEEEE6secondB8ue170006Ev, symObjAddr: 0xD91C, symBinAddr: 0x10000EC10, symSize: 0x24 }
  - { offsetInCU: 0x2BEE1, offset: 0x2BEE1, size: 0x8, addend: 0x0, symName: __ZNKSt3__122__compressed_pair_elemINS_9allocatorINS_11__tree_nodeINS_12__value_typeINS_12basic_stringIcNS_11char_traitsIcEENS1_IcEEEEdEEPvEEEELi1ELb1EE5__getB8ue170006Ev, symObjAddr: 0xD940, symBinAddr: 0x10000EC34, symSize: 0x14 }
  - { offsetInCU: 0x2BF07, offset: 0x2BF07, size: 0x8, addend: 0x0, symName: __ZNSt3__117__compressed_pairINS_15__tree_end_nodeIPNS_16__tree_node_baseIPvEEEENS_9allocatorINS_11__tree_nodeINS_12__value_typeINS_12basic_stringIcNS_11char_traitsIcEENS7_IcEEEEdEES3_EEEEEC2B8ue170006INS_18__default_init_tagESH_EEOT_OT0_, symObjAddr: 0xD954, symBinAddr: 0x10000EC48, symSize: 0x40 }
  - { offsetInCU: 0x2BF5F, offset: 0x2BF5F, size: 0x8, addend: 0x0, symName: __ZNSt3__122__compressed_pair_elemINS_15__tree_end_nodeIPNS_16__tree_node_baseIPvEEEELi0ELb0EEC2B8ue170006ENS_18__default_init_tagE, symObjAddr: 0xD994, symBinAddr: 0x10000EC88, symSize: 0x2C }
  - { offsetInCU: 0x2BF94, offset: 0x2BF94, size: 0x8, addend: 0x0, symName: __ZNSt3__122__compressed_pair_elemINS_9allocatorINS_11__tree_nodeINS_12__value_typeINS_12basic_stringIcNS_11char_traitsIcEENS1_IcEEEEdEEPvEEEELi1ELb1EEC2B8ue170006ISC_vEEOT_, symObjAddr: 0xD9C0, symBinAddr: 0x10000ECB4, symSize: 0x18 }
  - { offsetInCU: 0x2BFD6, offset: 0x2BFD6, size: 0x8, addend: 0x0, symName: __ZNKSt3__117__compressed_pairImNS_19__map_value_compareINS_12basic_stringIcNS_11char_traitsIcEENS_9allocatorIcEEEENS_12__value_typeIS7_dEENS_4lessIS7_EELb1EEEE6secondB8ue170006Ev, symObjAddr: 0xD9D8, symBinAddr: 0x10000ECCC, symSize: 0x24 }
  - { offsetInCU: 0x2BFFC, offset: 0x2BFFC, size: 0x8, addend: 0x0, symName: __ZNKSt3__122__compressed_pair_elemINS_19__map_value_compareINS_12basic_stringIcNS_11char_traitsIcEENS_9allocatorIcEEEENS_12__value_typeIS7_dEENS_4lessIS7_EELb1EEELi1ELb1EE5__getB8ue170006Ev, symObjAddr: 0xD9FC, symBinAddr: 0x10000ECF0, symSize: 0x14 }
  - { offsetInCU: 0x2C022, offset: 0x2C022, size: 0x8, addend: 0x0, symName: __ZNSt3__117__compressed_pairImNS_19__map_value_compareINS_12basic_stringIcNS_11char_traitsIcEENS_9allocatorIcEEEENS_12__value_typeIS7_dEENS_4lessIS7_EELb1EEEEC2B8ue170006IiRKSC_EEOT_OT0_, symObjAddr: 0xDA10, symBinAddr: 0x10000ED04, symSize: 0x44 }
  - { offsetInCU: 0x2C07A, offset: 0x2C07A, size: 0x8, addend: 0x0, symName: __ZNSt3__122__compressed_pair_elemINS_19__map_value_compareINS_12basic_stringIcNS_11char_traitsIcEENS_9allocatorIcEEEENS_12__value_typeIS7_dEENS_4lessIS7_EELb1EEELi1ELb1EEC2B8ue170006IRKSC_vEEOT_, symObjAddr: 0xDA54, symBinAddr: 0x10000ED48, symSize: 0x18 }
  - { offsetInCU: 0x2C0BC, offset: 0x2C0BC, size: 0x8, addend: 0x0, symName: __ZNSt3__117__compressed_pairINS_15__tree_end_nodeIPNS_16__tree_node_baseIPvEEEENS_9allocatorINS_11__tree_nodeINS_12__value_typeINS_12basic_stringIcNS_11char_traitsIcEENS7_IcEEEEdEES3_EEEEE5firstB8ue170006Ev, symObjAddr: 0xDA6C, symBinAddr: 0x10000ED60, symSize: 0x24 }
  - { offsetInCU: 0x2C0E2, offset: 0x2C0E2, size: 0x8, addend: 0x0, symName: __ZNKSt3__13mapINS_12basic_stringIcNS_11char_traitsIcEENS_9allocatorIcEEEEdNS_4lessIS6_EENS4_INS_4pairIKS6_dEEEEE4cendB8ue170006Ev, symObjAddr: 0xDA90, symBinAddr: 0x10000ED84, symSize: 0x2C }
  - { offsetInCU: 0x2C108, offset: 0x2C108, size: 0x8, addend: 0x0, symName: __ZNSt3__13mapINS_12basic_stringIcNS_11char_traitsIcEENS_9allocatorIcEEEEdNS_4lessIS6_EENS4_INS_4pairIKS6_dEEEEE6insertB8ue170006ENS_20__map_const_iteratorINS_21__tree_const_iteratorINS_12__value_typeIS6_dEEPNS_11__tree_nodeISH_PvEElEEEERKSB_, symObjAddr: 0xDAEC, symBinAddr: 0x10000EDE0, symSize: 0x50 }
  - { offsetInCU: 0x2C14C, offset: 0x2C14C, size: 0x8, addend: 0x0, symName: __ZNSt3__120__map_const_iteratorINS_21__tree_const_iteratorINS_12__value_typeINS_12basic_stringIcNS_11char_traitsIcEENS_9allocatorIcEEEEdEEPNS_11__tree_nodeIS9_PvEElEEEC1B8ue170006ESE_, symObjAddr: 0xDB3C, symBinAddr: 0x10000EE30, symSize: 0x34 }
  - { offsetInCU: 0x2C185, offset: 0x2C185, size: 0x8, addend: 0x0, symName: __ZNKSt3__120__map_const_iteratorINS_21__tree_const_iteratorINS_12__value_typeINS_12basic_stringIcNS_11char_traitsIcEENS_9allocatorIcEEEEdEEPNS_11__tree_nodeIS9_PvEElEEEdeB8ue170006Ev, symObjAddr: 0xDB70, symBinAddr: 0x10000EE64, symSize: 0x28 }
  - { offsetInCU: 0x2C1AB, offset: 0x2C1AB, size: 0x8, addend: 0x0, symName: __ZNSt3__120__map_const_iteratorINS_21__tree_const_iteratorINS_12__value_typeINS_12basic_stringIcNS_11char_traitsIcEENS_9allocatorIcEEEEdEEPNS_11__tree_nodeIS9_PvEElEEEppB8ue170006Ev, symObjAddr: 0xDB98, symBinAddr: 0x10000EE8C, symSize: 0x2C }
  - { offsetInCU: 0x2C1D1, offset: 0x2C1D1, size: 0x8, addend: 0x0, symName: __ZNSt3__16__treeINS_12__value_typeINS_12basic_stringIcNS_11char_traitsIcEENS_9allocatorIcEEEEdEENS_19__map_value_compareIS7_S8_NS_4lessIS7_EELb1EEENS5_IS8_EEE15__insert_uniqueB8ue170006ENS_21__tree_const_iteratorIS8_PNS_11__tree_nodeIS8_PvEElEERKNS_4pairIKS7_dEE, symObjAddr: 0xDC28, symBinAddr: 0x10000EF1C, symSize: 0x64 }
  - { offsetInCU: 0x2C215, offset: 0x2C215, size: 0x8, addend: 0x0, symName: __ZNSt3__114__map_iteratorINS_15__tree_iteratorINS_12__value_typeINS_12basic_stringIcNS_11char_traitsIcEENS_9allocatorIcEEEEdEEPNS_11__tree_nodeIS9_PvEElEEEC1B8ue170006ESE_, symObjAddr: 0xDC8C, symBinAddr: 0x10000EF80, symSize: 0x34 }
  - { offsetInCU: 0x2C24E, offset: 0x2C24E, size: 0x8, addend: 0x0, symName: __ZNSt3__16__treeINS_12__value_typeINS_12basic_stringIcNS_11char_traitsIcEENS_9allocatorIcEEEEdEENS_19__map_value_compareIS7_S8_NS_4lessIS7_EELb1EEENS5_IS8_EEE30__emplace_hint_unique_key_argsIS7_JRKNS_4pairIKS7_dEEEEENSG_INS_15__tree_iteratorIS8_PNS_11__tree_nodeIS8_PvEElEEbEENS_21__tree_const_iteratorIS8_SP_lEERKT_DpOT0_, symObjAddr: 0xDCC0, symBinAddr: 0x10000EFB4, symSize: 0x104 }
  - { offsetInCU: 0x2C31A, offset: 0x2C31A, size: 0x8, addend: 0x0, symName: __ZNSt3__122__tree_key_value_typesINS_12__value_typeINS_12basic_stringIcNS_11char_traitsIcEENS_9allocatorIcEEEEdEEE9__get_keyB8ue170006IKNS_4pairIKS7_dEEEENS_9enable_ifIXsr17__is_same_uncvrefIT_SD_EE5valueERSC_E4typeERSG_, symObjAddr: 0xDDC4, symBinAddr: 0x10000F0B8, symSize: 0x14 }
  - { offsetInCU: 0x2C347, offset: 0x2C347, size: 0x8, addend: 0x0, symName: __ZNSt3__16__treeINS_12__value_typeINS_12basic_stringIcNS_11char_traitsIcEENS_9allocatorIcEEEEdEENS_19__map_value_compareIS7_S8_NS_4lessIS7_EELb1EEENS5_IS8_EEE12__find_equalIS7_EERPNS_16__tree_node_baseIPvEENS_21__tree_const_iteratorIS8_PNS_11__tree_nodeIS8_SH_EElEERPNS_15__tree_end_nodeISJ_EESK_RKT_, symObjAddr: 0xDDD8, symBinAddr: 0x10000F0CC, symSize: 0x304 }
  - { offsetInCU: 0x2C3F0, offset: 0x2C3F0, size: 0x8, addend: 0x0, symName: __ZNSt3__16__treeINS_12__value_typeINS_12basic_stringIcNS_11char_traitsIcEENS_9allocatorIcEEEEdEENS_19__map_value_compareIS7_S8_NS_4lessIS7_EELb1EEENS5_IS8_EEE16__construct_nodeIJRKNS_4pairIKS7_dEEEEENS_10unique_ptrINS_11__tree_nodeIS8_PvEENS_22__tree_node_destructorINS5_ISO_EEEEEEDpOT_, symObjAddr: 0xE0DC, symBinAddr: 0x10000F3D0, symSize: 0x110 }
  - { offsetInCU: 0x2C451, offset: 0x2C451, size: 0x8, addend: 0x0, symName: __ZNSt3__16__treeINS_12__value_typeINS_12basic_stringIcNS_11char_traitsIcEENS_9allocatorIcEEEEdEENS_19__map_value_compareIS7_S8_NS_4lessIS7_EELb1EEENS5_IS8_EEE16__insert_node_atEPNS_15__tree_end_nodeIPNS_16__tree_node_baseIPvEEEERSJ_SJ_, symObjAddr: 0xE1EC, symBinAddr: 0x10000F4E0, symSize: 0xCC }
  - { offsetInCU: 0x2C4A6, offset: 0x2C4A6, size: 0x8, addend: 0x0, symName: __ZNKSt3__110unique_ptrINS_11__tree_nodeINS_12__value_typeINS_12basic_stringIcNS_11char_traitsIcEENS_9allocatorIcEEEEdEEPvEENS_22__tree_node_destructorINS6_ISB_EEEEE3getB8ue170006Ev, symObjAddr: 0xE2B8, symBinAddr: 0x10000F5AC, symSize: 0x28 }
  - { offsetInCU: 0x2C4CC, offset: 0x2C4CC, size: 0x8, addend: 0x0, symName: __ZNSt3__110unique_ptrINS_11__tree_nodeINS_12__value_typeINS_12basic_stringIcNS_11char_traitsIcEENS_9allocatorIcEEEEdEEPvEENS_22__tree_node_destructorINS6_ISB_EEEEE7releaseB8ue170006Ev, symObjAddr: 0xE2E0, symBinAddr: 0x10000F5D4, symSize: 0x44 }
  - { offsetInCU: 0x2C501, offset: 0x2C501, size: 0x8, addend: 0x0, symName: __ZNSt3__110unique_ptrINS_11__tree_nodeINS_12__value_typeINS_12basic_stringIcNS_11char_traitsIcEENS_9allocatorIcEEEEdEEPvEENS_22__tree_node_destructorINS6_ISB_EEEEED1B8ue170006Ev, symObjAddr: 0xE324, symBinAddr: 0x10000F618, symSize: 0x2C }
  - { offsetInCU: 0x2C52B, offset: 0x2C52B, size: 0x8, addend: 0x0, symName: __ZNSt3__115__tree_iteratorINS_12__value_typeINS_12basic_stringIcNS_11char_traitsIcEENS_9allocatorIcEEEEdEEPNS_11__tree_nodeIS8_PvEElEC1B8ue170006ESC_, symObjAddr: 0xE350, symBinAddr: 0x10000F644, symSize: 0x34 }
  - { offsetInCU: 0x2C56A, offset: 0x2C56A, size: 0x8, addend: 0x0, symName: __ZNSt3__14pairINS_15__tree_iteratorINS_12__value_typeINS_12basic_stringIcNS_11char_traitsIcEENS_9allocatorIcEEEEdEEPNS_11__tree_nodeIS9_PvEElEEbEC1B8ue170006ISE_RbLSB_0EEEOT_OT0_, symObjAddr: 0xE384, symBinAddr: 0x10000F678, symSize: 0x3C }
  - { offsetInCU: 0x2C5C8, offset: 0x2C5C8, size: 0x8, addend: 0x0, symName: __ZNSt3__16__treeINS_12__value_typeINS_12basic_stringIcNS_11char_traitsIcEENS_9allocatorIcEEEEdEENS_19__map_value_compareIS7_S8_NS_4lessIS7_EELb1EEENS5_IS8_EEE3endB8ue170006Ev, symObjAddr: 0xE3C0, symBinAddr: 0x10000F6B4, symSize: 0x34 }
  - { offsetInCU: 0x2C5EE, offset: 0x2C5EE, size: 0x8, addend: 0x0, symName: __ZNSt3__121__tree_const_iteratorINS_12__value_typeINS_12basic_stringIcNS_11char_traitsIcEENS_9allocatorIcEEEEdEEPNS_11__tree_nodeIS8_PvEElEC1B8ue170006ENS_15__tree_iteratorIS8_SC_lEE, symObjAddr: 0xE3F4, symBinAddr: 0x10000F6E8, symSize: 0x34 }
  - { offsetInCU: 0x2C627, offset: 0x2C627, size: 0x8, addend: 0x0, symName: __ZNSt3__16__treeINS_12__value_typeINS_12basic_stringIcNS_11char_traitsIcEENS_9allocatorIcEEEEdEENS_19__map_value_compareIS7_S8_NS_4lessIS7_EELb1EEENS5_IS8_EEE10value_compB8ue170006Ev, symObjAddr: 0xE428, symBinAddr: 0x10000F71C, symSize: 0x28 }
  - { offsetInCU: 0x2C64D, offset: 0x2C64D, size: 0x8, addend: 0x0, symName: __ZNKSt3__119__map_value_compareINS_12basic_stringIcNS_11char_traitsIcEENS_9allocatorIcEEEENS_12__value_typeIS6_dEENS_4lessIS6_EELb1EEclB8ue170006ERKS6_RKS8_, symObjAddr: 0xE450, symBinAddr: 0x10000F744, symSize: 0x50 }
  - { offsetInCU: 0x2C691, offset: 0x2C691, size: 0x8, addend: 0x0, symName: __ZNKSt3__121__tree_const_iteratorINS_12__value_typeINS_12basic_stringIcNS_11char_traitsIcEENS_9allocatorIcEEEEdEEPNS_11__tree_nodeIS8_PvEElEdeB8ue170006Ev, symObjAddr: 0xE4A0, symBinAddr: 0x10000F794, symSize: 0x28 }
  - { offsetInCU: 0x2C6B7, offset: 0x2C6B7, size: 0x8, addend: 0x0, symName: __ZNSt3__16__treeINS_12__value_typeINS_12basic_stringIcNS_11char_traitsIcEENS_9allocatorIcEEEEdEENS_19__map_value_compareIS7_S8_NS_4lessIS7_EELb1EEENS5_IS8_EEE5beginB8ue170006Ev, symObjAddr: 0xE4C8, symBinAddr: 0x10000F7BC, symSize: 0x34 }
  - { offsetInCU: 0x2C6DD, offset: 0x2C6DD, size: 0x8, addend: 0x0, symName: __ZNKSt3__119__map_value_compareINS_12basic_stringIcNS_11char_traitsIcEENS_9allocatorIcEEEENS_12__value_typeIS6_dEENS_4lessIS6_EELb1EEclB8ue170006ERKS8_RKS6_, symObjAddr: 0xE4FC, symBinAddr: 0x10000F7F0, symSize: 0x48 }
  - { offsetInCU: 0x2C721, offset: 0x2C721, size: 0x8, addend: 0x0, symName: __ZNSt3__121__tree_const_iteratorINS_12__value_typeINS_12basic_stringIcNS_11char_traitsIcEENS_9allocatorIcEEEEdEEPNS_11__tree_nodeIS8_PvEElEmmB8ue170006Ev, symObjAddr: 0xE544, symBinAddr: 0x10000F838, symSize: 0x38 }
  - { offsetInCU: 0x2C747, offset: 0x2C747, size: 0x8, addend: 0x0, symName: __ZNSt3__16__treeINS_12__value_typeINS_12basic_stringIcNS_11char_traitsIcEENS_9allocatorIcEEEEdEENS_19__map_value_compareIS7_S8_NS_4lessIS7_EELb1EEENS5_IS8_EEE12__find_equalIS7_EERPNS_16__tree_node_baseIPvEERPNS_15__tree_end_nodeISJ_EERKT_, symObjAddr: 0xE57C, symBinAddr: 0x10000F870, symSize: 0x184 }
  - { offsetInCU: 0x2C7B4, offset: 0x2C7B4, size: 0x8, addend: 0x0, symName: __ZNKSt3__121__tree_const_iteratorINS_12__value_typeINS_12basic_stringIcNS_11char_traitsIcEENS_9allocatorIcEEEEdEEPNS_11__tree_nodeIS8_PvEElE8__get_npB8ue170006Ev, symObjAddr: 0xE73C, symBinAddr: 0x10000FA30, symSize: 0x18 }
  - { offsetInCU: 0x2C7DA, offset: 0x2C7DA, size: 0x8, addend: 0x0, symName: __ZNSt3__115__tree_iteratorINS_12__value_typeINS_12basic_stringIcNS_11char_traitsIcEENS_9allocatorIcEEEEdEEPNS_11__tree_nodeIS8_PvEElEC1B8ue170006EPNS_15__tree_end_nodeIPNS_16__tree_node_baseISA_EEEE, symObjAddr: 0xE754, symBinAddr: 0x10000FA48, symSize: 0x34 }
  - { offsetInCU: 0x2C813, offset: 0x2C813, size: 0x8, addend: 0x0, symName: __ZNSt3__115__tree_iteratorINS_12__value_typeINS_12basic_stringIcNS_11char_traitsIcEENS_9allocatorIcEEEEdEEPNS_11__tree_nodeIS8_PvEElEC2B8ue170006EPNS_15__tree_end_nodeIPNS_16__tree_node_baseISA_EEEE, symObjAddr: 0xE788, symBinAddr: 0x10000FA7C, symSize: 0x20 }
  - { offsetInCU: 0x2C84C, offset: 0x2C84C, size: 0x8, addend: 0x0, symName: __ZNSt3__121__tree_const_iteratorINS_12__value_typeINS_12basic_stringIcNS_11char_traitsIcEENS_9allocatorIcEEEEdEEPNS_11__tree_nodeIS8_PvEElEC2B8ue170006ENS_15__tree_iteratorIS8_SC_lEE, symObjAddr: 0xE7A8, symBinAddr: 0x10000FA9C, symSize: 0x20 }
  - { offsetInCU: 0x2C885, offset: 0x2C885, size: 0x8, addend: 0x0, symName: __ZNSt3__117__compressed_pairImNS_19__map_value_compareINS_12basic_stringIcNS_11char_traitsIcEENS_9allocatorIcEEEENS_12__value_typeIS7_dEENS_4lessIS7_EELb1EEEE6secondB8ue170006Ev, symObjAddr: 0xE7C8, symBinAddr: 0x10000FABC, symSize: 0x24 }
  - { offsetInCU: 0x2C8AB, offset: 0x2C8AB, size: 0x8, addend: 0x0, symName: __ZNSt3__122__compressed_pair_elemINS_19__map_value_compareINS_12basic_stringIcNS_11char_traitsIcEENS_9allocatorIcEEEENS_12__value_typeIS7_dEENS_4lessIS7_EELb1EEELi1ELb1EE5__getB8ue170006Ev, symObjAddr: 0xE7EC, symBinAddr: 0x10000FAE0, symSize: 0x14 }
  - { offsetInCU: 0x2C8D1, offset: 0x2C8D1, size: 0x8, addend: 0x0, symName: __ZNKSt3__112__value_typeINS_12basic_stringIcNS_11char_traitsIcEENS_9allocatorIcEEEEdE11__get_valueB8ue170006Ev, symObjAddr: 0xE800, symBinAddr: 0x10000FAF4, symSize: 0x24 }
  - { offsetInCU: 0x2C8F7, offset: 0x2C8F7, size: 0x8, addend: 0x0, symName: __ZNKSt3__16__treeINS_12__value_typeINS_12basic_stringIcNS_11char_traitsIcEENS_9allocatorIcEEEEdEENS_19__map_value_compareIS7_S8_NS_4lessIS7_EELb1EEENS5_IS8_EEE6__rootB8ue170006Ev, symObjAddr: 0xE924, symBinAddr: 0x10000FC18, symSize: 0x28 }
  - { offsetInCU: 0x2C91D, offset: 0x2C91D, size: 0x8, addend: 0x0, symName: __ZNKSt3__16__treeINS_12__value_typeINS_12basic_stringIcNS_11char_traitsIcEENS_9allocatorIcEEEEdEENS_19__map_value_compareIS7_S8_NS_4lessIS7_EELb1EEENS5_IS8_EEE10__root_ptrB8ue170006Ev, symObjAddr: 0xE94C, symBinAddr: 0x10000FC40, symSize: 0x24 }
  - { offsetInCU: 0x2C943, offset: 0x2C943, size: 0x8, addend: 0x0, symName: __ZNKSt3__16__treeINS_12__value_typeINS_12basic_stringIcNS_11char_traitsIcEENS_9allocatorIcEEEEdEENS_19__map_value_compareIS7_S8_NS_4lessIS7_EELb1EEENS5_IS8_EEE10__end_nodeB8ue170006Ev, symObjAddr: 0xE970, symBinAddr: 0x10000FC64, symSize: 0x2C }
  - { offsetInCU: 0x2C969, offset: 0x2C969, size: 0x8, addend: 0x0, symName: __ZNKSt3__117__compressed_pairINS_15__tree_end_nodeIPNS_16__tree_node_baseIPvEEEENS_9allocatorINS_11__tree_nodeINS_12__value_typeINS_12basic_stringIcNS_11char_traitsIcEENS7_IcEEEEdEES3_EEEEE5firstB8ue170006Ev, symObjAddr: 0xE99C, symBinAddr: 0x10000FC90, symSize: 0x24 }
  - { offsetInCU: 0x2C98F, offset: 0x2C98F, size: 0x8, addend: 0x0, symName: __ZNSt3__121__tree_const_iteratorINS_12__value_typeINS_12basic_stringIcNS_11char_traitsIcEENS_9allocatorIcEEEEdEEPNS_11__tree_nodeIS8_PvEElEppB8ue170006Ev, symObjAddr: 0xEAB0, symBinAddr: 0x10000FDA4, symSize: 0x38 }
  - { offsetInCU: 0x2C9B5, offset: 0x2C9B5, size: 0x8, addend: 0x0, symName: __ZNSt3__16__treeINS_12__value_typeINS_12basic_stringIcNS_11char_traitsIcEENS_9allocatorIcEEEEdEENS_19__map_value_compareIS7_S8_NS_4lessIS7_EELb1EEENS5_IS8_EEE12__node_allocB8ue170006Ev, symObjAddr: 0xEBA8, symBinAddr: 0x10000FE9C, symSize: 0x28 }
  - { offsetInCU: 0x2C9DB, offset: 0x2C9DB, size: 0x8, addend: 0x0, symName: __ZNSt3__116allocator_traitsINS_9allocatorINS_11__tree_nodeINS_12__value_typeINS_12basic_stringIcNS_11char_traitsIcEENS1_IcEEEEdEEPvEEEEE8allocateB8ue170006ERSC_m, symObjAddr: 0xEBD0, symBinAddr: 0x10000FEC4, symSize: 0x2C }
  - { offsetInCU: 0x2CA0E, offset: 0x2CA0E, size: 0x8, addend: 0x0, symName: __ZNSt3__122__tree_node_destructorINS_9allocatorINS_11__tree_nodeINS_12__value_typeINS_12basic_stringIcNS_11char_traitsIcEENS1_IcEEEEdEEPvEEEEEC1B8ue170006ERSC_b, symObjAddr: 0xEBFC, symBinAddr: 0x10000FEF0, symSize: 0x48 }
  - { offsetInCU: 0x2CA5C, offset: 0x2CA5C, size: 0x8, addend: 0x0, symName: __ZNSt3__110unique_ptrINS_11__tree_nodeINS_12__value_typeINS_12basic_stringIcNS_11char_traitsIcEENS_9allocatorIcEEEEdEEPvEENS_22__tree_node_destructorINS6_ISB_EEEEEC1B8ue170006ILb1EvEEPSB_NS_16__dependent_typeINS_27__unique_ptr_deleter_sfinaeISE_EEXT_EE20__good_rval_ref_typeE, symObjAddr: 0xEC44, symBinAddr: 0x10000FF38, symSize: 0x3C }
  - { offsetInCU: 0x2CAAD, offset: 0x2CAAD, size: 0x8, addend: 0x0, symName: __ZNSt3__116allocator_traitsINS_9allocatorINS_11__tree_nodeINS_12__value_typeINS_12basic_stringIcNS_11char_traitsIcEENS1_IcEEEEdEEPvEEEEE9constructB8ue170006INS_4pairIKS8_dEEJRKSH_EvvEEvRSC_PT_DpOT0_, symObjAddr: 0xEC80, symBinAddr: 0x10000FF74, symSize: 0x30 }
  - { offsetInCU: 0x2CB01, offset: 0x2CB01, size: 0x8, addend: 0x0, symName: __ZNSt3__122__tree_key_value_typesINS_12__value_typeINS_12basic_stringIcNS_11char_traitsIcEENS_9allocatorIcEEEEdEEE9__get_ptrB8ue170006ERS8_, symObjAddr: 0xECB0, symBinAddr: 0x10000FFA4, symSize: 0x24 }
  - { offsetInCU: 0x2CB25, offset: 0x2CB25, size: 0x8, addend: 0x0, symName: __ZNKSt3__110unique_ptrINS_11__tree_nodeINS_12__value_typeINS_12basic_stringIcNS_11char_traitsIcEENS_9allocatorIcEEEEdEEPvEENS_22__tree_node_destructorINS6_ISB_EEEEEptB8ue170006Ev, symObjAddr: 0xECD4, symBinAddr: 0x10000FFC8, symSize: 0x28 }
  - { offsetInCU: 0x2CB4B, offset: 0x2CB4B, size: 0x8, addend: 0x0, symName: __ZNSt3__110unique_ptrINS_11__tree_nodeINS_12__value_typeINS_12basic_stringIcNS_11char_traitsIcEENS_9allocatorIcEEEEdEEPvEENS_22__tree_node_destructorINS6_ISB_EEEEE11get_deleterB8ue170006Ev, symObjAddr: 0xECFC, symBinAddr: 0x10000FFF0, symSize: 0x24 }
  - { offsetInCU: 0x2CB71, offset: 0x2CB71, size: 0x8, addend: 0x0, symName: __ZNSt3__117__compressed_pairINS_15__tree_end_nodeIPNS_16__tree_node_baseIPvEEEENS_9allocatorINS_11__tree_nodeINS_12__value_typeINS_12basic_stringIcNS_11char_traitsIcEENS7_IcEEEEdEES3_EEEEE6secondB8ue170006Ev, symObjAddr: 0xED20, symBinAddr: 0x100010014, symSize: 0x24 }
  - { offsetInCU: 0x2CB97, offset: 0x2CB97, size: 0x8, addend: 0x0, symName: __ZNSt3__122__compressed_pair_elemINS_9allocatorINS_11__tree_nodeINS_12__value_typeINS_12basic_stringIcNS_11char_traitsIcEENS1_IcEEEEdEEPvEEEELi1ELb1EE5__getB8ue170006Ev, symObjAddr: 0xED44, symBinAddr: 0x100010038, symSize: 0x14 }
  - { offsetInCU: 0x2CBBD, offset: 0x2CBBD, size: 0x8, addend: 0x0, symName: __ZNSt3__19allocatorINS_11__tree_nodeINS_12__value_typeINS_12basic_stringIcNS_11char_traitsIcEENS0_IcEEEEdEEPvEEE8allocateB8ue170006Em, symObjAddr: 0xED58, symBinAddr: 0x10001004C, symSize: 0x58 }
  - { offsetInCU: 0x2CBF1, offset: 0x2CBF1, size: 0x8, addend: 0x0, symName: __ZNSt3__116allocator_traitsINS_9allocatorINS_11__tree_nodeINS_12__value_typeINS_12basic_stringIcNS_11char_traitsIcEENS1_IcEEEEdEEPvEEEEE8max_sizeB8ue170006ISC_vvEEmRKSC_, symObjAddr: 0xEDB0, symBinAddr: 0x1000100A4, symSize: 0x28 }
  - { offsetInCU: 0x2CC1C, offset: 0x2CC1C, size: 0x8, addend: 0x0, symName: __ZNSt3__122__tree_node_destructorINS_9allocatorINS_11__tree_nodeINS_12__value_typeINS_12basic_stringIcNS_11char_traitsIcEENS1_IcEEEEdEEPvEEEEEC2B8ue170006ERSC_b, symObjAddr: 0xEDD8, symBinAddr: 0x1000100CC, symSize: 0x38 }
  - { offsetInCU: 0x2CC64, offset: 0x2CC64, size: 0x8, addend: 0x0, symName: __ZNSt3__110unique_ptrINS_11__tree_nodeINS_12__value_typeINS_12basic_stringIcNS_11char_traitsIcEENS_9allocatorIcEEEEdEEPvEENS_22__tree_node_destructorINS6_ISB_EEEEEC2B8ue170006ILb1EvEEPSB_NS_16__dependent_typeINS_27__unique_ptr_deleter_sfinaeISE_EEXT_EE20__good_rval_ref_typeE, symObjAddr: 0xEE10, symBinAddr: 0x100010104, symSize: 0x48 }
  - { offsetInCU: 0x2CCB5, offset: 0x2CCB5, size: 0x8, addend: 0x0, symName: __ZNSt3__117__compressed_pairIPNS_11__tree_nodeINS_12__value_typeINS_12basic_stringIcNS_11char_traitsIcEENS_9allocatorIcEEEEdEEPvEENS_22__tree_node_destructorINS6_ISB_EEEEEC1B8ue170006IRSC_SF_EEOT_OT0_, symObjAddr: 0xEE58, symBinAddr: 0x10001014C, symSize: 0x3C }
  - { offsetInCU: 0x2CD0D, offset: 0x2CD0D, size: 0x8, addend: 0x0, symName: __ZNSt3__117__compressed_pairIPNS_11__tree_nodeINS_12__value_typeINS_12basic_stringIcNS_11char_traitsIcEENS_9allocatorIcEEEEdEEPvEENS_22__tree_node_destructorINS6_ISB_EEEEEC2B8ue170006IRSC_SF_EEOT_OT0_, symObjAddr: 0xEE94, symBinAddr: 0x100010188, symSize: 0x48 }
  - { offsetInCU: 0x2CD65, offset: 0x2CD65, size: 0x8, addend: 0x0, symName: __ZNSt3__122__compressed_pair_elemIPNS_11__tree_nodeINS_12__value_typeINS_12basic_stringIcNS_11char_traitsIcEENS_9allocatorIcEEEEdEEPvEELi0ELb0EEC2B8ue170006IRSC_vEEOT_, symObjAddr: 0xEEDC, symBinAddr: 0x1000101D0, symSize: 0x24 }
  - { offsetInCU: 0x2CDA7, offset: 0x2CDA7, size: 0x8, addend: 0x0, symName: __ZNSt3__122__compressed_pair_elemINS_22__tree_node_destructorINS_9allocatorINS_11__tree_nodeINS_12__value_typeINS_12basic_stringIcNS_11char_traitsIcEENS2_IcEEEEdEEPvEEEEEELi1ELb0EEC2B8ue170006ISE_vEEOT_, symObjAddr: 0xEF00, symBinAddr: 0x1000101F4, symSize: 0x24 }
  - { offsetInCU: 0x2CDE9, offset: 0x2CDE9, size: 0x8, addend: 0x0, symName: __ZNSt3__14pairIKNS_12basic_stringIcNS_11char_traitsIcEENS_9allocatorIcEEEEdEC1B8ue170006ERKS8_, symObjAddr: 0xEF60, symBinAddr: 0x100010254, symSize: 0x34 }
  - { offsetInCU: 0x2CE1E, offset: 0x2CE1E, size: 0x8, addend: 0x0, symName: __ZNSt3__14pairIKNS_12basic_stringIcNS_11char_traitsIcEENS_9allocatorIcEEEEdEC2B8ue170006ERKS8_, symObjAddr: 0xEF94, symBinAddr: 0x100010288, symSize: 0x40 }
  - { offsetInCU: 0x2CE53, offset: 0x2CE53, size: 0x8, addend: 0x0, symName: __ZNSt3__112__value_typeINS_12basic_stringIcNS_11char_traitsIcEENS_9allocatorIcEEEEdE11__get_valueB8ue170006Ev, symObjAddr: 0xEFD4, symBinAddr: 0x1000102C8, symSize: 0x24 }
  - { offsetInCU: 0x2CE79, offset: 0x2CE79, size: 0x8, addend: 0x0, symName: __ZNKSt3__117__compressed_pairIPNS_11__tree_nodeINS_12__value_typeINS_12basic_stringIcNS_11char_traitsIcEENS_9allocatorIcEEEEdEEPvEENS_22__tree_node_destructorINS6_ISB_EEEEE5firstB8ue170006Ev, symObjAddr: 0xF030, symBinAddr: 0x100010324, symSize: 0x24 }
  - { offsetInCU: 0x2CE9F, offset: 0x2CE9F, size: 0x8, addend: 0x0, symName: __ZNKSt3__122__compressed_pair_elemIPNS_11__tree_nodeINS_12__value_typeINS_12basic_stringIcNS_11char_traitsIcEENS_9allocatorIcEEEEdEEPvEELi0ELb0EE5__getB8ue170006Ev, symObjAddr: 0xF054, symBinAddr: 0x100010348, symSize: 0x14 }
  - { offsetInCU: 0x2CEC5, offset: 0x2CEC5, size: 0x8, addend: 0x0, symName: __ZNSt3__117__compressed_pairIPNS_11__tree_nodeINS_12__value_typeINS_12basic_stringIcNS_11char_traitsIcEENS_9allocatorIcEEEEdEEPvEENS_22__tree_node_destructorINS6_ISB_EEEEE6secondB8ue170006Ev, symObjAddr: 0xF068, symBinAddr: 0x10001035C, symSize: 0x28 }
  - { offsetInCU: 0x2CEEB, offset: 0x2CEEB, size: 0x8, addend: 0x0, symName: __ZNSt3__122__compressed_pair_elemINS_22__tree_node_destructorINS_9allocatorINS_11__tree_nodeINS_12__value_typeINS_12basic_stringIcNS_11char_traitsIcEENS2_IcEEEEdEEPvEEEEEELi1ELb0EE5__getB8ue170006Ev, symObjAddr: 0xF090, symBinAddr: 0x100010384, symSize: 0x14 }
  - { offsetInCU: 0x2CF11, offset: 0x2CF11, size: 0x8, addend: 0x0, symName: __ZNSt3__16__treeINS_12__value_typeINS_12basic_stringIcNS_11char_traitsIcEENS_9allocatorIcEEEEdEENS_19__map_value_compareIS7_S8_NS_4lessIS7_EELb1EEENS5_IS8_EEE4sizeB8ue170006Ev, symObjAddr: 0xF0A4, symBinAddr: 0x100010398, symSize: 0x28 }
  - { offsetInCU: 0x2CF37, offset: 0x2CF37, size: 0x8, addend: 0x0, symName: __ZNSt3__117__compressed_pairImNS_19__map_value_compareINS_12basic_stringIcNS_11char_traitsIcEENS_9allocatorIcEEEENS_12__value_typeIS7_dEENS_4lessIS7_EELb1EEEE5firstB8ue170006Ev, symObjAddr: 0xF0CC, symBinAddr: 0x1000103C0, symSize: 0x24 }
  - { offsetInCU: 0x2CF5D, offset: 0x2CF5D, size: 0x8, addend: 0x0, symName: __ZNSt3__117__compressed_pairIPNS_11__tree_nodeINS_12__value_typeINS_12basic_stringIcNS_11char_traitsIcEENS_9allocatorIcEEEEdEEPvEENS_22__tree_node_destructorINS6_ISB_EEEEE5firstB8ue170006Ev, symObjAddr: 0xF0F0, symBinAddr: 0x1000103E4, symSize: 0x24 }
  - { offsetInCU: 0x2CF83, offset: 0x2CF83, size: 0x8, addend: 0x0, symName: __ZNSt3__122__compressed_pair_elemIPNS_11__tree_nodeINS_12__value_typeINS_12basic_stringIcNS_11char_traitsIcEENS_9allocatorIcEEEEdEEPvEELi0ELb0EE5__getB8ue170006Ev, symObjAddr: 0xF114, symBinAddr: 0x100010408, symSize: 0x14 }
  - { offsetInCU: 0x2CFA9, offset: 0x2CFA9, size: 0x8, addend: 0x0, symName: __ZNSt3__110unique_ptrINS_11__tree_nodeINS_12__value_typeINS_12basic_stringIcNS_11char_traitsIcEENS_9allocatorIcEEEEdEEPvEENS_22__tree_node_destructorINS6_ISB_EEEEED2B8ue170006Ev, symObjAddr: 0xF128, symBinAddr: 0x10001041C, symSize: 0x30 }
  - { offsetInCU: 0x2CFD3, offset: 0x2CFD3, size: 0x8, addend: 0x0, symName: __ZNSt3__110unique_ptrINS_11__tree_nodeINS_12__value_typeINS_12basic_stringIcNS_11char_traitsIcEENS_9allocatorIcEEEEdEEPvEENS_22__tree_node_destructorINS6_ISB_EEEEE5resetB8ue170006EPSB_, symObjAddr: 0xF158, symBinAddr: 0x10001044C, symSize: 0x78 }
  - { offsetInCU: 0x2D017, offset: 0x2D017, size: 0x8, addend: 0x0, symName: __ZNSt3__122__tree_node_destructorINS_9allocatorINS_11__tree_nodeINS_12__value_typeINS_12basic_stringIcNS_11char_traitsIcEENS1_IcEEEEdEEPvEEEEEclB8ue170006EPSB_, symObjAddr: 0xF1D0, symBinAddr: 0x1000104C4, symSize: 0x98 }
  - { offsetInCU: 0x2D04C, offset: 0x2D04C, size: 0x8, addend: 0x0, symName: __ZNSt3__116allocator_traitsINS_9allocatorINS_11__tree_nodeINS_12__value_typeINS_12basic_stringIcNS_11char_traitsIcEENS1_IcEEEEdEEPvEEEEE7destroyB8ue170006INS_4pairIKS8_dEEvvEEvRSC_PT_, symObjAddr: 0xF268, symBinAddr: 0x10001055C, symSize: 0x28 }
  - { offsetInCU: 0x2D086, offset: 0x2D086, size: 0x8, addend: 0x0, symName: __ZNSt3__116allocator_traitsINS_9allocatorINS_11__tree_nodeINS_12__value_typeINS_12basic_stringIcNS_11char_traitsIcEENS1_IcEEEEdEEPvEEEEE10deallocateB8ue170006ERSC_PSB_m, symObjAddr: 0xF290, symBinAddr: 0x100010584, symSize: 0x34 }
  - { offsetInCU: 0x2D0C8, offset: 0x2D0C8, size: 0x8, addend: 0x0, symName: __ZNSt3__19allocatorINS_11__tree_nodeINS_12__value_typeINS_12basic_stringIcNS_11char_traitsIcEENS0_IcEEEEdEEPvEEE10deallocateB8ue170006EPSA_m, symObjAddr: 0xF30C, symBinAddr: 0x100010600, symSize: 0x40 }
  - { offsetInCU: 0x2D10A, offset: 0x2D10A, size: 0x8, addend: 0x0, symName: __ZNSt3__115__tree_iteratorINS_12__value_typeINS_12basic_stringIcNS_11char_traitsIcEENS_9allocatorIcEEEEdEEPNS_11__tree_nodeIS8_PvEElEC2B8ue170006ESC_, symObjAddr: 0xF34C, symBinAddr: 0x100010640, symSize: 0x20 }
  - { offsetInCU: 0x2D143, offset: 0x2D143, size: 0x8, addend: 0x0, symName: __ZNSt3__14pairINS_15__tree_iteratorINS_12__value_typeINS_12basic_stringIcNS_11char_traitsIcEENS_9allocatorIcEEEEdEEPNS_11__tree_nodeIS9_PvEElEEbEC2B8ue170006ISE_RbLSB_0EEEOT_OT0_, symObjAddr: 0xF36C, symBinAddr: 0x100010660, symSize: 0x38 }
  - { offsetInCU: 0x2D1A1, offset: 0x2D1A1, size: 0x8, addend: 0x0, symName: __ZNSt3__114__map_iteratorINS_15__tree_iteratorINS_12__value_typeINS_12basic_stringIcNS_11char_traitsIcEENS_9allocatorIcEEEEdEEPNS_11__tree_nodeIS9_PvEElEEEC2B8ue170006ESE_, symObjAddr: 0xF3A4, symBinAddr: 0x100010698, symSize: 0x20 }
  - { offsetInCU: 0x2D1DA, offset: 0x2D1DA, size: 0x8, addend: 0x0, symName: __ZNSt3__120__map_const_iteratorINS_21__tree_const_iteratorINS_12__value_typeINS_12basic_stringIcNS_11char_traitsIcEENS_9allocatorIcEEEEdEEPNS_11__tree_nodeIS9_PvEElEEEC2B8ue170006ESE_, symObjAddr: 0xF3C4, symBinAddr: 0x1000106B8, symSize: 0x20 }
  - { offsetInCU: 0x2D213, offset: 0x2D213, size: 0x8, addend: 0x0, symName: __ZNKSt3__121__tree_const_iteratorINS_12__value_typeINS_12basic_stringIcNS_11char_traitsIcEENS_9allocatorIcEEEEdEEPNS_11__tree_nodeIS8_PvEElEptB8ue170006Ev, symObjAddr: 0xF3E4, symBinAddr: 0x1000106D8, symSize: 0x2C }
  - { offsetInCU: 0x2D239, offset: 0x2D239, size: 0x8, addend: 0x0, symName: __ZNSt3__114pointer_traitsIPKNS_12__value_typeINS_12basic_stringIcNS_11char_traitsIcEENS_9allocatorIcEEEEdEEE10pointer_toB8ue170006ERS9_, symObjAddr: 0xF410, symBinAddr: 0x100010704, symSize: 0x14 }
  - { offsetInCU: 0x2D25C, offset: 0x2D25C, size: 0x8, addend: 0x0, symName: __ZNKSt3__16__treeINS_12__value_typeINS_12basic_stringIcNS_11char_traitsIcEENS_9allocatorIcEEEEdEENS_19__map_value_compareIS7_S8_NS_4lessIS7_EELb1EEENS5_IS8_EEE5beginB8ue170006Ev, symObjAddr: 0xF424, symBinAddr: 0x100010718, symSize: 0x34 }
  - { offsetInCU: 0x2D282, offset: 0x2D282, size: 0x8, addend: 0x0, symName: __ZNKSt3__16__treeINS_12__value_typeINS_12basic_stringIcNS_11char_traitsIcEENS_9allocatorIcEEEEdEENS_19__map_value_compareIS7_S8_NS_4lessIS7_EELb1EEENS5_IS8_EEE12__begin_nodeB8ue170006Ev, symObjAddr: 0xF458, symBinAddr: 0x10001074C, symSize: 0x14 }
  - { offsetInCU: 0x2D2A8, offset: 0x2D2A8, size: 0x8, addend: 0x0, symName: __ZNSt3__121__tree_const_iteratorINS_12__value_typeINS_12basic_stringIcNS_11char_traitsIcEENS_9allocatorIcEEEEdEEPNS_11__tree_nodeIS8_PvEElEC1B8ue170006EPNS_15__tree_end_nodeIPNS_16__tree_node_baseISA_EEEE, symObjAddr: 0xF46C, symBinAddr: 0x100010760, symSize: 0x34 }
  - { offsetInCU: 0x2D2E1, offset: 0x2D2E1, size: 0x8, addend: 0x0, symName: __ZNSt3__121__tree_const_iteratorINS_12__value_typeINS_12basic_stringIcNS_11char_traitsIcEENS_9allocatorIcEEEEdEEPNS_11__tree_nodeIS8_PvEElEC2B8ue170006EPNS_15__tree_end_nodeIPNS_16__tree_node_baseISA_EEEE, symObjAddr: 0xF4A0, symBinAddr: 0x100010794, symSize: 0x20 }
  - { offsetInCU: 0x2D31A, offset: 0x2D31A, size: 0x8, addend: 0x0, symName: __ZNKSt3__16__treeINS_12__value_typeINS_12basic_stringIcNS_11char_traitsIcEENS_9allocatorIcEEEEdEENS_19__map_value_compareIS7_S8_NS_4lessIS7_EELb1EEENS5_IS8_EEE3endB8ue170006Ev, symObjAddr: 0xF4C0, symBinAddr: 0x1000107B4, symSize: 0x34 }
  - { offsetInCU: 0x2D340, offset: 0x2D340, size: 0x8, addend: 0x0, symName: __ZNSt3__16__treeINS_12__value_typeINS_12basic_stringIcNS_11char_traitsIcEENS_9allocatorIcEEEEdEENS_19__map_value_compareIS7_S8_NS_4lessIS7_EELb1EEENS5_IS8_EEED2Ev, symObjAddr: 0xF4F4, symBinAddr: 0x1000107E8, symSize: 0x38 }
  - { offsetInCU: 0x2D36C, offset: 0x2D36C, size: 0x8, addend: 0x0, symName: __ZNSt3__16__treeINS_12__value_typeINS_12basic_stringIcNS_11char_traitsIcEENS_9allocatorIcEEEEdEENS_19__map_value_compareIS7_S8_NS_4lessIS7_EELb1EEENS5_IS8_EEE7destroyEPNS_11__tree_nodeIS8_PvEE, symObjAddr: 0xF52C, symBinAddr: 0x100010820, symSize: 0xAC }
  - { offsetInCU: 0x2D3B8, offset: 0x2D3B8, size: 0x8, addend: 0x0, symName: __ZNSt3__128__exception_guard_exceptionsINS_29_AllocatorDestroyRangeReverseINS_9allocatorINS_3mapINS_12basic_stringIcNS_11char_traitsIcEENS2_IcEEEEdNS_4lessIS8_EENS2_INS_4pairIKS8_dEEEEEEEEPSF_EEED2B8ue170006Ev, symObjAddr: 0xF5D8, symBinAddr: 0x1000108CC, symSize: 0x50 }
  - { offsetInCU: 0x2D3E2, offset: 0x2D3E2, size: 0x8, addend: 0x0, symName: __ZNKSt3__129_AllocatorDestroyRangeReverseINS_9allocatorINS_3mapINS_12basic_stringIcNS_11char_traitsIcEENS1_IcEEEEdNS_4lessIS7_EENS1_INS_4pairIKS7_dEEEEEEEEPSE_EclB8ue170006Ev, symObjAddr: 0xF628, symBinAddr: 0x10001091C, symSize: 0x68 }
  - { offsetInCU: 0x2D408, offset: 0x2D408, size: 0x8, addend: 0x0, symName: __ZNSt3__116reverse_iteratorIPNS_3mapINS_12basic_stringIcNS_11char_traitsIcEENS_9allocatorIcEEEEdNS_4lessIS7_EENS5_INS_4pairIKS7_dEEEEEEEC1B8ue170006ESF_, symObjAddr: 0xF700, symBinAddr: 0x1000109F4, symSize: 0x34 }
  - { offsetInCU: 0x2D440, offset: 0x2D440, size: 0x8, addend: 0x0, symName: __ZNSt3__116allocator_traitsINS_9allocatorINS_3mapINS_12basic_stringIcNS_11char_traitsIcEENS1_IcEEEEdNS_4lessIS7_EENS1_INS_4pairIKS7_dEEEEEEEEE7destroyB8ue170006ISE_vvEEvRSF_PT_, symObjAddr: 0xF77C, symBinAddr: 0x100010A70, symSize: 0x28 }
  - { offsetInCU: 0x2D47A, offset: 0x2D47A, size: 0x8, addend: 0x0, symName: __ZNSt3__116reverse_iteratorIPNS_3mapINS_12basic_stringIcNS_11char_traitsIcEENS_9allocatorIcEEEEdNS_4lessIS7_EENS5_INS_4pairIKS7_dEEEEEEEppB8ue170006Ev, symObjAddr: 0xF7C8, symBinAddr: 0x100010ABC, symSize: 0x20 }
  - { offsetInCU: 0x2D4A0, offset: 0x2D4A0, size: 0x8, addend: 0x0, symName: __ZNKSt3__116reverse_iteratorIPNS_3mapINS_12basic_stringIcNS_11char_traitsIcEENS_9allocatorIcEEEEdNS_4lessIS7_EENS5_INS_4pairIKS7_dEEEEEEE4baseB8ue170006Ev, symObjAddr: 0xF7E8, symBinAddr: 0x100010ADC, symSize: 0x18 }
  - { offsetInCU: 0x2D4CC, offset: 0x2D4CC, size: 0x8, addend: 0x0, symName: __ZNSt3__119__to_address_helperINS_16reverse_iteratorIPNS_3mapINS_12basic_stringIcNS_11char_traitsIcEENS_9allocatorIcEEEEdNS_4lessIS8_EENS6_INS_4pairIKS8_dEEEEEEEEvE6__callB8ue170006ERKSH_, symObjAddr: 0xF848, symBinAddr: 0x100010B3C, symSize: 0x38 }
  - { offsetInCU: 0x2D4EF, offset: 0x2D4EF, size: 0x8, addend: 0x0, symName: __ZNKSt3__116reverse_iteratorIPNS_3mapINS_12basic_stringIcNS_11char_traitsIcEENS_9allocatorIcEEEEdNS_4lessIS7_EENS5_INS_4pairIKS7_dEEEEEEEptB8ue170006Ev, symObjAddr: 0xF880, symBinAddr: 0x100010B74, symSize: 0x2C }
  - { offsetInCU: 0x2D515, offset: 0x2D515, size: 0x8, addend: 0x0, symName: __ZNSt3__116reverse_iteratorIPNS_3mapINS_12basic_stringIcNS_11char_traitsIcEENS_9allocatorIcEEEEdNS_4lessIS7_EENS5_INS_4pairIKS7_dEEEEEEEC2B8ue170006ESF_, symObjAddr: 0xF950, symBinAddr: 0x100010C44, symSize: 0x28 }
  - { offsetInCU: 0x2D54D, offset: 0x2D54D, size: 0x8, addend: 0x0, symName: __ZNSt3__118__unwrap_iter_implIPNS_3mapINS_12basic_stringIcNS_11char_traitsIcEENS_9allocatorIcEEEEdNS_4lessIS7_EENS5_INS_4pairIKS7_dEEEEEELb1EE8__unwrapB8ue170006ESF_, symObjAddr: 0xF978, symBinAddr: 0x100010C6C, symSize: 0x24 }
  - { offsetInCU: 0x2D570, offset: 0x2D570, size: 0x8, addend: 0x0, symName: __ZNSt3__118__unwrap_iter_implIPNS_3mapINS_12basic_stringIcNS_11char_traitsIcEENS_9allocatorIcEEEEdNS_4lessIS7_EENS5_INS_4pairIKS7_dEEEEEELb1EE8__rewrapB8ue170006ESF_SF_, symObjAddr: 0xF99C, symBinAddr: 0x100010C90, symSize: 0x58 }
  - { offsetInCU: 0x2D5A1, offset: 0x2D5A1, size: 0x8, addend: 0x0, symName: __ZNSt3__16vectorINS_3mapINS_12basic_stringIcNS_11char_traitsIcEENS_9allocatorIcEEEEdNS_4lessIS7_EENS5_INS_4pairIKS7_dEEEEEENS5_ISE_EEE21_ConstructTransactionD2B8ue170006Ev, symObjAddr: 0xF9F4, symBinAddr: 0x100010CE8, symSize: 0x20 }
  - { offsetInCU: 0x2D5CB, offset: 0x2D5CB, size: 0x8, addend: 0x0, symName: __ZNSt3__128__exception_guard_exceptionsINS_6vectorINS_3mapINS_12basic_stringIcNS_11char_traitsIcEENS_9allocatorIcEEEEdNS_4lessIS8_EENS6_INS_4pairIKS8_dEEEEEENS6_ISF_EEE16__destroy_vectorEED2B8ue170006Ev, symObjAddr: 0xFA14, symBinAddr: 0x100010D08, symSize: 0x50 }
  - { offsetInCU: 0x2D5F5, offset: 0x2D5F5, size: 0x8, addend: 0x0, symName: __ZNSt3__16vectorINS_3mapINS_12basic_stringIcNS_11char_traitsIcEENS_9allocatorIcEEEEdNS_4lessIS7_EENS5_INS_4pairIKS7_dEEEEEENS5_ISE_EEE16__destroy_vectorclB8ue170006Ev, symObjAddr: 0xFA64, symBinAddr: 0x100010D58, symSize: 0x90 }
  - { offsetInCU: 0x2D61B, offset: 0x2D61B, size: 0x8, addend: 0x0, symName: __ZNSt3__16vectorINS_3mapINS_12basic_stringIcNS_11char_traitsIcEENS_9allocatorIcEEEEdNS_4lessIS7_EENS5_INS_4pairIKS7_dEEEEEENS5_ISE_EEE7__clearB8ue170006Ev, symObjAddr: 0xFAF4, symBinAddr: 0x100010DE8, symSize: 0x28 }
  - { offsetInCU: 0x2D641, offset: 0x2D641, size: 0x8, addend: 0x0, symName: __ZNKSt3__16vectorINS_3mapINS_12basic_stringIcNS_11char_traitsIcEENS_9allocatorIcEEEEdNS_4lessIS7_EENS5_INS_4pairIKS7_dEEEEEENS5_ISE_EEE17__annotate_deleteB8ue170006Ev, symObjAddr: 0xFB1C, symBinAddr: 0x100010E10, symSize: 0xD4 }
  - { offsetInCU: 0x2D667, offset: 0x2D667, size: 0x8, addend: 0x0, symName: __ZNSt3__116allocator_traitsINS_9allocatorINS_3mapINS_12basic_stringIcNS_11char_traitsIcEENS1_IcEEEEdNS_4lessIS7_EENS1_INS_4pairIKS7_dEEEEEEEEE10deallocateB8ue170006ERSF_PSE_m, symObjAddr: 0xFBF0, symBinAddr: 0x100010EE4, symSize: 0x34 }
  - { offsetInCU: 0x2D6A9, offset: 0x2D6A9, size: 0x8, addend: 0x0, symName: __ZNSt3__16vectorINS_3mapINS_12basic_stringIcNS_11char_traitsIcEENS_9allocatorIcEEEEdNS_4lessIS7_EENS5_INS_4pairIKS7_dEEEEEENS5_ISE_EEE22__base_destruct_at_endB8ue170006EPSE_, symObjAddr: 0xFC24, symBinAddr: 0x100010F18, symSize: 0x8C }
  - { offsetInCU: 0x2D6ED, offset: 0x2D6ED, size: 0x8, addend: 0x0, symName: __ZNKSt3__16vectorINS_3mapINS_12basic_stringIcNS_11char_traitsIcEENS_9allocatorIcEEEEdNS_4lessIS7_EENS5_INS_4pairIKS7_dEEEEEENS5_ISE_EEE4sizeB8ue170006Ev, symObjAddr: 0xFCB0, symBinAddr: 0x100010FA4, symSize: 0x28 }
  - { offsetInCU: 0x2D713, offset: 0x2D713, size: 0x8, addend: 0x0, symName: __ZNSt3__19allocatorINS_3mapINS_12basic_stringIcNS_11char_traitsIcEENS0_IcEEEEdNS_4lessIS6_EENS0_INS_4pairIKS6_dEEEEEEE10deallocateB8ue170006EPSD_m, symObjAddr: 0xFCD8, symBinAddr: 0x100010FCC, symSize: 0x44 }
  - { offsetInCU: 0x2D755, offset: 0x2D755, size: 0x8, addend: 0x0, symName: __ZNSt3__14pairIKNS_12basic_stringIcNS_11char_traitsIcEENS_9allocatorIcEEEENS_6vectorINS_3mapIS6_dNS_4lessIS6_EENS4_INS0_IS7_dEEEEEENS4_ISE_EEEEEC2B8ue170006ILb1ELPv0EEERS7_RKSG_, symObjAddr: 0xFD1C, symBinAddr: 0x100011010, symSize: 0x70 }
  - { offsetInCU: 0x2D7AB, offset: 0x2D7AB, size: 0x8, addend: 0x0, symName: __ZNSt3__16vectorINS_3mapINS_12basic_stringIcNS_11char_traitsIcEENS_9allocatorIcEEEEdNS_4lessIS7_EENS5_INS_4pairIKS7_dEEEEEENS5_ISE_EEEC1ERKSG_, symObjAddr: 0xFD8C, symBinAddr: 0x100011080, symSize: 0x34 }
  - { offsetInCU: 0x2D7E6, offset: 0x2D7E6, size: 0x8, addend: 0x0, symName: __ZNSt3__16vectorINS_3mapINS_12basic_stringIcNS_11char_traitsIcEENS_9allocatorIcEEEEdNS_4lessIS7_EENS5_INS_4pairIKS7_dEEEEEENS5_ISE_EEEC2ERKSG_, symObjAddr: 0xFDC0, symBinAddr: 0x1000110B4, symSize: 0x94 }
  - { offsetInCU: 0x2D821, offset: 0x2D821, size: 0x8, addend: 0x0, symName: __ZNSt3__116allocator_traitsINS_9allocatorINS_3mapINS_12basic_stringIcNS_11char_traitsIcEENS1_IcEEEEdNS_4lessIS7_EENS1_INS_4pairIKS7_dEEEEEEEEE37select_on_container_copy_constructionB8ue170006ISF_vvEESF_RKSF_, symObjAddr: 0xFE54, symBinAddr: 0x100011148, symSize: 0x10 }
  - { offsetInCU: 0x2D856, offset: 0x2D856, size: 0x8, addend: 0x0, symName: __ZNSt3__117__compressed_pairIPNS_3mapINS_12basic_stringIcNS_11char_traitsIcEENS_9allocatorIcEEEEdNS_4lessIS7_EENS5_INS_4pairIKS7_dEEEEEENS5_ISE_EEEC1B8ue170006IDnSG_EEOT_OT0_, symObjAddr: 0xFE64, symBinAddr: 0x100011158, symSize: 0x3C }
  - { offsetInCU: 0x2D8AE, offset: 0x2D8AE, size: 0x8, addend: 0x0, symName: __ZNSt3__16vectorINS_3mapINS_12basic_stringIcNS_11char_traitsIcEENS_9allocatorIcEEEEdNS_4lessIS7_EENS5_INS_4pairIKS7_dEEEEEENS5_ISE_EEE16__init_with_sizeB8ue170006IPSE_SI_EEvT_T0_m, symObjAddr: 0xFEA0, symBinAddr: 0x100011194, symSize: 0xB8 }
  - { offsetInCU: 0x2D922, offset: 0x2D922, size: 0x8, addend: 0x0, symName: __ZNSt3__117__compressed_pairIPNS_3mapINS_12basic_stringIcNS_11char_traitsIcEENS_9allocatorIcEEEEdNS_4lessIS7_EENS5_INS_4pairIKS7_dEEEEEENS5_ISE_EEEC2B8ue170006IDnSG_EEOT_OT0_, symObjAddr: 0xFF58, symBinAddr: 0x10001124C, symSize: 0x44 }
  - { offsetInCU: 0x2D97A, offset: 0x2D97A, size: 0x8, addend: 0x0, symName: __ZNSt3__122__compressed_pair_elemINS_9allocatorINS_3mapINS_12basic_stringIcNS_11char_traitsIcEENS1_IcEEEEdNS_4lessIS7_EENS1_INS_4pairIKS7_dEEEEEEEELi1ELb1EEC2B8ue170006ISF_vEEOT_, symObjAddr: 0xFF9C, symBinAddr: 0x100011290, symSize: 0x18 }
  - { offsetInCU: 0x2D9BC, offset: 0x2D9BC, size: 0x8, addend: 0x0, symName: __ZNSt3__16vectorINS_3mapINS_12basic_stringIcNS_11char_traitsIcEENS_9allocatorIcEEEEdNS_4lessIS7_EENS5_INS_4pairIKS7_dEEEEEENS5_ISE_EEE18__construct_at_endIPSE_SI_EEvT_T0_m, symObjAddr: 0xFFB4, symBinAddr: 0x1000112A8, symSize: 0x8C }
  - { offsetInCU: 0x2DA4F, offset: 0x2DA4F, size: 0x8, addend: 0x0, symName: __ZNSt3__119__unwrap_range_implIPNS_3mapINS_12basic_stringIcNS_11char_traitsIcEENS_9allocatorIcEEEEdNS_4lessIS7_EENS5_INS_4pairIKS7_dEEEEEESF_E8__unwrapB8ue170006ESF_SF_, symObjAddr: 0x101F0, symBinAddr: 0x1000114E4, symSize: 0x58 }
  - { offsetInCU: 0x2DA86, offset: 0x2DA86, size: 0x8, addend: 0x0, symName: __ZNSt3__14pairIPNS_3mapINS_12basic_stringIcNS_11char_traitsIcEENS_9allocatorIcEEEEdNS_4lessIS7_EENS5_INS0_IKS7_dEEEEEESE_EC1B8ue170006ISE_SE_LPv0EEEOT_OT0_, symObjAddr: 0x10248, symBinAddr: 0x10001153C, symSize: 0x3C }
  - { offsetInCU: 0x2DAE4, offset: 0x2DAE4, size: 0x8, addend: 0x0, symName: __ZNSt3__14pairIPNS_3mapINS_12basic_stringIcNS_11char_traitsIcEENS_9allocatorIcEEEEdNS_4lessIS7_EENS5_INS0_IKS7_dEEEEEESE_EC2B8ue170006ISE_SE_LPv0EEEOT_OT0_, symObjAddr: 0x10284, symBinAddr: 0x100011578, symSize: 0x34 }
  - { offsetInCU: 0x2DB42, offset: 0x2DB42, size: 0x8, addend: 0x0, symName: __ZNSt3__116allocator_traitsINS_9allocatorINS_3mapINS_12basic_stringIcNS_11char_traitsIcEENS1_IcEEEEdNS_4lessIS7_EENS1_INS_4pairIKS7_dEEEEEEEEE9constructB8ue170006ISE_JRSE_EvvEEvRSF_PT_DpOT0_, symObjAddr: 0x102B8, symBinAddr: 0x1000115AC, symSize: 0x30 }
  - { offsetInCU: 0x2DB96, offset: 0x2DB96, size: 0x8, addend: 0x0, symName: __ZNSt3__16vectorINS_3mapINS_12basic_stringIcNS_11char_traitsIcEENS_9allocatorIcEEEEdNS_4lessIS7_EENS5_INS_4pairIKS7_dEEEEEENS5_ISE_EEEC2B8ue170006Ev, symObjAddr: 0x10324, symBinAddr: 0x100011618, symSize: 0x4C }
  - { offsetInCU: 0x2DBC0, offset: 0x2DBC0, size: 0x8, addend: 0x0, symName: __ZNSt3__14pairIKNS_12basic_stringIcNS_11char_traitsIcEENS_9allocatorIcEEEENS_6vectorINS_3mapIS6_dNS_4lessIS6_EENS4_INS0_IS7_dEEEEEENS4_ISE_EEEEED2Ev, symObjAddr: 0x10370, symBinAddr: 0x100011664, symSize: 0x38 }
  - { offsetInCU: 0x2DBEC, offset: 0x2DBEC, size: 0x8, addend: 0x0, symName: __ZNSt3__16vectorINS_3mapINS_12basic_stringIcNS_11char_traitsIcEENS_9allocatorIcEEEEdNS_4lessIS7_EENS5_INS_4pairIKS7_dEEEEEENS5_ISE_EEED2B8ue170006Ev, symObjAddr: 0x103A8, symBinAddr: 0x10001169C, symSize: 0x40 }
  - { offsetInCU: 0x2DC16, offset: 0x2DC16, size: 0x8, addend: 0x0, symName: __ZNSt3__118basic_stringstreamIcNS_11char_traitsIcEENS_9allocatorIcEEED2Ev, symObjAddr: 0x103E8, symBinAddr: 0x1000116DC, symSize: 0x6C }
  - { offsetInCU: 0x2DC50, offset: 0x2DC50, size: 0x8, addend: 0x0, symName: __ZThn16_NSt3__118basic_stringstreamIcNS_11char_traitsIcEENS_9allocatorIcEEED1Ev, symObjAddr: 0x10454, symBinAddr: 0x100011748, symSize: 0x1C }
  - { offsetInCU: 0x2DC67, offset: 0x2DC67, size: 0x8, addend: 0x0, symName: __ZTv0_n24_NSt3__118basic_stringstreamIcNS_11char_traitsIcEENS_9allocatorIcEEED1Ev, symObjAddr: 0x10470, symBinAddr: 0x100011764, symSize: 0x28 }
  - { offsetInCU: 0x2DC7E, offset: 0x2DC7E, size: 0x8, addend: 0x0, symName: __ZNSt3__121__tree_const_iteratorINS_12__value_typeINS_12basic_stringIcNS_11char_traitsIcEENS_9allocatorIcEEEEN5utils10TypeErasedEEEPNS_11__tree_nodeISA_PvEElEppB8ue170006Ev, symObjAddr: 0x10498, symBinAddr: 0x10001178C, symSize: 0x38 }
  - { offsetInCU: 0x2DCA4, offset: 0x2DCA4, size: 0x8, addend: 0x0, symName: __ZNK5utils10TypeErased12getObjectPtrINS_6dict_tEEEPKT_v, symObjAddr: 0x104D0, symBinAddr: 0x1000117C4, symSize: 0xEC }
  - { offsetInCU: 0x2DCEF, offset: 0x2DCEF, size: 0x8, addend: 0x0, symName: __ZN5utils10TypeErased7emplaceINS_6dict_tEJS2_EEENSt3__19enable_ifIXaasr3stdE18is_constructible_vIu7__decayIT_EDpT0_Esr3stdE23is_copy_constructible_vIS6_EERS6_E4typeEDpOS7_, symObjAddr: 0x105BC, symBinAddr: 0x1000118B0, symSize: 0x6C }
  - { offsetInCU: 0x2DD53, offset: 0x2DD53, size: 0x8, addend: 0x0, symName: __ZNKSt3__110unique_ptrIN5utils10TypeErased5ModelINS1_6dict_tEEENS_14default_deleteIS5_EEEptB8ue170006Ev, symObjAddr: 0x10694, symBinAddr: 0x100011988, symSize: 0x28 }
  - { offsetInCU: 0x2DD79, offset: 0x2DD79, size: 0x8, addend: 0x0, symName: __ZNSt3__110unique_ptrIN5utils10TypeErased4BaseENS_14default_deleteIS3_EEEaSB8ue170006INS2_5ModelINS1_6dict_tEEENS4_ISA_EEvvEERS6_ONS0_IT_T0_EE, symObjAddr: 0x106BC, symBinAddr: 0x1000119B0, symSize: 0x60 }
  - { offsetInCU: 0x2DDC1, offset: 0x2DDC1, size: 0x8, addend: 0x0, symName: __ZNSt3__110unique_ptrIN5utils10TypeErased5ModelINS1_6dict_tEEENS_14default_deleteIS5_EEED1B8ue170006Ev, symObjAddr: 0x1071C, symBinAddr: 0x100011A10, symSize: 0x2C }
  - { offsetInCU: 0x2DDF1, offset: 0x2DDF1, size: 0x8, addend: 0x0, symName: __ZN5utils10TypeErased5ModelINS_6dict_tEEC1IS2_EEOT_, symObjAddr: 0x10748, symBinAddr: 0x100011A3C, symSize: 0x34 }
  - { offsetInCU: 0x2DE32, offset: 0x2DE32, size: 0x8, addend: 0x0, symName: __ZNSt3__110unique_ptrIN5utils10TypeErased5ModelINS1_6dict_tEEENS_14default_deleteIS5_EEEC1B8ue170006ILb1EvEEPS5_, symObjAddr: 0x1077C, symBinAddr: 0x100011A70, symSize: 0x34 }
  - { offsetInCU: 0x2DE75, offset: 0x2DE75, size: 0x8, addend: 0x0, symName: __ZN5utils10TypeErased5ModelINS_6dict_tEEC2IS2_EEOT_, symObjAddr: 0x107B0, symBinAddr: 0x100011AA4, symSize: 0x58 }
  - { offsetInCU: 0x2DEB6, offset: 0x2DEB6, size: 0x8, addend: 0x0, symName: __ZN5utils10TypeErased4BaseC2Ev, symObjAddr: 0x10808, symBinAddr: 0x100011AFC, symSize: 0x24 }
  - { offsetInCU: 0x2DEE2, offset: 0x2DEE2, size: 0x8, addend: 0x0, symName: __ZN5utils10TypeErased5ModelINS_6dict_tEED1Ev, symObjAddr: 0x1082C, symBinAddr: 0x100011B20, symSize: 0x2C }
  - { offsetInCU: 0x2DF0E, offset: 0x2DF0E, size: 0x8, addend: 0x0, symName: __ZN5utils10TypeErased5ModelINS_6dict_tEED0Ev, symObjAddr: 0x10858, symBinAddr: 0x100011B4C, symSize: 0x30 }
  - { offsetInCU: 0x2DF3A, offset: 0x2DF3A, size: 0x8, addend: 0x0, symName: __ZNK5utils10TypeErased5ModelINS_6dict_tEE4typeEv, symObjAddr: 0x10888, symBinAddr: 0x100011B7C, symSize: 0x18 }
  - { offsetInCU: 0x2DF60, offset: 0x2DF60, size: 0x8, addend: 0x0, symName: __ZNK5utils10TypeErased5ModelINS_6dict_tEEeqERKNS0_4BaseE, symObjAddr: 0x108A0, symBinAddr: 0x100011B94, symSize: 0x104 }
  - { offsetInCU: 0x2DFB0, offset: 0x2DFB0, size: 0x8, addend: 0x0, symName: __ZNK5utils10TypeErased5ModelINS_6dict_tEE5cloneEv, symObjAddr: 0x109A4, symBinAddr: 0x100011C98, symSize: 0x4C }
  - { offsetInCU: 0x2DFD6, offset: 0x2DFD6, size: 0x8, addend: 0x0, symName: __ZN5utils10TypeErased4BaseD1Ev, symObjAddr: 0x109F0, symBinAddr: 0x100011CE4, symSize: 0x14 }
  - { offsetInCU: 0x2E000, offset: 0x2E000, size: 0x8, addend: 0x0, symName: __ZN5utils10TypeErased4BaseD0Ev, symObjAddr: 0x10A04, symBinAddr: 0x100011CF8, symSize: 0xC }
  - { offsetInCU: 0x2E02A, offset: 0x2E02A, size: 0x8, addend: 0x0, symName: __ZN5utils10TypeErased5ModelINS_6dict_tEED2Ev, symObjAddr: 0x10A10, symBinAddr: 0x100011D04, symSize: 0x48 }
  - { offsetInCU: 0x2E056, offset: 0x2E056, size: 0x8, addend: 0x0, symName: __ZN5utils10TypeErased4BaseD2Ev, symObjAddr: 0x10A58, symBinAddr: 0x100011D4C, symSize: 0x14 }
  - { offsetInCU: 0x2E080, offset: 0x2E080, size: 0x8, addend: 0x0, symName: __ZNSt3__110unique_ptrIN5utils10TypeErased4BaseENS_14default_deleteIS3_EEEC1B8ue170006INS2_5ModelINS1_6dict_tEEENS4_ISA_EEvvEEONS0_IT_T0_EE, symObjAddr: 0x10AD8, symBinAddr: 0x100011DCC, symSize: 0x34 }
  - { offsetInCU: 0x2E0CC, offset: 0x2E0CC, size: 0x8, addend: 0x0, symName: __ZN5utils10TypeErased5ModelINS_6dict_tEEC1IRKS2_EEOT_, symObjAddr: 0x10B0C, symBinAddr: 0x100011E00, symSize: 0x34 }
  - { offsetInCU: 0x2E10D, offset: 0x2E10D, size: 0x8, addend: 0x0, symName: __ZN5utils10TypeErased5ModelINS_6dict_tEEC2IRKS2_EEOT_, symObjAddr: 0x10B40, symBinAddr: 0x100011E34, symSize: 0x80 }
  - { offsetInCU: 0x2E14E, offset: 0x2E14E, size: 0x8, addend: 0x0, symName: __ZNSt3__110unique_ptrIN5utils10TypeErased4BaseENS_14default_deleteIS3_EEEC2B8ue170006INS2_5ModelINS1_6dict_tEEENS4_ISA_EEvvEEONS0_IT_T0_EE, symObjAddr: 0x10BC0, symBinAddr: 0x100011EB4, symSize: 0x60 }
  - { offsetInCU: 0x2E19A, offset: 0x2E19A, size: 0x8, addend: 0x0, symName: __ZNSt3__110unique_ptrIN5utils10TypeErased5ModelINS1_6dict_tEEENS_14default_deleteIS5_EEE7releaseB8ue170006Ev, symObjAddr: 0x10C20, symBinAddr: 0x100011F14, symSize: 0x44 }
  - { offsetInCU: 0x2E1CF, offset: 0x2E1CF, size: 0x8, addend: 0x0, symName: __ZNSt3__110unique_ptrIN5utils10TypeErased5ModelINS1_6dict_tEEENS_14default_deleteIS5_EEE11get_deleterB8ue170006Ev, symObjAddr: 0x10C64, symBinAddr: 0x100011F58, symSize: 0x24 }
  - { offsetInCU: 0x2E201, offset: 0x2E201, size: 0x8, addend: 0x0, symName: __ZNSt3__117__compressed_pairIPN5utils10TypeErased4BaseENS_14default_deleteIS3_EEEC1B8ue170006IPNS2_5ModelINS1_6dict_tEEENS5_ISB_EEEEOT_OT0_, symObjAddr: 0x10C88, symBinAddr: 0x100011F7C, symSize: 0x3C }
  - { offsetInCU: 0x2E259, offset: 0x2E259, size: 0x8, addend: 0x0, symName: __ZNSt3__117__compressed_pairIPN5utils10TypeErased5ModelINS1_6dict_tEEENS_14default_deleteIS5_EEE5firstB8ue170006Ev, symObjAddr: 0x10CC4, symBinAddr: 0x100011FB8, symSize: 0x24 }
  - { offsetInCU: 0x2E27F, offset: 0x2E27F, size: 0x8, addend: 0x0, symName: __ZNSt3__122__compressed_pair_elemIPN5utils10TypeErased5ModelINS1_6dict_tEEELi0ELb0EE5__getB8ue170006Ev, symObjAddr: 0x10CE8, symBinAddr: 0x100011FDC, symSize: 0x14 }
  - { offsetInCU: 0x2E2A5, offset: 0x2E2A5, size: 0x8, addend: 0x0, symName: __ZNSt3__117__compressed_pairIPN5utils10TypeErased5ModelINS1_6dict_tEEENS_14default_deleteIS5_EEE6secondB8ue170006Ev, symObjAddr: 0x10CFC, symBinAddr: 0x100011FF0, symSize: 0x24 }
  - { offsetInCU: 0x2E2CB, offset: 0x2E2CB, size: 0x8, addend: 0x0, symName: __ZNSt3__122__compressed_pair_elemINS_14default_deleteIN5utils10TypeErased5ModelINS2_6dict_tEEEEELi1ELb1EE5__getB8ue170006Ev, symObjAddr: 0x10D20, symBinAddr: 0x100012014, symSize: 0x14 }
  - { offsetInCU: 0x2E2F1, offset: 0x2E2F1, size: 0x8, addend: 0x0, symName: __ZNSt3__117__compressed_pairIPN5utils10TypeErased4BaseENS_14default_deleteIS3_EEEC2B8ue170006IPNS2_5ModelINS1_6dict_tEEENS5_ISB_EEEEOT_OT0_, symObjAddr: 0x10D34, symBinAddr: 0x100012028, symSize: 0x44 }
  - { offsetInCU: 0x2E349, offset: 0x2E349, size: 0x8, addend: 0x0, symName: __ZNSt3__122__compressed_pair_elemIPN5utils10TypeErased4BaseELi0ELb0EEC2B8ue170006IPNS2_5ModelINS1_6dict_tEEEvEEOT_, symObjAddr: 0x10D78, symBinAddr: 0x10001206C, symSize: 0x24 }
  - { offsetInCU: 0x2E38B, offset: 0x2E38B, size: 0x8, addend: 0x0, symName: __ZNSt3__122__compressed_pair_elemINS_14default_deleteIN5utils10TypeErased4BaseEEELi1ELb1EEC2B8ue170006INS1_INS3_5ModelINS2_6dict_tEEEEEvEEOT_, symObjAddr: 0x10D9C, symBinAddr: 0x100012090, symSize: 0x38 }
  - { offsetInCU: 0x2E3D3, offset: 0x2E3D3, size: 0x8, addend: 0x0, symName: __ZNSt3__114default_deleteIN5utils10TypeErased4BaseEEC2B8ue170006INS2_5ModelINS1_6dict_tEEEEERKNS0_IT_EEPNS_9enable_ifIXsr14is_convertibleIPS9_PS3_EE5valueEvE4typeE, symObjAddr: 0x10DD4, symBinAddr: 0x1000120C8, symSize: 0x1C }
  - { offsetInCU: 0x2E41C, offset: 0x2E41C, size: 0x8, addend: 0x0, symName: __ZNSt3__110unique_ptrIN5utils10TypeErased5ModelINS1_6dict_tEEENS_14default_deleteIS5_EEEC2B8ue170006ILb1EvEEPS5_, symObjAddr: 0x10DF0, symBinAddr: 0x1000120E4, symSize: 0x44 }
  - { offsetInCU: 0x2E45F, offset: 0x2E45F, size: 0x8, addend: 0x0, symName: __ZNSt3__117__compressed_pairIPN5utils10TypeErased5ModelINS1_6dict_tEEENS_14default_deleteIS5_EEEC1B8ue170006IRS6_NS_16__value_init_tagEEEOT_OT0_, symObjAddr: 0x10E34, symBinAddr: 0x100012128, symSize: 0x3C }
  - { offsetInCU: 0x2E4B7, offset: 0x2E4B7, size: 0x8, addend: 0x0, symName: __ZNSt3__117__compressed_pairIPN5utils10TypeErased5ModelINS1_6dict_tEEENS_14default_deleteIS5_EEEC2B8ue170006IRS6_NS_16__value_init_tagEEEOT_OT0_, symObjAddr: 0x10E70, symBinAddr: 0x100012164, symSize: 0x40 }
  - { offsetInCU: 0x2E50F, offset: 0x2E50F, size: 0x8, addend: 0x0, symName: __ZNSt3__122__compressed_pair_elemIPN5utils10TypeErased5ModelINS1_6dict_tEEELi0ELb0EEC2B8ue170006IRS6_vEEOT_, symObjAddr: 0x10EB0, symBinAddr: 0x1000121A4, symSize: 0x24 }
  - { offsetInCU: 0x2E551, offset: 0x2E551, size: 0x8, addend: 0x0, symName: __ZNSt3__122__compressed_pair_elemINS_14default_deleteIN5utils10TypeErased5ModelINS2_6dict_tEEEEELi1ELb1EEC2B8ue170006ENS_16__value_init_tagE, symObjAddr: 0x10ED4, symBinAddr: 0x1000121C8, symSize: 0x14 }
  - { offsetInCU: 0x2E586, offset: 0x2E586, size: 0x8, addend: 0x0, symName: __ZNKSt3__117__compressed_pairIPN5utils10TypeErased5ModelINS1_6dict_tEEENS_14default_deleteIS5_EEE5firstB8ue170006Ev, symObjAddr: 0x10EE8, symBinAddr: 0x1000121DC, symSize: 0x24 }
  - { offsetInCU: 0x2E5AC, offset: 0x2E5AC, size: 0x8, addend: 0x0, symName: __ZNKSt3__122__compressed_pair_elemIPN5utils10TypeErased5ModelINS1_6dict_tEEELi0ELb0EE5__getB8ue170006Ev, symObjAddr: 0x10F0C, symBinAddr: 0x100012200, symSize: 0x14 }
  - { offsetInCU: 0x2E5D2, offset: 0x2E5D2, size: 0x8, addend: 0x0, symName: __ZNSt3__114default_deleteIN5utils10TypeErased4BaseEEC1B8ue170006INS2_5ModelINS1_6dict_tEEEEERKNS0_IT_EEPNS_9enable_ifIXsr14is_convertibleIPS9_PS3_EE5valueEvE4typeE, symObjAddr: 0x10F20, symBinAddr: 0x100012214, symSize: 0x3C }
  - { offsetInCU: 0x2E61B, offset: 0x2E61B, size: 0x8, addend: 0x0, symName: __ZNSt3__110unique_ptrIN5utils10TypeErased5ModelINS1_6dict_tEEENS_14default_deleteIS5_EEED2B8ue170006Ev, symObjAddr: 0x10F5C, symBinAddr: 0x100012250, symSize: 0x30 }
  - { offsetInCU: 0x2E645, offset: 0x2E645, size: 0x8, addend: 0x0, symName: __ZNSt3__110unique_ptrIN5utils10TypeErased5ModelINS1_6dict_tEEENS_14default_deleteIS5_EEE5resetB8ue170006EPS5_, symObjAddr: 0x10F8C, symBinAddr: 0x100012280, symSize: 0x78 }
  - { offsetInCU: 0x2E689, offset: 0x2E689, size: 0x8, addend: 0x0, symName: __ZNKSt3__114default_deleteIN5utils10TypeErased5ModelINS1_6dict_tEEEEclB8ue170006EPS5_, symObjAddr: 0x11004, symBinAddr: 0x1000122F8, symSize: 0x4C }
  - { offsetInCU: 0x2E6BD, offset: 0x2E6BD, size: 0x8, addend: 0x0, symName: __ZNSt3__19basic_iosIcNS_11char_traitsIcEEEC2B8ue170006Ev, symObjAddr: 0x11050, symBinAddr: 0x100012344, symSize: 0x44 }
  - { offsetInCU: 0x2E6E7, offset: 0x2E6E7, size: 0x8, addend: 0x0, symName: __ZNSt3__113basic_ostreamIcNS_11char_traitsIcEEEC2B8ue170006EPNS_15basic_streambufIcS2_EE, symObjAddr: 0x11094, symBinAddr: 0x100012388, symSize: 0x60 }
  - { offsetInCU: 0x2E72C, offset: 0x2E72C, size: 0x8, addend: 0x0, symName: __ZNSt3__115basic_stringbufIcNS_11char_traitsIcEENS_9allocatorIcEEEC1B8ue170006Ej, symObjAddr: 0x110F4, symBinAddr: 0x1000123E8, symSize: 0x34 }
  - { offsetInCU: 0x2E765, offset: 0x2E765, size: 0x8, addend: 0x0, symName: __ZNSt3__18ios_baseC2B8ue170006Ev, symObjAddr: 0x11128, symBinAddr: 0x10001241C, symSize: 0x24 }
  - { offsetInCU: 0x2E78F, offset: 0x2E78F, size: 0x8, addend: 0x0, symName: __ZNSt3__19basic_iosIcNS_11char_traitsIcEEE4initB8ue170006EPNS_15basic_streambufIcS2_EE, symObjAddr: 0x1114C, symBinAddr: 0x100012440, symSize: 0x44 }
  - { offsetInCU: 0x2E7C6, offset: 0x2E7C6, size: 0x8, addend: 0x0, symName: __ZNSt3__111char_traitsIcE3eofB8ue170006Ev, symObjAddr: 0x11190, symBinAddr: 0x100012484, symSize: 0x8 }
  - { offsetInCU: 0x2E7DA, offset: 0x2E7DA, size: 0x8, addend: 0x0, symName: __ZNSt3__115basic_stringbufIcNS_11char_traitsIcEENS_9allocatorIcEEEC2B8ue170006Ej, symObjAddr: 0x11198, symBinAddr: 0x10001248C, symSize: 0x60 }
  - { offsetInCU: 0x2E813, offset: 0x2E813, size: 0x8, addend: 0x0, symName: __ZNSt3__112basic_stringIcNS_11char_traitsIcEENS_9allocatorIcEEEC1B8ue170006Ev, symObjAddr: 0x111F8, symBinAddr: 0x1000124EC, symSize: 0x2C }
  - { offsetInCU: 0x2E83D, offset: 0x2E83D, size: 0x8, addend: 0x0, symName: __ZNSt3__112basic_stringIcNS_11char_traitsIcEENS_9allocatorIcEEEC2B8ue170006Ev, symObjAddr: 0x11224, symBinAddr: 0x100012518, symSize: 0x48 }
  - { offsetInCU: 0x2E867, offset: 0x2E867, size: 0x8, addend: 0x0, symName: __ZNSt3__112basic_stringIcNS_11char_traitsIcEENS_9allocatorIcEEE14__default_initB8ue170006Ev, symObjAddr: 0x1126C, symBinAddr: 0x100012560, symSize: 0x40 }
  - { offsetInCU: 0x2E88D, offset: 0x2E88D, size: 0x8, addend: 0x0, symName: __ZNSt3__117__compressed_pairINS_12basic_stringIcNS_11char_traitsIcEENS_9allocatorIcEEE5__repES5_E5firstB8ue170006Ev, symObjAddr: 0x112AC, symBinAddr: 0x1000125A0, symSize: 0x24 }
  - { offsetInCU: 0x2E8B3, offset: 0x2E8B3, size: 0x8, addend: 0x0, symName: __ZNSt3__122__compressed_pair_elemINS_12basic_stringIcNS_11char_traitsIcEENS_9allocatorIcEEE5__repELi0ELb0EE5__getB8ue170006Ev, symObjAddr: 0x112D0, symBinAddr: 0x1000125C4, symSize: 0x14 }
  - { offsetInCU: 0x2E8D9, offset: 0x2E8D9, size: 0x8, addend: 0x0, symName: __ZNKRSt3__115basic_stringbufIcNS_11char_traitsIcEENS_9allocatorIcEEE3strB8ue170006Ev, symObjAddr: 0x112E4, symBinAddr: 0x1000125D8, symSize: 0x44 }
  - { offsetInCU: 0x2E8FF, offset: 0x2E8FF, size: 0x8, addend: 0x0, symName: __ZNKSt3__115basic_stringbufIcNS_11char_traitsIcEENS_9allocatorIcEEE3strB8ue170006IS4_EENS_12basic_stringIcS2_T_EERKS8_, symObjAddr: 0x11328, symBinAddr: 0x10001261C, symSize: 0x50 }
  - { offsetInCU: 0x2E93D, offset: 0x2E93D, size: 0x8, addend: 0x0, symName: __ZNKSt3__112basic_stringIcNS_11char_traitsIcEENS_9allocatorIcEEE13get_allocatorB8ue170006Ev, symObjAddr: 0x11378, symBinAddr: 0x10001266C, symSize: 0x24 }
  - { offsetInCU: 0x2E963, offset: 0x2E963, size: 0x8, addend: 0x0, symName: __ZNKSt3__115basic_stringbufIcNS_11char_traitsIcEENS_9allocatorIcEEE4viewB8ue170006Ev, symObjAddr: 0x1139C, symBinAddr: 0x100012690, symSize: 0x120 }
  - { offsetInCU: 0x2E98B, offset: 0x2E98B, size: 0x8, addend: 0x0, symName: __ZNSt3__112basic_stringIcNS_11char_traitsIcEENS_9allocatorIcEEEC1INS_17basic_string_viewIcS2_EELi0EEERKT_RKS4_, symObjAddr: 0x114BC, symBinAddr: 0x1000127B0, symSize: 0x3C }
  - { offsetInCU: 0x2E9E2, offset: 0x2E9E2, size: 0x8, addend: 0x0, symName: __ZNKSt3__115basic_streambufIcNS_11char_traitsIcEEE4pptrB8ue170006Ev, symObjAddr: 0x114F8, symBinAddr: 0x1000127EC, symSize: 0x18 }
  - { offsetInCU: 0x2EA08, offset: 0x2EA08, size: 0x8, addend: 0x0, symName: __ZNKSt3__115basic_streambufIcNS_11char_traitsIcEEE5pbaseB8ue170006Ev, symObjAddr: 0x11510, symBinAddr: 0x100012804, symSize: 0x18 }
  - { offsetInCU: 0x2EA34, offset: 0x2EA34, size: 0x8, addend: 0x0, symName: __ZNSt3__117basic_string_viewIcNS_11char_traitsIcEEEC1B8ue170006IPcS5_EET_T0_, symObjAddr: 0x11528, symBinAddr: 0x10001281C, symSize: 0x3C }
  - { offsetInCU: 0x2EA8E, offset: 0x2EA8E, size: 0x8, addend: 0x0, symName: __ZNKSt3__115basic_streambufIcNS_11char_traitsIcEEE5ebackB8ue170006Ev, symObjAddr: 0x11564, symBinAddr: 0x100012858, symSize: 0x18 }
  - { offsetInCU: 0x2EAB4, offset: 0x2EAB4, size: 0x8, addend: 0x0, symName: __ZNKSt3__115basic_streambufIcNS_11char_traitsIcEEE5egptrB8ue170006Ev, symObjAddr: 0x1157C, symBinAddr: 0x100012870, symSize: 0x18 }
  - { offsetInCU: 0x2EADA, offset: 0x2EADA, size: 0x8, addend: 0x0, symName: __ZNSt3__117basic_string_viewIcNS_11char_traitsIcEEEC1B8ue170006Ev, symObjAddr: 0x11594, symBinAddr: 0x100012888, symSize: 0x2C }
  - { offsetInCU: 0x2EB04, offset: 0x2EB04, size: 0x8, addend: 0x0, symName: __ZNSt3__117basic_string_viewIcNS_11char_traitsIcEEEC2B8ue170006IPcS5_EET_T0_, symObjAddr: 0x115C0, symBinAddr: 0x1000128B4, symSize: 0x50 }
  - { offsetInCU: 0x2EB5E, offset: 0x2EB5E, size: 0x8, addend: 0x0, symName: __ZNSt3__117basic_string_viewIcNS_11char_traitsIcEEEC2B8ue170006Ev, symObjAddr: 0x11648, symBinAddr: 0x10001293C, symSize: 0x1C }
  - { offsetInCU: 0x2EB88, offset: 0x2EB88, size: 0x8, addend: 0x0, symName: __ZNSt3__112basic_stringIcNS_11char_traitsIcEENS_9allocatorIcEEEC2INS_17basic_string_viewIcS2_EELi0EEERKT_RKS4_, symObjAddr: 0x11664, symBinAddr: 0x100012958, symSize: 0x74 }
  - { offsetInCU: 0x2EBFC, offset: 0x2EBFC, size: 0x8, addend: 0x0, symName: __ZNSt3__117__compressed_pairINS_12basic_stringIcNS_11char_traitsIcEENS_9allocatorIcEEE5__repES5_EC1B8ue170006INS_18__default_init_tagERKS5_EEOT_OT0_, symObjAddr: 0x116D8, symBinAddr: 0x1000129CC, symSize: 0x3C }
  - { offsetInCU: 0x2EC54, offset: 0x2EC54, size: 0x8, addend: 0x0, symName: __ZNSt3__117__compressed_pairINS_12basic_stringIcNS_11char_traitsIcEENS_9allocatorIcEEE5__repES5_EC2B8ue170006INS_18__default_init_tagERKS5_EEOT_OT0_, symObjAddr: 0x11714, symBinAddr: 0x100012A08, symSize: 0x40 }
  - { offsetInCU: 0x2ECAC, offset: 0x2ECAC, size: 0x8, addend: 0x0, symName: __ZNSt3__122__compressed_pair_elemINS_9allocatorIcEELi1ELb1EEC2B8ue170006IRKS2_vEEOT_, symObjAddr: 0x11754, symBinAddr: 0x100012A48, symSize: 0x18 }
  - { offsetInCU: 0x2ECEE, offset: 0x2ECEE, size: 0x8, addend: 0x0, symName: __ZNKSt3__112basic_stringIcNS_11char_traitsIcEENS_9allocatorIcEEE7__allocB8ue170006Ev, symObjAddr: 0x1176C, symBinAddr: 0x100012A60, symSize: 0x24 }
  - { offsetInCU: 0x2ED14, offset: 0x2ED14, size: 0x8, addend: 0x0, symName: __ZNKSt3__117__compressed_pairINS_12basic_stringIcNS_11char_traitsIcEENS_9allocatorIcEEE5__repES5_E6secondB8ue170006Ev, symObjAddr: 0x11790, symBinAddr: 0x100012A84, symSize: 0x24 }
  - { offsetInCU: 0x2ED3A, offset: 0x2ED3A, size: 0x8, addend: 0x0, symName: __ZNKSt3__122__compressed_pair_elemINS_9allocatorIcEELi1ELb1EE5__getB8ue170006Ev, symObjAddr: 0x117B4, symBinAddr: 0x100012AA8, symSize: 0x14 }
  - { offsetInCU: 0x2ED60, offset: 0x2ED60, size: 0x8, addend: 0x0, symName: __ZN9rapidjson12GenericValueINS_4UTF8IcEENS_19MemoryPoolAllocatorINS_12CrtAllocatorEEEEC2EPKcRS5_, symObjAddr: 0x117C8, symBinAddr: 0x100012ABC, symSize: 0x5C }
  - { offsetInCU: 0x2EDA8, offset: 0x2EDA8, size: 0x8, addend: 0x0, symName: __ZN9rapidjson12GenericValueINS_4UTF8IcEENS_19MemoryPoolAllocatorINS_12CrtAllocatorEEEE12SetStringRawENS_16GenericStringRefIcEERS5_, symObjAddr: 0x11824, symBinAddr: 0x100012B18, symSize: 0xEC }
  - { offsetInCU: 0x2EDFC, offset: 0x2EDFC, size: 0x8, addend: 0x0, symName: __ZN9rapidjson12GenericValueINS_4UTF8IcEENS_19MemoryPoolAllocatorINS_12CrtAllocatorEEEE11ShortString6UsableEj, symObjAddr: 0x11948, symBinAddr: 0x100012C3C, symSize: 0x24 }
  - { offsetInCU: 0x2EE20, offset: 0x2EE20, size: 0x8, addend: 0x0, symName: __ZN9rapidjson12GenericValueINS_4UTF8IcEENS_19MemoryPoolAllocatorINS_12CrtAllocatorEEEE11ShortString9SetLengthEj, symObjAddr: 0x1196C, symBinAddr: 0x100012C60, symSize: 0x28 }
  - { offsetInCU: 0x2EE55, offset: 0x2EE55, size: 0x8, addend: 0x0, symName: __ZN9rapidjson19MemoryPoolAllocatorINS_12CrtAllocatorEE6MallocEm, symObjAddr: 0x11994, symBinAddr: 0x100012C88, symSize: 0x168 }
  - { offsetInCU: 0x2EE99, offset: 0x2EE99, size: 0x8, addend: 0x0, symName: __ZN9rapidjson12GenericValueINS_4UTF8IcEENS_19MemoryPoolAllocatorINS_12CrtAllocatorEEEE16SetStringPointerEPKc, symObjAddr: 0x11AFC, symBinAddr: 0x100012DF0, symSize: 0x20 }
  - { offsetInCU: 0x2EECE, offset: 0x2EECE, size: 0x8, addend: 0x0, symName: __ZNK9rapidjson16GenericStringRefIcEcvPKcEv, symObjAddr: 0x11B1C, symBinAddr: 0x100012E10, symSize: 0x18 }
  - { offsetInCU: 0x2EEF4, offset: 0x2EEF4, size: 0x8, addend: 0x0, symName: __ZN9rapidjson19MemoryPoolAllocatorINS_12CrtAllocatorEE8AddChunkEm, symObjAddr: 0x11B34, symBinAddr: 0x100012E28, symSize: 0xEC }
  - { offsetInCU: 0x2EF3E, offset: 0x2EF3E, size: 0x8, addend: 0x0, symName: __ZN9rapidjson19MemoryPoolAllocatorINS_12CrtAllocatorEE14GetChunkBufferEPNS2_10SharedDataE, symObjAddr: 0x11C20, symBinAddr: 0x100012F14, symSize: 0x1C }
  - { offsetInCU: 0x2EF61, offset: 0x2EF61, size: 0x8, addend: 0x0, symName: __ZN9rapidjson12CrtAllocator6MallocEm, symObjAddr: 0x11C3C, symBinAddr: 0x100012F30, symSize: 0x50 }
  - { offsetInCU: 0x2EF95, offset: 0x2EF95, size: 0x8, addend: 0x0, symName: __ZN9rapidjson16GenericStringRefIcEC1EPKc, symObjAddr: 0x11C8C, symBinAddr: 0x100012F80, symSize: 0x34 }
  - { offsetInCU: 0x2EFCE, offset: 0x2EFCE, size: 0x8, addend: 0x0, symName: __ZN9rapidjson16GenericStringRefIcEC2EPKc, symObjAddr: 0x11CC0, symBinAddr: 0x100012FB4, symSize: 0x44 }
  - { offsetInCU: 0x2F007, offset: 0x2F007, size: 0x8, addend: 0x0, symName: __ZN9rapidjson16GenericStringRefIcE13NotNullStrLenEPKc, symObjAddr: 0x11D04, symBinAddr: 0x100012FF8, symSize: 0x60 }
  - { offsetInCU: 0x2F03C, offset: 0x2F03C, size: 0x8, addend: 0x0, symName: __ZN9rapidjson12GenericValueINS_4UTF8IcEENS_19MemoryPoolAllocatorINS_12CrtAllocatorEEEED2Ev, symObjAddr: 0x11D88, symBinAddr: 0x10001307C, symSize: 0x14 }
  - { offsetInCU: 0x2F066, offset: 0x2F066, size: 0x8, addend: 0x0, symName: __ZN9rapidjson12GenericValueINS_4UTF8IcEENS_19MemoryPoolAllocatorINS_12CrtAllocatorEEEE11DoAddMemberERS6_S7_RS5_, symObjAddr: 0x11E8C, symBinAddr: 0x100013180, symSize: 0x108 }
  - { offsetInCU: 0x2F0E6, offset: 0x2F0E6, size: 0x8, addend: 0x0, symName: __ZN9rapidjson12GenericValueINS_4UTF8IcEENS_19MemoryPoolAllocatorINS_12CrtAllocatorEEEE16DoReserveMembersEjRS5_, symObjAddr: 0x11F94, symBinAddr: 0x100013288, symSize: 0x9C }
  - { offsetInCU: 0x2F156, offset: 0x2F156, size: 0x8, addend: 0x0, symName: __ZNK9rapidjson12GenericValueINS_4UTF8IcEENS_19MemoryPoolAllocatorINS_12CrtAllocatorEEEE17GetMembersPointerEv, symObjAddr: 0x12030, symBinAddr: 0x100013324, symSize: 0x18 }
  - { offsetInCU: 0x2F17C, offset: 0x2F17C, size: 0x8, addend: 0x0, symName: __ZN9rapidjson12GenericValueINS_4UTF8IcEENS_19MemoryPoolAllocatorINS_12CrtAllocatorEEEE9RawAssignERS6_, symObjAddr: 0x12048, symBinAddr: 0x10001333C, symSize: 0x34 }
  - { offsetInCU: 0x2F1B1, offset: 0x2F1B1, size: 0x8, addend: 0x0, symName: __ZN9rapidjson19MemoryPoolAllocatorINS_12CrtAllocatorEE7ReallocEPvmm, symObjAddr: 0x1214C, symBinAddr: 0x100013440, symSize: 0x210 }
  - { offsetInCU: 0x2F236, offset: 0x2F236, size: 0x8, addend: 0x0, symName: __ZNK5utils10TypeErased12getObjectPtrINSt3__112basic_stringIcNS2_11char_traitsIcEENS2_9allocatorIcEEEEEEPKT_v, symObjAddr: 0x1235C, symBinAddr: 0x100013650, symSize: 0xEC }
  - { offsetInCU: 0x2F281, offset: 0x2F281, size: 0x8, addend: 0x0, symName: __ZNK5utils10TypeErased12getObjectPtrIbEEPKT_v, symObjAddr: 0x12448, symBinAddr: 0x10001373C, symSize: 0xEC }
  - { offsetInCU: 0x2F2D2, offset: 0x2F2D2, size: 0x8, addend: 0x0, symName: __ZN9rapidjson12GenericValueINS_4UTF8IcEENS_19MemoryPoolAllocatorINS_12CrtAllocatorEEEEC1IbEET_PNS_8internal8EnableIfINS9_15RemoveSfinaeTagIPFRNS9_9SfinaeTagENS9_6IsSameIbS8_EEEE4TypeEvE4TypeE, symObjAddr: 0x12534, symBinAddr: 0x100013828, symSize: 0x48 }
  - { offsetInCU: 0x2F31F, offset: 0x2F31F, size: 0x8, addend: 0x0, symName: __ZN9rapidjson12GenericValueINS_4UTF8IcEENS_19MemoryPoolAllocatorINS_12CrtAllocatorEEEEC2IbEET_PNS_8internal8EnableIfINS9_15RemoveSfinaeTagIPFRNS9_9SfinaeTagENS9_6IsSameIbS8_EEEE4TypeEvE4TypeE, symObjAddr: 0x1257C, symBinAddr: 0x100013870, symSize: 0x4C }
  - { offsetInCU: 0x2F36C, offset: 0x2F36C, size: 0x8, addend: 0x0, symName: __ZN9rapidjson12GenericValueINS_4UTF8IcEENS_19MemoryPoolAllocatorINS_12CrtAllocatorEEEEC1Ei, symObjAddr: 0x125C8, symBinAddr: 0x1000138BC, symSize: 0x34 }
  - { offsetInCU: 0x2F3A5, offset: 0x2F3A5, size: 0x8, addend: 0x0, symName: __ZN9rapidjson12GenericValueINS_4UTF8IcEENS_19MemoryPoolAllocatorINS_12CrtAllocatorEEEEC2Ei, symObjAddr: 0x125FC, symBinAddr: 0x1000138F0, symSize: 0x50 }
  - { offsetInCU: 0x2F3DE, offset: 0x2F3DE, size: 0x8, addend: 0x0, symName: __ZN9rapidjson12GenericValueINS_4UTF8IcEENS_19MemoryPoolAllocatorINS_12CrtAllocatorEEEEC1Ed, symObjAddr: 0x1264C, symBinAddr: 0x100013940, symSize: 0x34 }
  - { offsetInCU: 0x2F417, offset: 0x2F417, size: 0x8, addend: 0x0, symName: __ZN9rapidjson12GenericValueINS_4UTF8IcEENS_19MemoryPoolAllocatorINS_12CrtAllocatorEEEEC2Ed, symObjAddr: 0x12680, symBinAddr: 0x100013974, symSize: 0x34 }
  - { offsetInCU: 0x2F450, offset: 0x2F450, size: 0x8, addend: 0x0, symName: __ZN9rapidjson15GenericDocumentINS_4UTF8IcEENS_19MemoryPoolAllocatorINS_12CrtAllocatorEEES4_EC2EPS5_mPS4_, symObjAddr: 0x126B4, symBinAddr: 0x1000139A8, symSize: 0x128 }
  - { offsetInCU: 0x2F4A7, offset: 0x2F4A7, size: 0x8, addend: 0x0, symName: __ZN9rapidjson12GenericValueINS_4UTF8IcEENS_19MemoryPoolAllocatorINS_12CrtAllocatorEEEEC2Ev, symObjAddr: 0x127DC, symBinAddr: 0x100013AD0, symSize: 0x24 }
  - { offsetInCU: 0x2F4D1, offset: 0x2F4D1, size: 0x8, addend: 0x0, symName: __ZN9rapidjson8internal5StackINS_12CrtAllocatorEEC1EPS2_m, symObjAddr: 0x12800, symBinAddr: 0x100013AF4, symSize: 0x3C }
  - { offsetInCU: 0x2F517, offset: 0x2F517, size: 0x8, addend: 0x0, symName: __ZN9rapidjson11ParseResultC1Ev, symObjAddr: 0x1283C, symBinAddr: 0x100013B30, symSize: 0x2C }
  - { offsetInCU: 0x2F541, offset: 0x2F541, size: 0x8, addend: 0x0, symName: __ZN9rapidjson19MemoryPoolAllocatorINS_12CrtAllocatorEEC1EmPS1_, symObjAddr: 0x12868, symBinAddr: 0x100013B5C, symSize: 0x3C }
  - { offsetInCU: 0x2F587, offset: 0x2F587, size: 0x8, addend: 0x0, symName: __ZN9rapidjson8internal5StackINS_12CrtAllocatorEEC2EPS2_m, symObjAddr: 0x128A4, symBinAddr: 0x100013B98, symSize: 0x3C }
  - { offsetInCU: 0x2F5CD, offset: 0x2F5CD, size: 0x8, addend: 0x0, symName: __ZN9rapidjson11ParseResultC2Ev, symObjAddr: 0x128E0, symBinAddr: 0x100013BD4, symSize: 0x1C }
  - { offsetInCU: 0x2F5F7, offset: 0x2F5F7, size: 0x8, addend: 0x0, symName: __ZN9rapidjson19MemoryPoolAllocatorINS_12CrtAllocatorEEC2EmPS1_, symObjAddr: 0x128FC, symBinAddr: 0x100013BF0, symSize: 0x1E8 }
  - { offsetInCU: 0x2F63D, offset: 0x2F63D, size: 0x8, addend: 0x0, symName: __ZN9rapidjson19MemoryPoolAllocatorINS_12CrtAllocatorEE12GetChunkHeadEPNS2_10SharedDataE, symObjAddr: 0x12AE4, symBinAddr: 0x100013DD8, symSize: 0x18 }
  - { offsetInCU: 0x2F660, offset: 0x2F660, size: 0x8, addend: 0x0, symName: __ZN9rapidjson15GenericDocumentINS_4UTF8IcEENS_19MemoryPoolAllocatorINS_12CrtAllocatorEEES4_ED2Ev, symObjAddr: 0x12AFC, symBinAddr: 0x100013DF0, symSize: 0x78 }
  - { offsetInCU: 0x2F68A, offset: 0x2F68A, size: 0x8, addend: 0x0, symName: __ZN9rapidjson12GenericValueINS_4UTF8IcEENS_19MemoryPoolAllocatorINS_12CrtAllocatorEEEE7SetNullEv, symObjAddr: 0x12B74, symBinAddr: 0x100013E68, symSize: 0x34 }
  - { offsetInCU: 0x2F6B0, offset: 0x2F6B0, size: 0x8, addend: 0x0, symName: __ZN9rapidjson15GenericDocumentINS_4UTF8IcEENS_19MemoryPoolAllocatorINS_12CrtAllocatorEEES4_E7DestroyEv, symObjAddr: 0x12BA8, symBinAddr: 0x100013E9C, symSize: 0x4C }
  - { offsetInCU: 0x2F6D6, offset: 0x2F6D6, size: 0x8, addend: 0x0, symName: __ZN9rapidjson12GenericValueINS_4UTF8IcEENS_19MemoryPoolAllocatorINS_12CrtAllocatorEEEEC1Ev, symObjAddr: 0x12BF4, symBinAddr: 0x100013EE8, symSize: 0x2C }
  - { offsetInCU: 0x2F700, offset: 0x2F700, size: 0x8, addend: 0x0, symName: __ZN9rapidjson19MemoryPoolAllocatorINS_12CrtAllocatorEED1Ev, symObjAddr: 0x12C20, symBinAddr: 0x100013F14, symSize: 0x2C }
  - { offsetInCU: 0x2F72A, offset: 0x2F72A, size: 0x8, addend: 0x0, symName: __ZN9rapidjson19MemoryPoolAllocatorINS_12CrtAllocatorEED2Ev, symObjAddr: 0x12C4C, symBinAddr: 0x100013F40, symSize: 0xD8 }
  - { offsetInCU: 0x2F771, offset: 0x2F771, size: 0x8, addend: 0x0, symName: __ZN9rapidjson19MemoryPoolAllocatorINS_12CrtAllocatorEE5ClearEv, symObjAddr: 0x12D24, symBinAddr: 0x100014018, symSize: 0xCC }
  - { offsetInCU: 0x2F7B4, offset: 0x2F7B4, size: 0x8, addend: 0x0, symName: __ZN9rapidjson19GenericStringBufferINS_4UTF8IcEENS_12CrtAllocatorEEC2EPS3_m, symObjAddr: 0x12DF0, symBinAddr: 0x1000140E4, symSize: 0x3C }
  - { offsetInCU: 0x2F7FA, offset: 0x2F7FA, size: 0x8, addend: 0x0, symName: __ZN9rapidjson6WriterINS_19GenericStringBufferINS_4UTF8IcEENS_12CrtAllocatorEEES3_S3_S4_Lj0EEC2ERS5_PS4_m, symObjAddr: 0x12E2C, symBinAddr: 0x100014120, symSize: 0x5C }
  - { offsetInCU: 0x2F84E, offset: 0x2F84E, size: 0x8, addend: 0x0, symName: __ZNK9rapidjson12GenericValueINS_4UTF8IcEENS_19MemoryPoolAllocatorINS_12CrtAllocatorEEEE7GetTypeEv, symObjAddr: 0x12E88, symBinAddr: 0x10001417C, symSize: 0x1C }
  - { offsetInCU: 0x2F874, offset: 0x2F874, size: 0x8, addend: 0x0, symName: __ZN9rapidjson6WriterINS_19GenericStringBufferINS_4UTF8IcEENS_12CrtAllocatorEEES3_S3_S4_Lj0EE4NullEv, symObjAddr: 0x12EA4, symBinAddr: 0x100014198, symSize: 0x48 }
  - { offsetInCU: 0x2F89A, offset: 0x2F89A, size: 0x8, addend: 0x0, symName: __ZN9rapidjson6WriterINS_19GenericStringBufferINS_4UTF8IcEENS_12CrtAllocatorEEES3_S3_S4_Lj0EE4BoolEb, symObjAddr: 0x12EEC, symBinAddr: 0x1000141E0, symSize: 0x6C }
  - { offsetInCU: 0x2F8CE, offset: 0x2F8CE, size: 0x8, addend: 0x0, symName: __ZN9rapidjson6WriterINS_19GenericStringBufferINS_4UTF8IcEENS_12CrtAllocatorEEES3_S3_S4_Lj0EE11StartObjectEv, symObjAddr: 0x12F58, symBinAddr: 0x10001424C, symSize: 0x54 }
  - { offsetInCU: 0x2F8F4, offset: 0x2F8F4, size: 0x8, addend: 0x0, symName: __ZN9rapidjson6WriterINS_19GenericStringBufferINS_4UTF8IcEENS_12CrtAllocatorEEES3_S3_S4_Lj0EE3KeyEPKcjb, symObjAddr: 0x12FAC, symBinAddr: 0x1000142A0, symSize: 0x4C }
  - { offsetInCU: 0x2F944, offset: 0x2F944, size: 0x8, addend: 0x0, symName: __ZNK9rapidjson12GenericValueINS_4UTF8IcEENS_19MemoryPoolAllocatorINS_12CrtAllocatorEEEE15GetStringLengthEv, symObjAddr: 0x12FF8, symBinAddr: 0x1000142EC, symSize: 0x5C }
  - { offsetInCU: 0x2F96A, offset: 0x2F96A, size: 0x8, addend: 0x0, symName: __ZN9rapidjson6WriterINS_19GenericStringBufferINS_4UTF8IcEENS_12CrtAllocatorEEES3_S3_S4_Lj0EE9EndObjectEj, symObjAddr: 0x13054, symBinAddr: 0x100014348, symSize: 0x124 }
  - { offsetInCU: 0x2F99E, offset: 0x2F99E, size: 0x8, addend: 0x0, symName: __ZN9rapidjson6WriterINS_19GenericStringBufferINS_4UTF8IcEENS_12CrtAllocatorEEES3_S3_S4_Lj0EE10StartArrayEv, symObjAddr: 0x13178, symBinAddr: 0x10001446C, symSize: 0x54 }
  - { offsetInCU: 0x2F9C4, offset: 0x2F9C4, size: 0x8, addend: 0x0, symName: __ZNK9rapidjson12GenericValueINS_4UTF8IcEENS_19MemoryPoolAllocatorINS_12CrtAllocatorEEEE5BeginEv, symObjAddr: 0x131CC, symBinAddr: 0x1000144C0, symSize: 0x24 }
  - { offsetInCU: 0x2F9EA, offset: 0x2F9EA, size: 0x8, addend: 0x0, symName: __ZNK9rapidjson12GenericValueINS_4UTF8IcEENS_19MemoryPoolAllocatorINS_12CrtAllocatorEEEE3EndEv, symObjAddr: 0x131F0, symBinAddr: 0x1000144E4, symSize: 0x24 }
  - { offsetInCU: 0x2FA10, offset: 0x2FA10, size: 0x8, addend: 0x0, symName: __ZN9rapidjson6WriterINS_19GenericStringBufferINS_4UTF8IcEENS_12CrtAllocatorEEES3_S3_S4_Lj0EE8EndArrayEj, symObjAddr: 0x13214, symBinAddr: 0x100014508, symSize: 0xCC }
  - { offsetInCU: 0x2FA44, offset: 0x2FA44, size: 0x8, addend: 0x0, symName: __ZN9rapidjson6WriterINS_19GenericStringBufferINS_4UTF8IcEENS_12CrtAllocatorEEES3_S3_S4_Lj0EE6StringEPKcjb, symObjAddr: 0x132E0, symBinAddr: 0x1000145D4, symSize: 0xA0 }
  - { offsetInCU: 0x2FA94, offset: 0x2FA94, size: 0x8, addend: 0x0, symName: __ZN9rapidjson6WriterINS_19GenericStringBufferINS_4UTF8IcEENS_12CrtAllocatorEEES3_S3_S4_Lj0EE6DoubleEd, symObjAddr: 0x13380, symBinAddr: 0x100014674, symSize: 0x50 }
  - { offsetInCU: 0x2FAC8, offset: 0x2FAC8, size: 0x8, addend: 0x0, symName: __ZN9rapidjson6WriterINS_19GenericStringBufferINS_4UTF8IcEENS_12CrtAllocatorEEES3_S3_S4_Lj0EE3IntEi, symObjAddr: 0x133D0, symBinAddr: 0x1000146C4, symSize: 0x50 }
  - { offsetInCU: 0x2FAFC, offset: 0x2FAFC, size: 0x8, addend: 0x0, symName: __ZNK9rapidjson12GenericValueINS_4UTF8IcEENS_19MemoryPoolAllocatorINS_12CrtAllocatorEEEE6IsUintEv, symObjAddr: 0x13420, symBinAddr: 0x100014714, symSize: 0x24 }
  - { offsetInCU: 0x2FB22, offset: 0x2FB22, size: 0x8, addend: 0x0, symName: __ZN9rapidjson6WriterINS_19GenericStringBufferINS_4UTF8IcEENS_12CrtAllocatorEEES3_S3_S4_Lj0EE4UintEj, symObjAddr: 0x13444, symBinAddr: 0x100014738, symSize: 0x50 }
  - { offsetInCU: 0x2FB56, offset: 0x2FB56, size: 0x8, addend: 0x0, symName: __ZNK9rapidjson12GenericValueINS_4UTF8IcEENS_19MemoryPoolAllocatorINS_12CrtAllocatorEEEE7IsInt64Ev, symObjAddr: 0x13494, symBinAddr: 0x100014788, symSize: 0x24 }
  - { offsetInCU: 0x2FB7C, offset: 0x2FB7C, size: 0x8, addend: 0x0, symName: __ZN9rapidjson6WriterINS_19GenericStringBufferINS_4UTF8IcEENS_12CrtAllocatorEEES3_S3_S4_Lj0EE5Int64Ex, symObjAddr: 0x134B8, symBinAddr: 0x1000147AC, symSize: 0x50 }
  - { offsetInCU: 0x2FBB0, offset: 0x2FBB0, size: 0x8, addend: 0x0, symName: __ZN9rapidjson6WriterINS_19GenericStringBufferINS_4UTF8IcEENS_12CrtAllocatorEEES3_S3_S4_Lj0EE6Uint64Ey, symObjAddr: 0x13508, symBinAddr: 0x1000147FC, symSize: 0x50 }
  - { offsetInCU: 0x2FBE4, offset: 0x2FBE4, size: 0x8, addend: 0x0, symName: __ZN9rapidjson6WriterINS_19GenericStringBufferINS_4UTF8IcEENS_12CrtAllocatorEEES3_S3_S4_Lj0EE6PrefixENS_4TypeE, symObjAddr: 0x13558, symBinAddr: 0x10001484C, symSize: 0x1A4 }
  - { offsetInCU: 0x2FC36, offset: 0x2FC36, size: 0x8, addend: 0x0, symName: __ZN9rapidjson6WriterINS_19GenericStringBufferINS_4UTF8IcEENS_12CrtAllocatorEEES3_S3_S4_Lj0EE8EndValueEb, symObjAddr: 0x136FC, symBinAddr: 0x1000149F0, symSize: 0x54 }
  - { offsetInCU: 0x2FC6B, offset: 0x2FC6B, size: 0x8, addend: 0x0, symName: __ZN9rapidjson6WriterINS_19GenericStringBufferINS_4UTF8IcEENS_12CrtAllocatorEEES3_S3_S4_Lj0EE9WriteNullEv, symObjAddr: 0x13750, symBinAddr: 0x100014A44, symSize: 0x7C }
  - { offsetInCU: 0x2FC91, offset: 0x2FC91, size: 0x8, addend: 0x0, symName: __ZNK9rapidjson8internal5StackINS_12CrtAllocatorEE7GetSizeEv, symObjAddr: 0x137CC, symBinAddr: 0x100014AC0, symSize: 0x20 }
  - { offsetInCU: 0x2FCB7, offset: 0x2FCB7, size: 0x8, addend: 0x0, symName: __ZN9rapidjson8internal5StackINS_12CrtAllocatorEE3TopINS_6WriterINS_19GenericStringBufferINS_4UTF8IcEES2_EES8_S8_S2_Lj0EE5LevelEEEPT_v, symObjAddr: 0x137EC, symBinAddr: 0x100014AE0, symSize: 0x68 }
  - { offsetInCU: 0x2FCE6, offset: 0x2FCE6, size: 0x8, addend: 0x0, symName: __ZN9rapidjson19GenericStringBufferINS_4UTF8IcEENS_12CrtAllocatorEE3PutEc, symObjAddr: 0x13854, symBinAddr: 0x100014B48, symSize: 0x3C }
  - { offsetInCU: 0x2FD1A, offset: 0x2FD1A, size: 0x8, addend: 0x0, symName: __ZN9rapidjson8internal5StackINS_12CrtAllocatorEE4PushIcEEPT_m, symObjAddr: 0x13890, symBinAddr: 0x100014B84, symSize: 0x3C }
  - { offsetInCU: 0x2FD57, offset: 0x2FD57, size: 0x8, addend: 0x0, symName: __ZN9rapidjson8internal5StackINS_12CrtAllocatorEE7ReserveIcEEvm, symObjAddr: 0x138CC, symBinAddr: 0x100014BC0, symSize: 0x60 }
  - { offsetInCU: 0x2FD94, offset: 0x2FD94, size: 0x8, addend: 0x0, symName: __ZN9rapidjson8internal5StackINS_12CrtAllocatorEE10PushUnsafeIcEEPT_m, symObjAddr: 0x1392C, symBinAddr: 0x100014C20, symSize: 0xD8 }
  - { offsetInCU: 0x2FDDF, offset: 0x2FDDF, size: 0x8, addend: 0x0, symName: __ZN9rapidjson8internal5StackINS_12CrtAllocatorEE6ExpandIcEEvm, symObjAddr: 0x13A04, symBinAddr: 0x100014CF8, symSize: 0xF8 }
  - { offsetInCU: 0x2FE38, offset: 0x2FE38, size: 0x8, addend: 0x0, symName: __ZNK9rapidjson8internal5StackINS_12CrtAllocatorEE11GetCapacityEv, symObjAddr: 0x13AFC, symBinAddr: 0x100014DF0, symSize: 0x20 }
  - { offsetInCU: 0x2FE5E, offset: 0x2FE5E, size: 0x8, addend: 0x0, symName: __ZN9rapidjson8internal5StackINS_12CrtAllocatorEE6ResizeEm, symObjAddr: 0x13B1C, symBinAddr: 0x100014E10, symSize: 0x88 }
  - { offsetInCU: 0x2FEA0, offset: 0x2FEA0, size: 0x8, addend: 0x0, symName: __ZN9rapidjson12CrtAllocator7ReallocEPvmm, symObjAddr: 0x13BA4, symBinAddr: 0x100014E98, symSize: 0x64 }
  - { offsetInCU: 0x2FEF0, offset: 0x2FEF0, size: 0x8, addend: 0x0, symName: __ZNK9rapidjson8internal5StackINS_12CrtAllocatorEE5EmptyEv, symObjAddr: 0x13C08, symBinAddr: 0x100014EFC, symSize: 0x28 }
  - { offsetInCU: 0x2FF16, offset: 0x2FF16, size: 0x8, addend: 0x0, symName: __ZN9rapidjson6WriterINS_19GenericStringBufferINS_4UTF8IcEENS_12CrtAllocatorEEES3_S3_S4_Lj0EE5FlushEv, symObjAddr: 0x13C30, symBinAddr: 0x100014F24, symSize: 0x28 }
  - { offsetInCU: 0x2FF3C, offset: 0x2FF3C, size: 0x8, addend: 0x0, symName: __ZN9rapidjson19GenericStringBufferINS_4UTF8IcEENS_12CrtAllocatorEE5FlushEv, symObjAddr: 0x13C58, symBinAddr: 0x100014F4C, symSize: 0x10 }
  - { offsetInCU: 0x2FF62, offset: 0x2FF62, size: 0x8, addend: 0x0, symName: __ZN9rapidjson19GenericStringBufferINS_4UTF8IcEENS_12CrtAllocatorEE7ReserveEm, symObjAddr: 0x13CC0, symBinAddr: 0x100014FB4, symSize: 0x2C }
  - { offsetInCU: 0x2FF96, offset: 0x2FF96, size: 0x8, addend: 0x0, symName: __ZN9rapidjson19GenericStringBufferINS_4UTF8IcEENS_12CrtAllocatorEE9PutUnsafeEc, symObjAddr: 0x13CEC, symBinAddr: 0x100014FE0, symSize: 0x3C }
  - { offsetInCU: 0x2FFCA, offset: 0x2FFCA, size: 0x8, addend: 0x0, symName: __ZN9rapidjson6WriterINS_19GenericStringBufferINS_4UTF8IcEENS_12CrtAllocatorEEES3_S3_S4_Lj0EE9WriteBoolEb, symObjAddr: 0x13D28, symBinAddr: 0x10001501C, symSize: 0xFC }
  - { offsetInCU: 0x2FFFF, offset: 0x2FFFF, size: 0x8, addend: 0x0, symName: __ZN9rapidjson8internal5StackINS_12CrtAllocatorEE4PushINS_6WriterINS_19GenericStringBufferINS_4UTF8IcEES2_EES8_S8_S2_Lj0EE5LevelEEEPT_m, symObjAddr: 0x13E24, symBinAddr: 0x100015118, symSize: 0x3C }
  - { offsetInCU: 0x3003C, offset: 0x3003C, size: 0x8, addend: 0x0, symName: __ZN9rapidjson6WriterINS_19GenericStringBufferINS_4UTF8IcEENS_12CrtAllocatorEEES3_S3_S4_Lj0EE5LevelC1Eb, symObjAddr: 0x13E60, symBinAddr: 0x100015154, symSize: 0x40 }
  - { offsetInCU: 0x30075, offset: 0x30075, size: 0x8, addend: 0x0, symName: __ZN9rapidjson6WriterINS_19GenericStringBufferINS_4UTF8IcEENS_12CrtAllocatorEEES3_S3_S4_Lj0EE16WriteStartObjectEv, symObjAddr: 0x13EA0, symBinAddr: 0x100015194, symSize: 0x34 }
  - { offsetInCU: 0x3009B, offset: 0x3009B, size: 0x8, addend: 0x0, symName: __ZN9rapidjson8internal5StackINS_12CrtAllocatorEE7ReserveINS_6WriterINS_19GenericStringBufferINS_4UTF8IcEES2_EES8_S8_S2_Lj0EE5LevelEEEvm, symObjAddr: 0x13ED4, symBinAddr: 0x1000151C8, symSize: 0x60 }
  - { offsetInCU: 0x300D8, offset: 0x300D8, size: 0x8, addend: 0x0, symName: __ZN9rapidjson8internal5StackINS_12CrtAllocatorEE10PushUnsafeINS_6WriterINS_19GenericStringBufferINS_4UTF8IcEES2_EES8_S8_S2_Lj0EE5LevelEEEPT_m, symObjAddr: 0x13F34, symBinAddr: 0x100015228, symSize: 0xD8 }
  - { offsetInCU: 0x30123, offset: 0x30123, size: 0x8, addend: 0x0, symName: __ZN9rapidjson8internal5StackINS_12CrtAllocatorEE6ExpandINS_6WriterINS_19GenericStringBufferINS_4UTF8IcEES2_EES8_S8_S2_Lj0EE5LevelEEEvm, symObjAddr: 0x1400C, symBinAddr: 0x100015300, symSize: 0xF8 }
  - { offsetInCU: 0x3017C, offset: 0x3017C, size: 0x8, addend: 0x0, symName: __ZN9rapidjson6WriterINS_19GenericStringBufferINS_4UTF8IcEENS_12CrtAllocatorEEES3_S3_S4_Lj0EE5LevelC2Eb, symObjAddr: 0x14104, symBinAddr: 0x1000153F8, symSize: 0x30 }
  - { offsetInCU: 0x301B5, offset: 0x301B5, size: 0x8, addend: 0x0, symName: __ZN9rapidjson12GenericValueINS_4UTF8IcEENS_19MemoryPoolAllocatorINS_12CrtAllocatorEEEE16DataStringLengthERKNS6_4DataE, symObjAddr: 0x14134, symBinAddr: 0x100015428, symSize: 0x58 }
  - { offsetInCU: 0x301D9, offset: 0x301D9, size: 0x8, addend: 0x0, symName: __ZNK9rapidjson12GenericValueINS_4UTF8IcEENS_19MemoryPoolAllocatorINS_12CrtAllocatorEEEE11ShortString9GetLengthEv, symObjAddr: 0x1418C, symBinAddr: 0x100015480, symSize: 0x20 }
  - { offsetInCU: 0x301FF, offset: 0x301FF, size: 0x8, addend: 0x0, symName: __ZN9rapidjson8internal5StackINS_12CrtAllocatorEE3PopINS_6WriterINS_19GenericStringBufferINS_4UTF8IcEES2_EES8_S8_S2_Lj0EE5LevelEEEPT_m, symObjAddr: 0x141AC, symBinAddr: 0x1000154A0, symSize: 0x80 }
  - { offsetInCU: 0x3023C, offset: 0x3023C, size: 0x8, addend: 0x0, symName: __ZN9rapidjson6WriterINS_19GenericStringBufferINS_4UTF8IcEENS_12CrtAllocatorEEES3_S3_S4_Lj0EE14WriteEndObjectEv, symObjAddr: 0x1422C, symBinAddr: 0x100015520, symSize: 0x34 }
  - { offsetInCU: 0x30262, offset: 0x30262, size: 0x8, addend: 0x0, symName: __ZN9rapidjson6WriterINS_19GenericStringBufferINS_4UTF8IcEENS_12CrtAllocatorEEES3_S3_S4_Lj0EE15WriteStartArrayEv, symObjAddr: 0x14260, symBinAddr: 0x100015554, symSize: 0x34 }
  - { offsetInCU: 0x30288, offset: 0x30288, size: 0x8, addend: 0x0, symName: __ZN9rapidjson12GenericValueINS_4UTF8IcEENS_19MemoryPoolAllocatorINS_12CrtAllocatorEEEE5BeginEv, symObjAddr: 0x14294, symBinAddr: 0x100015588, symSize: 0x5C }
  - { offsetInCU: 0x302AE, offset: 0x302AE, size: 0x8, addend: 0x0, symName: __ZNK9rapidjson12GenericValueINS_4UTF8IcEENS_19MemoryPoolAllocatorINS_12CrtAllocatorEEEE7IsArrayEv, symObjAddr: 0x142F0, symBinAddr: 0x1000155E4, symSize: 0x24 }
  - { offsetInCU: 0x302D4, offset: 0x302D4, size: 0x8, addend: 0x0, symName: __ZNK9rapidjson12GenericValueINS_4UTF8IcEENS_19MemoryPoolAllocatorINS_12CrtAllocatorEEEE18GetElementsPointerEv, symObjAddr: 0x14314, symBinAddr: 0x100015608, symSize: 0x18 }
  - { offsetInCU: 0x302FA, offset: 0x302FA, size: 0x8, addend: 0x0, symName: __ZN9rapidjson12GenericValueINS_4UTF8IcEENS_19MemoryPoolAllocatorINS_12CrtAllocatorEEEE3EndEv, symObjAddr: 0x1432C, symBinAddr: 0x100015620, symSize: 0x70 }
  - { offsetInCU: 0x30320, offset: 0x30320, size: 0x8, addend: 0x0, symName: __ZN9rapidjson6WriterINS_19GenericStringBufferINS_4UTF8IcEENS_12CrtAllocatorEEES3_S3_S4_Lj0EE13WriteEndArrayEv, symObjAddr: 0x1439C, symBinAddr: 0x100015690, symSize: 0x34 }
  - { offsetInCU: 0x30346, offset: 0x30346, size: 0x8, addend: 0x0, symName: __ZN9rapidjson19GenericStringStreamINS_4UTF8IcEEEC1EPKc, symObjAddr: 0x145A4, symBinAddr: 0x100015898, symSize: 0x34 }
  - { offsetInCU: 0x3037E, offset: 0x3037E, size: 0x8, addend: 0x0, symName: __ZN9rapidjson6WriterINS_19GenericStringBufferINS_4UTF8IcEENS_12CrtAllocatorEEES3_S3_S4_Lj0EE24ScanWriteUnescapedStringERNS_19GenericStringStreamIS3_EEm, symObjAddr: 0x145D8, symBinAddr: 0x1000158CC, symSize: 0x3C }
  - { offsetInCU: 0x303C2, offset: 0x303C2, size: 0x8, addend: 0x0, symName: __ZNK9rapidjson19GenericStringStreamINS_4UTF8IcEEE4PeekEv, symObjAddr: 0x14614, symBinAddr: 0x100015908, symSize: 0x1C }
  - { offsetInCU: 0x303E8, offset: 0x303E8, size: 0x8, addend: 0x0, symName: __ZN9rapidjson19GenericStringStreamINS_4UTF8IcEEE4TakeEv, symObjAddr: 0x14630, symBinAddr: 0x100015924, symSize: 0x24 }
  - { offsetInCU: 0x3040E, offset: 0x3040E, size: 0x8, addend: 0x0, symName: __ZN9rapidjson10TranscoderINS_4UTF8IcEES2_E15TranscodeUnsafeINS_19GenericStringStreamIS2_EENS_19GenericStringBufferIS2_NS_12CrtAllocatorEEEEEbRT_RT0_, symObjAddr: 0x14654, symBinAddr: 0x100015948, symSize: 0x48 }
  - { offsetInCU: 0x30453, offset: 0x30453, size: 0x8, addend: 0x0, symName: __ZN9rapidjson19GenericStringStreamINS_4UTF8IcEEEC2EPKc, symObjAddr: 0x1469C, symBinAddr: 0x100015990, symSize: 0x28 }
  - { offsetInCU: 0x3048B, offset: 0x3048B, size: 0x8, addend: 0x0, symName: __ZNK9rapidjson19GenericStringStreamINS_4UTF8IcEEE4TellEv, symObjAddr: 0x146C4, symBinAddr: 0x1000159B8, symSize: 0x20 }
  - { offsetInCU: 0x304B1, offset: 0x304B1, size: 0x8, addend: 0x0, symName: __ZN9rapidjson6WriterINS_19GenericStringBufferINS_4UTF8IcEENS_12CrtAllocatorEEES3_S3_S4_Lj0EE11WriteDoubleEd, symObjAddr: 0x146E4, symBinAddr: 0x1000159D8, symSize: 0xC8 }
  - { offsetInCU: 0x30504, offset: 0x30504, size: 0x8, addend: 0x0, symName: __ZN9rapidjson8internal6DoubleC1Ed, symObjAddr: 0x147AC, symBinAddr: 0x100015AA0, symSize: 0x34 }
  - { offsetInCU: 0x3053C, offset: 0x3053C, size: 0x8, addend: 0x0, symName: __ZNK9rapidjson8internal6Double10IsNanOrInfEv, symObjAddr: 0x147E0, symBinAddr: 0x100015AD4, symSize: 0x2C }
  - { offsetInCU: 0x30562, offset: 0x30562, size: 0x8, addend: 0x0, symName: __ZN9rapidjson19GenericStringBufferINS_4UTF8IcEENS_12CrtAllocatorEE4PushEm, symObjAddr: 0x1480C, symBinAddr: 0x100015B00, symSize: 0x2C }
  - { offsetInCU: 0x30596, offset: 0x30596, size: 0x8, addend: 0x0, symName: __ZN9rapidjson19GenericStringBufferINS_4UTF8IcEENS_12CrtAllocatorEE3PopEm, symObjAddr: 0x14978, symBinAddr: 0x100015C6C, symSize: 0x2C }
  - { offsetInCU: 0x305CA, offset: 0x305CA, size: 0x8, addend: 0x0, symName: __ZN9rapidjson8internal6DoubleC2Ed, symObjAddr: 0x149A4, symBinAddr: 0x100015C98, symSize: 0x20 }
  - { offsetInCU: 0x30602, offset: 0x30602, size: 0x8, addend: 0x0, symName: __ZNK9rapidjson8internal6Double6IsZeroEv, symObjAddr: 0x149C4, symBinAddr: 0x100015CB8, symSize: 0x24 }
  - { offsetInCU: 0x30628, offset: 0x30628, size: 0x8, addend: 0x0, symName: __ZNK9rapidjson8internal6Double4SignEv, symObjAddr: 0x149E8, symBinAddr: 0x100015CDC, symSize: 0x24 }
  - { offsetInCU: 0x3064E, offset: 0x3064E, size: 0x8, addend: 0x0, symName: __ZN9rapidjson8internal5DiyFpC1Ed, symObjAddr: 0x14FE8, symBinAddr: 0x1000162DC, symSize: 0x34 }
  - { offsetInCU: 0x30686, offset: 0x30686, size: 0x8, addend: 0x0, symName: __ZN9rapidjson8internal5DiyFpC1Ev, symObjAddr: 0x1501C, symBinAddr: 0x100016310, symSize: 0x2C }
  - { offsetInCU: 0x306B0, offset: 0x306B0, size: 0x8, addend: 0x0, symName: __ZNK9rapidjson8internal5DiyFp20NormalizedBoundariesEPS1_S2_, symObjAddr: 0x15048, symBinAddr: 0x10001633C, symSize: 0x108 }
  - { offsetInCU: 0x3070E, offset: 0x3070E, size: 0x8, addend: 0x0, symName: __ZNK9rapidjson8internal5DiyFp9NormalizeEv, symObjAddr: 0x15224, symBinAddr: 0x100016518, symSize: 0x5C }
  - { offsetInCU: 0x30742, offset: 0x30742, size: 0x8, addend: 0x0, symName: __ZNK9rapidjson8internal5DiyFpmlERKS1_, symObjAddr: 0x15280, symBinAddr: 0x100016574, symSize: 0x104 }
  - { offsetInCU: 0x30802, offset: 0x30802, size: 0x8, addend: 0x0, symName: __ZN9rapidjson8internal5DiyFpC2Ed, symObjAddr: 0x158A8, symBinAddr: 0x100016B9C, symSize: 0x98 }
  - { offsetInCU: 0x30891, offset: 0x30891, size: 0x8, addend: 0x0, symName: __ZN9rapidjson8internal5DiyFpC2Ev, symObjAddr: 0x15940, symBinAddr: 0x100016C34, symSize: 0x1C }
  - { offsetInCU: 0x308BB, offset: 0x308BB, size: 0x8, addend: 0x0, symName: __ZN9rapidjson8internal5DiyFpC1Eyi, symObjAddr: 0x1595C, symBinAddr: 0x100016C50, symSize: 0x3C }
  - { offsetInCU: 0x30901, offset: 0x30901, size: 0x8, addend: 0x0, symName: __ZNK9rapidjson8internal5DiyFp17NormalizeBoundaryEv, symObjAddr: 0x15998, symBinAddr: 0x100016C8C, symSize: 0x70 }
  - { offsetInCU: 0x30935, offset: 0x30935, size: 0x8, addend: 0x0, symName: __ZN9rapidjson8internal5DiyFpC2Eyi, symObjAddr: 0x15A08, symBinAddr: 0x100016CFC, symSize: 0x2C }
  - { offsetInCU: 0x3097B, offset: 0x3097B, size: 0x8, addend: 0x0, symName: __ZNK9rapidjson8internal5DiyFpmiERKS1_, symObjAddr: 0x15B18, symBinAddr: 0x100016E0C, symSize: 0x48 }
  - { offsetInCU: 0x309AF, offset: 0x309AF, size: 0x8, addend: 0x0, symName: __ZN9rapidjson8internal5StackINS_12CrtAllocatorEE3PopIcEEPT_m, symObjAddr: 0x15F38, symBinAddr: 0x10001722C, symSize: 0x80 }
  - { offsetInCU: 0x309EC, offset: 0x309EC, size: 0x8, addend: 0x0, symName: __ZN9rapidjson6WriterINS_19GenericStringBufferINS_4UTF8IcEENS_12CrtAllocatorEEES3_S3_S4_Lj0EE8WriteIntEi, symObjAddr: 0x15FB8, symBinAddr: 0x1000172AC, symSize: 0x74 }
  - { offsetInCU: 0x30A3F, offset: 0x30A3F, size: 0x8, addend: 0x0, symName: __ZN9rapidjson6WriterINS_19GenericStringBufferINS_4UTF8IcEENS_12CrtAllocatorEEES3_S3_S4_Lj0EE9WriteUintEj, symObjAddr: 0x1669C, symBinAddr: 0x100017990, symSize: 0x74 }
  - { offsetInCU: 0x30A92, offset: 0x30A92, size: 0x8, addend: 0x0, symName: __ZN9rapidjson6WriterINS_19GenericStringBufferINS_4UTF8IcEENS_12CrtAllocatorEEES3_S3_S4_Lj0EE10WriteInt64Ex, symObjAddr: 0x16710, symBinAddr: 0x100017A04, symSize: 0x74 }
  - { offsetInCU: 0x30AE5, offset: 0x30AE5, size: 0x8, addend: 0x0, symName: __ZN9rapidjson6WriterINS_19GenericStringBufferINS_4UTF8IcEENS_12CrtAllocatorEEES3_S3_S4_Lj0EE11WriteUint64Ey, symObjAddr: 0x175E8, symBinAddr: 0x1000188DC, symSize: 0x74 }
  - { offsetInCU: 0x30B38, offset: 0x30B38, size: 0x8, addend: 0x0, symName: __ZN9rapidjson8internal5StackINS_12CrtAllocatorEE6BottomIcEEPT_v, symObjAddr: 0x1765C, symBinAddr: 0x100018950, symSize: 0x18 }
  - { offsetInCU: 0x30B8A, offset: 0x30B8A, size: 0x8, addend: 0x0, symName: __ZNKSt3__113basic_ostreamIcNS_11char_traitsIcEEE6sentrycvbB8ue170006Ev, symObjAddr: 0x17860, symBinAddr: 0x100018B54, symSize: 0x1C }
  - { offsetInCU: 0x30BB0, offset: 0x30BB0, size: 0x8, addend: 0x0, symName: __ZNSt3__119ostreambuf_iteratorIcNS_11char_traitsIcEEEC1B8ue170006ERNS_13basic_ostreamIcS2_EE, symObjAddr: 0x17ABC, symBinAddr: 0x100018DB0, symSize: 0x34 }
  - { offsetInCU: 0x30BE8, offset: 0x30BE8, size: 0x8, addend: 0x0, symName: __ZNKSt3__18ios_base5flagsB8ue170006Ev, symObjAddr: 0x17AF0, symBinAddr: 0x100018DE4, symSize: 0x18 }
  - { offsetInCU: 0x30C10, offset: 0x30C10, size: 0x8, addend: 0x0, symName: __ZNKSt3__19basic_iosIcNS_11char_traitsIcEEE4fillB8ue170006Ev, symObjAddr: 0x17B08, symBinAddr: 0x100018DFC, symSize: 0x64 }
  - { offsetInCU: 0x30C38, offset: 0x30C38, size: 0x8, addend: 0x0, symName: __ZNKSt3__119ostreambuf_iteratorIcNS_11char_traitsIcEEE6failedB8ue170006Ev, symObjAddr: 0x17B6C, symBinAddr: 0x100018E60, symSize: 0x24 }
  - { offsetInCU: 0x30C5E, offset: 0x30C5E, size: 0x8, addend: 0x0, symName: __ZNSt3__19basic_iosIcNS_11char_traitsIcEEE8setstateB8ue170006Ej, symObjAddr: 0x17B90, symBinAddr: 0x100018E84, symSize: 0x2C }
  - { offsetInCU: 0x30C93, offset: 0x30C93, size: 0x8, addend: 0x0, symName: __ZNKSt3__18ios_base5widthB8ue170006Ev, symObjAddr: 0x17BBC, symBinAddr: 0x100018EB0, symSize: 0x18 }
  - { offsetInCU: 0x30CBB, offset: 0x30CBB, size: 0x8, addend: 0x0, symName: __ZNSt3__115basic_streambufIcNS_11char_traitsIcEEE5sputnB8ue170006EPKcl, symObjAddr: 0x17BD4, symBinAddr: 0x100018EC8, symSize: 0x3C }
  - { offsetInCU: 0x30CFD, offset: 0x30CFD, size: 0x8, addend: 0x0, symName: __ZNSt3__112basic_stringIcNS_11char_traitsIcEENS_9allocatorIcEEEC1B8ue170006Emc, symObjAddr: 0x17C10, symBinAddr: 0x100018F04, symSize: 0x3C }
  - { offsetInCU: 0x30D45, offset: 0x30D45, size: 0x8, addend: 0x0, symName: __ZNSt3__112basic_stringIcNS_11char_traitsIcEENS_9allocatorIcEEE4dataB8ue170006Ev, symObjAddr: 0x17C4C, symBinAddr: 0x100018F40, symSize: 0x28 }
  - { offsetInCU: 0x30D6B, offset: 0x30D6B, size: 0x8, addend: 0x0, symName: __ZNSt3__18ios_base5widthB8ue170006El, symObjAddr: 0x17C74, symBinAddr: 0x100018F68, symSize: 0x2C }
  - { offsetInCU: 0x30DB1, offset: 0x30DB1, size: 0x8, addend: 0x0, symName: __ZNSt3__112basic_stringIcNS_11char_traitsIcEENS_9allocatorIcEEEC2B8ue170006Emc, symObjAddr: 0x17CA0, symBinAddr: 0x100018F94, symSize: 0x4C }
  - { offsetInCU: 0x30DF9, offset: 0x30DF9, size: 0x8, addend: 0x0, symName: __ZNSt3__112basic_stringIcNS_11char_traitsIcEENS_9allocatorIcEEE13__get_pointerB8ue170006Ev, symObjAddr: 0x17CEC, symBinAddr: 0x100018FE0, symSize: 0x54 }
  - { offsetInCU: 0x30E1F, offset: 0x30E1F, size: 0x8, addend: 0x0, symName: __ZNSt3__112basic_stringIcNS_11char_traitsIcEENS_9allocatorIcEEE18__get_long_pointerB8ue170006Ev, symObjAddr: 0x17D40, symBinAddr: 0x100019034, symSize: 0x28 }
  - { offsetInCU: 0x30E45, offset: 0x30E45, size: 0x8, addend: 0x0, symName: __ZNSt3__112basic_stringIcNS_11char_traitsIcEENS_9allocatorIcEEE19__get_short_pointerB8ue170006Ev, symObjAddr: 0x17D68, symBinAddr: 0x10001905C, symSize: 0x28 }
  - { offsetInCU: 0x30E6B, offset: 0x30E6B, size: 0x8, addend: 0x0, symName: __ZNSt3__114pointer_traitsIPcE10pointer_toB8ue170006ERc, symObjAddr: 0x17D90, symBinAddr: 0x100019084, symSize: 0x14 }
  - { offsetInCU: 0x30E8E, offset: 0x30E8E, size: 0x8, addend: 0x0, symName: __ZNSt3__119ostreambuf_iteratorIcNS_11char_traitsIcEEEC2B8ue170006ERNS_13basic_ostreamIcS2_EE, symObjAddr: 0x17DA4, symBinAddr: 0x100019098, symSize: 0x54 }
  - { offsetInCU: 0x30EC6, offset: 0x30EC6, size: 0x8, addend: 0x0, symName: __ZNKSt3__19basic_iosIcNS_11char_traitsIcEEE5rdbufB8ue170006Ev, symObjAddr: 0x17DF8, symBinAddr: 0x1000190EC, symSize: 0x24 }
  - { offsetInCU: 0x30EEE, offset: 0x30EEE, size: 0x8, addend: 0x0, symName: __ZNKSt3__18ios_base5rdbufB8ue170006Ev, symObjAddr: 0x17E1C, symBinAddr: 0x100019110, symSize: 0x18 }
  - { offsetInCU: 0x30F14, offset: 0x30F14, size: 0x8, addend: 0x0, symName: __ZNSt3__111char_traitsIcE11eq_int_typeB8ue170006Eii, symObjAddr: 0x17E34, symBinAddr: 0x100019128, symSize: 0x28 }
  - { offsetInCU: 0x30F47, offset: 0x30F47, size: 0x8, addend: 0x0, symName: __ZNKSt3__19basic_iosIcNS_11char_traitsIcEEE5widenB8ue170006Ec, symObjAddr: 0x17E5C, symBinAddr: 0x100019150, symSize: 0x84 }
  - { offsetInCU: 0x30FB7, offset: 0x30FB7, size: 0x8, addend: 0x0, symName: __ZNKSt3__15ctypeIcE5widenB8ue170006Ec, symObjAddr: 0x17F0C, symBinAddr: 0x100019200, symSize: 0x38 }
  - { offsetInCU: 0x30FEC, offset: 0x30FEC, size: 0x8, addend: 0x0, symName: __ZNSt3__18ios_base8setstateB8ue170006Ej, symObjAddr: 0x17F44, symBinAddr: 0x100019238, symSize: 0x34 }
  - { offsetInCU: 0x31023, offset: 0x31023, size: 0x8, addend: 0x0, symName: __ZN9rapidjson21GenericMemberIteratorILb1ENS_4UTF8IcEENS_19MemoryPoolAllocatorINS_12CrtAllocatorEEEEC1EPKNS_13GenericMemberIS2_S5_EE, symObjAddr: 0x17F78, symBinAddr: 0x10001926C, symSize: 0x34 }
  - { offsetInCU: 0x3105C, offset: 0x3105C, size: 0x8, addend: 0x0, symName: __ZN9rapidjson21GenericMemberIteratorILb1ENS_4UTF8IcEENS_19MemoryPoolAllocatorINS_12CrtAllocatorEEEEC2EPKNS_13GenericMemberIS2_S5_EE, symObjAddr: 0x17FAC, symBinAddr: 0x1000192A0, symSize: 0x20 }
  - { offsetInCU: 0x31095, offset: 0x31095, size: 0x8, addend: 0x0, symName: __ZN9rapidjson12GenericValueINS_4UTF8IcEENS_19MemoryPoolAllocatorINS_12CrtAllocatorEEEE10DataStringERKNS6_4DataE, symObjAddr: 0x17FCC, symBinAddr: 0x1000192C0, symSize: 0x48 }
  - { offsetInCU: 0x310B9, offset: 0x310B9, size: 0x8, addend: 0x0, symName: __ZN5utils10TypeErasedC2IivEEOT_, symObjAddr: 0x18014, symBinAddr: 0x100019308, symSize: 0x64 }
  - { offsetInCU: 0x310FB, offset: 0x310FB, size: 0x8, addend: 0x0, symName: __ZN5utils10TypeErased7emplaceIiJiEEENSt3__19enable_ifIXaasr3stdE18is_constructible_vIu7__decayIT_EDpT0_Esr3stdE23is_copy_constructible_vIS5_EERS5_E4typeEDpOS6_, symObjAddr: 0x18078, symBinAddr: 0x10001936C, symSize: 0x6C }
  - { offsetInCU: 0x3115F, offset: 0x3115F, size: 0x8, addend: 0x0, symName: __ZNKSt3__110unique_ptrIN5utils10TypeErased5ModelIiEENS_14default_deleteIS4_EEEptB8ue170006Ev, symObjAddr: 0x18150, symBinAddr: 0x100019444, symSize: 0x28 }
  - { offsetInCU: 0x31185, offset: 0x31185, size: 0x8, addend: 0x0, symName: __ZNSt3__110unique_ptrIN5utils10TypeErased4BaseENS_14default_deleteIS3_EEEaSB8ue170006INS2_5ModelIiEENS4_IS9_EEvvEERS6_ONS0_IT_T0_EE, symObjAddr: 0x18178, symBinAddr: 0x10001946C, symSize: 0x60 }
  - { offsetInCU: 0x311CD, offset: 0x311CD, size: 0x8, addend: 0x0, symName: __ZNSt3__110unique_ptrIN5utils10TypeErased5ModelIiEENS_14default_deleteIS4_EEED1B8ue170006Ev, symObjAddr: 0x181D8, symBinAddr: 0x1000194CC, symSize: 0x2C }
  - { offsetInCU: 0x311FD, offset: 0x311FD, size: 0x8, addend: 0x0, symName: __ZN5utils10TypeErased5ModelIiEC1IiEEOT_, symObjAddr: 0x18204, symBinAddr: 0x1000194F8, symSize: 0x34 }
  - { offsetInCU: 0x3123E, offset: 0x3123E, size: 0x8, addend: 0x0, symName: __ZNSt3__110unique_ptrIN5utils10TypeErased5ModelIiEENS_14default_deleteIS4_EEEC1B8ue170006ILb1EvEEPS4_, symObjAddr: 0x18238, symBinAddr: 0x10001952C, symSize: 0x34 }
  - { offsetInCU: 0x31281, offset: 0x31281, size: 0x8, addend: 0x0, symName: __ZN5utils10TypeErased5ModelIiEC2IiEEOT_, symObjAddr: 0x1826C, symBinAddr: 0x100019560, symSize: 0x54 }
  - { offsetInCU: 0x312C2, offset: 0x312C2, size: 0x8, addend: 0x0, symName: __ZN5utils10TypeErased5ModelIiED1Ev, symObjAddr: 0x182C0, symBinAddr: 0x1000195B4, symSize: 0x2C }
  - { offsetInCU: 0x312EE, offset: 0x312EE, size: 0x8, addend: 0x0, symName: __ZN5utils10TypeErased5ModelIiED0Ev, symObjAddr: 0x182EC, symBinAddr: 0x1000195E0, symSize: 0x30 }
  - { offsetInCU: 0x3131A, offset: 0x3131A, size: 0x8, addend: 0x0, symName: __ZNK5utils10TypeErased5ModelIiE4typeEv, symObjAddr: 0x1831C, symBinAddr: 0x100019610, symSize: 0x18 }
  - { offsetInCU: 0x31340, offset: 0x31340, size: 0x8, addend: 0x0, symName: __ZNK5utils10TypeErased5ModelIiEeqERKNS0_4BaseE, symObjAddr: 0x18334, symBinAddr: 0x100019628, symSize: 0x108 }
  - { offsetInCU: 0x31390, offset: 0x31390, size: 0x8, addend: 0x0, symName: __ZNK5utils10TypeErased5ModelIiE5cloneEv, symObjAddr: 0x1843C, symBinAddr: 0x100019730, symSize: 0x4C }
  - { offsetInCU: 0x313B6, offset: 0x313B6, size: 0x8, addend: 0x0, symName: __ZN5utils10TypeErased5ModelIiED2Ev, symObjAddr: 0x18488, symBinAddr: 0x10001977C, symSize: 0x2C }
  - { offsetInCU: 0x313E2, offset: 0x313E2, size: 0x8, addend: 0x0, symName: __ZNSt3__110unique_ptrIN5utils10TypeErased4BaseENS_14default_deleteIS3_EEEC1B8ue170006INS2_5ModelIiEENS4_IS9_EEvvEEONS0_IT_T0_EE, symObjAddr: 0x18520, symBinAddr: 0x100019814, symSize: 0x34 }
  - { offsetInCU: 0x3142E, offset: 0x3142E, size: 0x8, addend: 0x0, symName: __ZN5utils10TypeErased5ModelIiEC1IRKiEEOT_, symObjAddr: 0x18554, symBinAddr: 0x100019848, symSize: 0x34 }
  - { offsetInCU: 0x3146F, offset: 0x3146F, size: 0x8, addend: 0x0, symName: __ZN5utils10TypeErased5ModelIiEC2IRKiEEOT_, symObjAddr: 0x18588, symBinAddr: 0x10001987C, symSize: 0x54 }
  - { offsetInCU: 0x314B0, offset: 0x314B0, size: 0x8, addend: 0x0, symName: __ZNSt3__110unique_ptrIN5utils10TypeErased4BaseENS_14default_deleteIS3_EEEC2B8ue170006INS2_5ModelIiEENS4_IS9_EEvvEEONS0_IT_T0_EE, symObjAddr: 0x185DC, symBinAddr: 0x1000198D0, symSize: 0x60 }
  - { offsetInCU: 0x314FC, offset: 0x314FC, size: 0x8, addend: 0x0, symName: __ZNSt3__110unique_ptrIN5utils10TypeErased5ModelIiEENS_14default_deleteIS4_EEE7releaseB8ue170006Ev, symObjAddr: 0x1863C, symBinAddr: 0x100019930, symSize: 0x44 }
  - { offsetInCU: 0x31531, offset: 0x31531, size: 0x8, addend: 0x0, symName: __ZNSt3__110unique_ptrIN5utils10TypeErased5ModelIiEENS_14default_deleteIS4_EEE11get_deleterB8ue170006Ev, symObjAddr: 0x18680, symBinAddr: 0x100019974, symSize: 0x24 }
  - { offsetInCU: 0x31563, offset: 0x31563, size: 0x8, addend: 0x0, symName: __ZNSt3__117__compressed_pairIPN5utils10TypeErased4BaseENS_14default_deleteIS3_EEEC1B8ue170006IPNS2_5ModelIiEENS5_ISA_EEEEOT_OT0_, symObjAddr: 0x186A4, symBinAddr: 0x100019998, symSize: 0x3C }
  - { offsetInCU: 0x315BB, offset: 0x315BB, size: 0x8, addend: 0x0, symName: __ZNSt3__117__compressed_pairIPN5utils10TypeErased5ModelIiEENS_14default_deleteIS4_EEE5firstB8ue170006Ev, symObjAddr: 0x186E0, symBinAddr: 0x1000199D4, symSize: 0x24 }
  - { offsetInCU: 0x315E1, offset: 0x315E1, size: 0x8, addend: 0x0, symName: __ZNSt3__122__compressed_pair_elemIPN5utils10TypeErased5ModelIiEELi0ELb0EE5__getB8ue170006Ev, symObjAddr: 0x18704, symBinAddr: 0x1000199F8, symSize: 0x14 }
  - { offsetInCU: 0x31607, offset: 0x31607, size: 0x8, addend: 0x0, symName: __ZNSt3__117__compressed_pairIPN5utils10TypeErased5ModelIiEENS_14default_deleteIS4_EEE6secondB8ue170006Ev, symObjAddr: 0x18718, symBinAddr: 0x100019A0C, symSize: 0x24 }
  - { offsetInCU: 0x3162D, offset: 0x3162D, size: 0x8, addend: 0x0, symName: __ZNSt3__122__compressed_pair_elemINS_14default_deleteIN5utils10TypeErased5ModelIiEEEELi1ELb1EE5__getB8ue170006Ev, symObjAddr: 0x1873C, symBinAddr: 0x100019A30, symSize: 0x14 }
  - { offsetInCU: 0x31653, offset: 0x31653, size: 0x8, addend: 0x0, symName: __ZNSt3__117__compressed_pairIPN5utils10TypeErased4BaseENS_14default_deleteIS3_EEEC2B8ue170006IPNS2_5ModelIiEENS5_ISA_EEEEOT_OT0_, symObjAddr: 0x18750, symBinAddr: 0x100019A44, symSize: 0x44 }
  - { offsetInCU: 0x316AB, offset: 0x316AB, size: 0x8, addend: 0x0, symName: __ZNSt3__122__compressed_pair_elemIPN5utils10TypeErased4BaseELi0ELb0EEC2B8ue170006IPNS2_5ModelIiEEvEEOT_, symObjAddr: 0x18794, symBinAddr: 0x100019A88, symSize: 0x24 }
  - { offsetInCU: 0x316ED, offset: 0x316ED, size: 0x8, addend: 0x0, symName: __ZNSt3__122__compressed_pair_elemINS_14default_deleteIN5utils10TypeErased4BaseEEELi1ELb1EEC2B8ue170006INS1_INS3_5ModelIiEEEEvEEOT_, symObjAddr: 0x187B8, symBinAddr: 0x100019AAC, symSize: 0x38 }
  - { offsetInCU: 0x3172F, offset: 0x3172F, size: 0x8, addend: 0x0, symName: __ZNSt3__114default_deleteIN5utils10TypeErased4BaseEEC2B8ue170006INS2_5ModelIiEEEERKNS0_IT_EEPNS_9enable_ifIXsr14is_convertibleIPS8_PS3_EE5valueEvE4typeE, symObjAddr: 0x187F0, symBinAddr: 0x100019AE4, symSize: 0x1C }
  - { offsetInCU: 0x31778, offset: 0x31778, size: 0x8, addend: 0x0, symName: __ZNSt3__110unique_ptrIN5utils10TypeErased5ModelIiEENS_14default_deleteIS4_EEEC2B8ue170006ILb1EvEEPS4_, symObjAddr: 0x1880C, symBinAddr: 0x100019B00, symSize: 0x44 }
  - { offsetInCU: 0x317BB, offset: 0x317BB, size: 0x8, addend: 0x0, symName: __ZNSt3__117__compressed_pairIPN5utils10TypeErased5ModelIiEENS_14default_deleteIS4_EEEC1B8ue170006IRS5_NS_16__value_init_tagEEEOT_OT0_, symObjAddr: 0x18850, symBinAddr: 0x100019B44, symSize: 0x3C }
  - { offsetInCU: 0x31813, offset: 0x31813, size: 0x8, addend: 0x0, symName: __ZNSt3__117__compressed_pairIPN5utils10TypeErased5ModelIiEENS_14default_deleteIS4_EEEC2B8ue170006IRS5_NS_16__value_init_tagEEEOT_OT0_, symObjAddr: 0x1888C, symBinAddr: 0x100019B80, symSize: 0x40 }
  - { offsetInCU: 0x3186B, offset: 0x3186B, size: 0x8, addend: 0x0, symName: __ZNSt3__122__compressed_pair_elemIPN5utils10TypeErased5ModelIiEELi0ELb0EEC2B8ue170006IRS5_vEEOT_, symObjAddr: 0x188CC, symBinAddr: 0x100019BC0, symSize: 0x24 }
  - { offsetInCU: 0x318AD, offset: 0x318AD, size: 0x8, addend: 0x0, symName: __ZNSt3__122__compressed_pair_elemINS_14default_deleteIN5utils10TypeErased5ModelIiEEEELi1ELb1EEC2B8ue170006ENS_16__value_init_tagE, symObjAddr: 0x188F0, symBinAddr: 0x100019BE4, symSize: 0x14 }
  - { offsetInCU: 0x318E2, offset: 0x318E2, size: 0x8, addend: 0x0, symName: __ZNKSt3__117__compressed_pairIPN5utils10TypeErased5ModelIiEENS_14default_deleteIS4_EEE5firstB8ue170006Ev, symObjAddr: 0x18904, symBinAddr: 0x100019BF8, symSize: 0x24 }
  - { offsetInCU: 0x31908, offset: 0x31908, size: 0x8, addend: 0x0, symName: __ZNKSt3__122__compressed_pair_elemIPN5utils10TypeErased5ModelIiEELi0ELb0EE5__getB8ue170006Ev, symObjAddr: 0x18928, symBinAddr: 0x100019C1C, symSize: 0x14 }
  - { offsetInCU: 0x3192E, offset: 0x3192E, size: 0x8, addend: 0x0, symName: __ZNSt3__114default_deleteIN5utils10TypeErased4BaseEEC1B8ue170006INS2_5ModelIiEEEERKNS0_IT_EEPNS_9enable_ifIXsr14is_convertibleIPS8_PS3_EE5valueEvE4typeE, symObjAddr: 0x1893C, symBinAddr: 0x100019C30, symSize: 0x3C }
  - { offsetInCU: 0x31977, offset: 0x31977, size: 0x8, addend: 0x0, symName: __ZNSt3__110unique_ptrIN5utils10TypeErased5ModelIiEENS_14default_deleteIS4_EEED2B8ue170006Ev, symObjAddr: 0x18978, symBinAddr: 0x100019C6C, symSize: 0x30 }
  - { offsetInCU: 0x319A1, offset: 0x319A1, size: 0x8, addend: 0x0, symName: __ZNSt3__110unique_ptrIN5utils10TypeErased5ModelIiEENS_14default_deleteIS4_EEE5resetB8ue170006EPS4_, symObjAddr: 0x189A8, symBinAddr: 0x100019C9C, symSize: 0x78 }
  - { offsetInCU: 0x319E5, offset: 0x319E5, size: 0x8, addend: 0x0, symName: __ZNKSt3__114default_deleteIN5utils10TypeErased5ModelIiEEEclB8ue170006EPS4_, symObjAddr: 0x18A20, symBinAddr: 0x100019D14, symSize: 0x4C }
  - { offsetInCU: 0x31A19, offset: 0x31A19, size: 0x8, addend: 0x0, symName: __ZNK9rapidjson12GenericValueINS_4UTF8IcEENS_19MemoryPoolAllocatorINS_12CrtAllocatorEEEE8IsNumberEv, symObjAddr: 0x18A6C, symBinAddr: 0x100019D60, symSize: 0x24 }
  - { offsetInCU: 0x31A3F, offset: 0x31A3F, size: 0x8, addend: 0x0, symName: __ZN5utils10TypeErasedC2IdvEEOT_, symObjAddr: 0x18A90, symBinAddr: 0x100019D84, symSize: 0x64 }
  - { offsetInCU: 0x31A81, offset: 0x31A81, size: 0x8, addend: 0x0, symName: __ZN5utils10TypeErased7emplaceIdJdEEENSt3__19enable_ifIXaasr3stdE18is_constructible_vIu7__decayIT_EDpT0_Esr3stdE23is_copy_constructible_vIS5_EERS5_E4typeEDpOS6_, symObjAddr: 0x18AF4, symBinAddr: 0x100019DE8, symSize: 0x6C }
  - { offsetInCU: 0x31AE5, offset: 0x31AE5, size: 0x8, addend: 0x0, symName: __ZNKSt3__110unique_ptrIN5utils10TypeErased5ModelIdEENS_14default_deleteIS4_EEEptB8ue170006Ev, symObjAddr: 0x18BCC, symBinAddr: 0x100019EC0, symSize: 0x28 }
  - { offsetInCU: 0x31B0B, offset: 0x31B0B, size: 0x8, addend: 0x0, symName: __ZNSt3__110unique_ptrIN5utils10TypeErased4BaseENS_14default_deleteIS3_EEEaSB8ue170006INS2_5ModelIdEENS4_IS9_EEvvEERS6_ONS0_IT_T0_EE, symObjAddr: 0x18BF4, symBinAddr: 0x100019EE8, symSize: 0x60 }
  - { offsetInCU: 0x31B53, offset: 0x31B53, size: 0x8, addend: 0x0, symName: __ZNSt3__110unique_ptrIN5utils10TypeErased5ModelIdEENS_14default_deleteIS4_EEED1B8ue170006Ev, symObjAddr: 0x18C54, symBinAddr: 0x100019F48, symSize: 0x2C }
  - { offsetInCU: 0x31B83, offset: 0x31B83, size: 0x8, addend: 0x0, symName: __ZN5utils10TypeErased5ModelIdEC1IdEEOT_, symObjAddr: 0x18C80, symBinAddr: 0x100019F74, symSize: 0x34 }
  - { offsetInCU: 0x31BC4, offset: 0x31BC4, size: 0x8, addend: 0x0, symName: __ZNSt3__110unique_ptrIN5utils10TypeErased5ModelIdEENS_14default_deleteIS4_EEEC1B8ue170006ILb1EvEEPS4_, symObjAddr: 0x18CB4, symBinAddr: 0x100019FA8, symSize: 0x34 }
  - { offsetInCU: 0x31C07, offset: 0x31C07, size: 0x8, addend: 0x0, symName: __ZN5utils10TypeErased5ModelIdEC2IdEEOT_, symObjAddr: 0x18CE8, symBinAddr: 0x100019FDC, symSize: 0x54 }
  - { offsetInCU: 0x31C48, offset: 0x31C48, size: 0x8, addend: 0x0, symName: __ZN5utils10TypeErased5ModelIdED1Ev, symObjAddr: 0x18D3C, symBinAddr: 0x10001A030, symSize: 0x2C }
  - { offsetInCU: 0x31C74, offset: 0x31C74, size: 0x8, addend: 0x0, symName: __ZN5utils10TypeErased5ModelIdED0Ev, symObjAddr: 0x18D68, symBinAddr: 0x10001A05C, symSize: 0x30 }
  - { offsetInCU: 0x31CA0, offset: 0x31CA0, size: 0x8, addend: 0x0, symName: __ZNK5utils10TypeErased5ModelIdE4typeEv, symObjAddr: 0x18D98, symBinAddr: 0x10001A08C, symSize: 0x18 }
  - { offsetInCU: 0x31CC6, offset: 0x31CC6, size: 0x8, addend: 0x0, symName: __ZNK5utils10TypeErased5ModelIdEeqERKNS0_4BaseE, symObjAddr: 0x18DB0, symBinAddr: 0x10001A0A4, symSize: 0x108 }
  - { offsetInCU: 0x31D16, offset: 0x31D16, size: 0x8, addend: 0x0, symName: __ZNK5utils10TypeErased5ModelIdE5cloneEv, symObjAddr: 0x18EB8, symBinAddr: 0x10001A1AC, symSize: 0x4C }
  - { offsetInCU: 0x31D3C, offset: 0x31D3C, size: 0x8, addend: 0x0, symName: __ZN5utils10TypeErased5ModelIdED2Ev, symObjAddr: 0x18F04, symBinAddr: 0x10001A1F8, symSize: 0x2C }
  - { offsetInCU: 0x31D68, offset: 0x31D68, size: 0x8, addend: 0x0, symName: __ZNSt3__110unique_ptrIN5utils10TypeErased4BaseENS_14default_deleteIS3_EEEC1B8ue170006INS2_5ModelIdEENS4_IS9_EEvvEEONS0_IT_T0_EE, symObjAddr: 0x18F9C, symBinAddr: 0x10001A290, symSize: 0x34 }
  - { offsetInCU: 0x31DB4, offset: 0x31DB4, size: 0x8, addend: 0x0, symName: __ZN5utils10TypeErased5ModelIdEC1IRKdEEOT_, symObjAddr: 0x18FD0, symBinAddr: 0x10001A2C4, symSize: 0x34 }
  - { offsetInCU: 0x31DF5, offset: 0x31DF5, size: 0x8, addend: 0x0, symName: __ZN5utils10TypeErased5ModelIdEC2IRKdEEOT_, symObjAddr: 0x19004, symBinAddr: 0x10001A2F8, symSize: 0x54 }
  - { offsetInCU: 0x31E36, offset: 0x31E36, size: 0x8, addend: 0x0, symName: __ZNSt3__110unique_ptrIN5utils10TypeErased4BaseENS_14default_deleteIS3_EEEC2B8ue170006INS2_5ModelIdEENS4_IS9_EEvvEEONS0_IT_T0_EE, symObjAddr: 0x19058, symBinAddr: 0x10001A34C, symSize: 0x60 }
  - { offsetInCU: 0x31E82, offset: 0x31E82, size: 0x8, addend: 0x0, symName: __ZNSt3__110unique_ptrIN5utils10TypeErased5ModelIdEENS_14default_deleteIS4_EEE7releaseB8ue170006Ev, symObjAddr: 0x190B8, symBinAddr: 0x10001A3AC, symSize: 0x44 }
  - { offsetInCU: 0x31EB7, offset: 0x31EB7, size: 0x8, addend: 0x0, symName: __ZNSt3__110unique_ptrIN5utils10TypeErased5ModelIdEENS_14default_deleteIS4_EEE11get_deleterB8ue170006Ev, symObjAddr: 0x190FC, symBinAddr: 0x10001A3F0, symSize: 0x24 }
  - { offsetInCU: 0x31EE9, offset: 0x31EE9, size: 0x8, addend: 0x0, symName: __ZNSt3__117__compressed_pairIPN5utils10TypeErased4BaseENS_14default_deleteIS3_EEEC1B8ue170006IPNS2_5ModelIdEENS5_ISA_EEEEOT_OT0_, symObjAddr: 0x19120, symBinAddr: 0x10001A414, symSize: 0x3C }
  - { offsetInCU: 0x31F41, offset: 0x31F41, size: 0x8, addend: 0x0, symName: __ZNSt3__117__compressed_pairIPN5utils10TypeErased5ModelIdEENS_14default_deleteIS4_EEE5firstB8ue170006Ev, symObjAddr: 0x1915C, symBinAddr: 0x10001A450, symSize: 0x24 }
  - { offsetInCU: 0x31F67, offset: 0x31F67, size: 0x8, addend: 0x0, symName: __ZNSt3__122__compressed_pair_elemIPN5utils10TypeErased5ModelIdEELi0ELb0EE5__getB8ue170006Ev, symObjAddr: 0x19180, symBinAddr: 0x10001A474, symSize: 0x14 }
  - { offsetInCU: 0x31F8D, offset: 0x31F8D, size: 0x8, addend: 0x0, symName: __ZNSt3__117__compressed_pairIPN5utils10TypeErased5ModelIdEENS_14default_deleteIS4_EEE6secondB8ue170006Ev, symObjAddr: 0x19194, symBinAddr: 0x10001A488, symSize: 0x24 }
  - { offsetInCU: 0x31FB3, offset: 0x31FB3, size: 0x8, addend: 0x0, symName: __ZNSt3__122__compressed_pair_elemINS_14default_deleteIN5utils10TypeErased5ModelIdEEEELi1ELb1EE5__getB8ue170006Ev, symObjAddr: 0x191B8, symBinAddr: 0x10001A4AC, symSize: 0x14 }
  - { offsetInCU: 0x31FD9, offset: 0x31FD9, size: 0x8, addend: 0x0, symName: __ZNSt3__117__compressed_pairIPN5utils10TypeErased4BaseENS_14default_deleteIS3_EEEC2B8ue170006IPNS2_5ModelIdEENS5_ISA_EEEEOT_OT0_, symObjAddr: 0x191CC, symBinAddr: 0x10001A4C0, symSize: 0x44 }
  - { offsetInCU: 0x32031, offset: 0x32031, size: 0x8, addend: 0x0, symName: __ZNSt3__122__compressed_pair_elemIPN5utils10TypeErased4BaseELi0ELb0EEC2B8ue170006IPNS2_5ModelIdEEvEEOT_, symObjAddr: 0x19210, symBinAddr: 0x10001A504, symSize: 0x24 }
  - { offsetInCU: 0x32073, offset: 0x32073, size: 0x8, addend: 0x0, symName: __ZNSt3__122__compressed_pair_elemINS_14default_deleteIN5utils10TypeErased4BaseEEELi1ELb1EEC2B8ue170006INS1_INS3_5ModelIdEEEEvEEOT_, symObjAddr: 0x19234, symBinAddr: 0x10001A528, symSize: 0x38 }
  - { offsetInCU: 0x320B5, offset: 0x320B5, size: 0x8, addend: 0x0, symName: __ZNSt3__114default_deleteIN5utils10TypeErased4BaseEEC2B8ue170006INS2_5ModelIdEEEERKNS0_IT_EEPNS_9enable_ifIXsr14is_convertibleIPS8_PS3_EE5valueEvE4typeE, symObjAddr: 0x1926C, symBinAddr: 0x10001A560, symSize: 0x1C }
  - { offsetInCU: 0x320FE, offset: 0x320FE, size: 0x8, addend: 0x0, symName: __ZNSt3__110unique_ptrIN5utils10TypeErased5ModelIdEENS_14default_deleteIS4_EEEC2B8ue170006ILb1EvEEPS4_, symObjAddr: 0x19288, symBinAddr: 0x10001A57C, symSize: 0x44 }
  - { offsetInCU: 0x32141, offset: 0x32141, size: 0x8, addend: 0x0, symName: __ZNSt3__117__compressed_pairIPN5utils10TypeErased5ModelIdEENS_14default_deleteIS4_EEEC1B8ue170006IRS5_NS_16__value_init_tagEEEOT_OT0_, symObjAddr: 0x192CC, symBinAddr: 0x10001A5C0, symSize: 0x3C }
  - { offsetInCU: 0x32199, offset: 0x32199, size: 0x8, addend: 0x0, symName: __ZNSt3__117__compressed_pairIPN5utils10TypeErased5ModelIdEENS_14default_deleteIS4_EEEC2B8ue170006IRS5_NS_16__value_init_tagEEEOT_OT0_, symObjAddr: 0x19308, symBinAddr: 0x10001A5FC, symSize: 0x40 }
  - { offsetInCU: 0x321F1, offset: 0x321F1, size: 0x8, addend: 0x0, symName: __ZNSt3__122__compressed_pair_elemIPN5utils10TypeErased5ModelIdEELi0ELb0EEC2B8ue170006IRS5_vEEOT_, symObjAddr: 0x19348, symBinAddr: 0x10001A63C, symSize: 0x24 }
  - { offsetInCU: 0x32233, offset: 0x32233, size: 0x8, addend: 0x0, symName: __ZNSt3__122__compressed_pair_elemINS_14default_deleteIN5utils10TypeErased5ModelIdEEEELi1ELb1EEC2B8ue170006ENS_16__value_init_tagE, symObjAddr: 0x1936C, symBinAddr: 0x10001A660, symSize: 0x14 }
  - { offsetInCU: 0x32268, offset: 0x32268, size: 0x8, addend: 0x0, symName: __ZNKSt3__117__compressed_pairIPN5utils10TypeErased5ModelIdEENS_14default_deleteIS4_EEE5firstB8ue170006Ev, symObjAddr: 0x19380, symBinAddr: 0x10001A674, symSize: 0x24 }
  - { offsetInCU: 0x3228E, offset: 0x3228E, size: 0x8, addend: 0x0, symName: __ZNKSt3__122__compressed_pair_elemIPN5utils10TypeErased5ModelIdEELi0ELb0EE5__getB8ue170006Ev, symObjAddr: 0x193A4, symBinAddr: 0x10001A698, symSize: 0x14 }
  - { offsetInCU: 0x322B4, offset: 0x322B4, size: 0x8, addend: 0x0, symName: __ZNSt3__114default_deleteIN5utils10TypeErased4BaseEEC1B8ue170006INS2_5ModelIdEEEERKNS0_IT_EEPNS_9enable_ifIXsr14is_convertibleIPS8_PS3_EE5valueEvE4typeE, symObjAddr: 0x193B8, symBinAddr: 0x10001A6AC, symSize: 0x3C }
  - { offsetInCU: 0x322FD, offset: 0x322FD, size: 0x8, addend: 0x0, symName: __ZNSt3__110unique_ptrIN5utils10TypeErased5ModelIdEENS_14default_deleteIS4_EEED2B8ue170006Ev, symObjAddr: 0x193F4, symBinAddr: 0x10001A6E8, symSize: 0x30 }
  - { offsetInCU: 0x32327, offset: 0x32327, size: 0x8, addend: 0x0, symName: __ZNSt3__110unique_ptrIN5utils10TypeErased5ModelIdEENS_14default_deleteIS4_EEE5resetB8ue170006EPS4_, symObjAddr: 0x19424, symBinAddr: 0x10001A718, symSize: 0x78 }
  - { offsetInCU: 0x3236B, offset: 0x3236B, size: 0x8, addend: 0x0, symName: __ZNKSt3__114default_deleteIN5utils10TypeErased5ModelIdEEEclB8ue170006EPS4_, symObjAddr: 0x1949C, symBinAddr: 0x10001A790, symSize: 0x4C }
  - { offsetInCU: 0x3239F, offset: 0x3239F, size: 0x8, addend: 0x0, symName: __ZN5utils10TypeErasedC2IbvEEOT_, symObjAddr: 0x194E8, symBinAddr: 0x10001A7DC, symSize: 0x64 }
  - { offsetInCU: 0x323E1, offset: 0x323E1, size: 0x8, addend: 0x0, symName: __ZN5utils10TypeErased7emplaceIbJbEEENSt3__19enable_ifIXaasr3stdE18is_constructible_vIu7__decayIT_EDpT0_Esr3stdE23is_copy_constructible_vIS5_EERS5_E4typeEDpOS6_, symObjAddr: 0x1954C, symBinAddr: 0x10001A840, symSize: 0x6C }
  - { offsetInCU: 0x32445, offset: 0x32445, size: 0x8, addend: 0x0, symName: __ZNKSt3__110unique_ptrIN5utils10TypeErased5ModelIbEENS_14default_deleteIS4_EEEptB8ue170006Ev, symObjAddr: 0x19624, symBinAddr: 0x10001A918, symSize: 0x28 }
  - { offsetInCU: 0x3246B, offset: 0x3246B, size: 0x8, addend: 0x0, symName: __ZNSt3__110unique_ptrIN5utils10TypeErased4BaseENS_14default_deleteIS3_EEEaSB8ue170006INS2_5ModelIbEENS4_IS9_EEvvEERS6_ONS0_IT_T0_EE, symObjAddr: 0x1964C, symBinAddr: 0x10001A940, symSize: 0x60 }
  - { offsetInCU: 0x324B3, offset: 0x324B3, size: 0x8, addend: 0x0, symName: __ZNSt3__110unique_ptrIN5utils10TypeErased5ModelIbEENS_14default_deleteIS4_EEED1B8ue170006Ev, symObjAddr: 0x196AC, symBinAddr: 0x10001A9A0, symSize: 0x2C }
  - { offsetInCU: 0x324E3, offset: 0x324E3, size: 0x8, addend: 0x0, symName: __ZN5utils10TypeErased5ModelIbEC1IbEEOT_, symObjAddr: 0x196D8, symBinAddr: 0x10001A9CC, symSize: 0x34 }
  - { offsetInCU: 0x32524, offset: 0x32524, size: 0x8, addend: 0x0, symName: __ZNSt3__110unique_ptrIN5utils10TypeErased5ModelIbEENS_14default_deleteIS4_EEEC1B8ue170006ILb1EvEEPS4_, symObjAddr: 0x1970C, symBinAddr: 0x10001AA00, symSize: 0x34 }
  - { offsetInCU: 0x32567, offset: 0x32567, size: 0x8, addend: 0x0, symName: __ZN5utils10TypeErased5ModelIbEC2IbEEOT_, symObjAddr: 0x19740, symBinAddr: 0x10001AA34, symSize: 0x58 }
  - { offsetInCU: 0x325A8, offset: 0x325A8, size: 0x8, addend: 0x0, symName: __ZN5utils10TypeErased5ModelIbED1Ev, symObjAddr: 0x19798, symBinAddr: 0x10001AA8C, symSize: 0x2C }
  - { offsetInCU: 0x325D4, offset: 0x325D4, size: 0x8, addend: 0x0, symName: __ZN5utils10TypeErased5ModelIbED0Ev, symObjAddr: 0x197C4, symBinAddr: 0x10001AAB8, symSize: 0x30 }
  - { offsetInCU: 0x32600, offset: 0x32600, size: 0x8, addend: 0x0, symName: __ZNK5utils10TypeErased5ModelIbE4typeEv, symObjAddr: 0x197F4, symBinAddr: 0x10001AAE8, symSize: 0x18 }
  - { offsetInCU: 0x32626, offset: 0x32626, size: 0x8, addend: 0x0, symName: __ZNK5utils10TypeErased5ModelIbEeqERKNS0_4BaseE, symObjAddr: 0x1980C, symBinAddr: 0x10001AB00, symSize: 0x110 }
  - { offsetInCU: 0x32676, offset: 0x32676, size: 0x8, addend: 0x0, symName: __ZNK5utils10TypeErased5ModelIbE5cloneEv, symObjAddr: 0x1991C, symBinAddr: 0x10001AC10, symSize: 0x4C }
  - { offsetInCU: 0x3269C, offset: 0x3269C, size: 0x8, addend: 0x0, symName: __ZN5utils10TypeErased5ModelIbED2Ev, symObjAddr: 0x19968, symBinAddr: 0x10001AC5C, symSize: 0x2C }
  - { offsetInCU: 0x326C8, offset: 0x326C8, size: 0x8, addend: 0x0, symName: __ZNSt3__110unique_ptrIN5utils10TypeErased4BaseENS_14default_deleteIS3_EEEC1B8ue170006INS2_5ModelIbEENS4_IS9_EEvvEEONS0_IT_T0_EE, symObjAddr: 0x19A00, symBinAddr: 0x10001ACF4, symSize: 0x34 }
  - { offsetInCU: 0x3271A, offset: 0x3271A, size: 0x8, addend: 0x0, symName: __ZN5utils10TypeErased5ModelIbEC1IRKbEEOT_, symObjAddr: 0x19A34, symBinAddr: 0x10001AD28, symSize: 0x34 }
  - { offsetInCU: 0x3275B, offset: 0x3275B, size: 0x8, addend: 0x0, symName: __ZN5utils10TypeErased5ModelIbEC2IRKbEEOT_, symObjAddr: 0x19A68, symBinAddr: 0x10001AD5C, symSize: 0x58 }
  - { offsetInCU: 0x3279C, offset: 0x3279C, size: 0x8, addend: 0x0, symName: __ZNSt3__110unique_ptrIN5utils10TypeErased4BaseENS_14default_deleteIS3_EEEC2B8ue170006INS2_5ModelIbEENS4_IS9_EEvvEEONS0_IT_T0_EE, symObjAddr: 0x19AC0, symBinAddr: 0x10001ADB4, symSize: 0x60 }
  - { offsetInCU: 0x327E8, offset: 0x327E8, size: 0x8, addend: 0x0, symName: __ZNSt3__110unique_ptrIN5utils10TypeErased5ModelIbEENS_14default_deleteIS4_EEE7releaseB8ue170006Ev, symObjAddr: 0x19B20, symBinAddr: 0x10001AE14, symSize: 0x44 }
  - { offsetInCU: 0x3281D, offset: 0x3281D, size: 0x8, addend: 0x0, symName: __ZNSt3__110unique_ptrIN5utils10TypeErased5ModelIbEENS_14default_deleteIS4_EEE11get_deleterB8ue170006Ev, symObjAddr: 0x19B64, symBinAddr: 0x10001AE58, symSize: 0x24 }
  - { offsetInCU: 0x3284F, offset: 0x3284F, size: 0x8, addend: 0x0, symName: __ZNSt3__117__compressed_pairIPN5utils10TypeErased4BaseENS_14default_deleteIS3_EEEC1B8ue170006IPNS2_5ModelIbEENS5_ISA_EEEEOT_OT0_, symObjAddr: 0x19B88, symBinAddr: 0x10001AE7C, symSize: 0x3C }
  - { offsetInCU: 0x328A7, offset: 0x328A7, size: 0x8, addend: 0x0, symName: __ZNSt3__117__compressed_pairIPN5utils10TypeErased5ModelIbEENS_14default_deleteIS4_EEE5firstB8ue170006Ev, symObjAddr: 0x19BC4, symBinAddr: 0x10001AEB8, symSize: 0x24 }
  - { offsetInCU: 0x328CD, offset: 0x328CD, size: 0x8, addend: 0x0, symName: __ZNSt3__122__compressed_pair_elemIPN5utils10TypeErased5ModelIbEELi0ELb0EE5__getB8ue170006Ev, symObjAddr: 0x19BE8, symBinAddr: 0x10001AEDC, symSize: 0x14 }
  - { offsetInCU: 0x328F3, offset: 0x328F3, size: 0x8, addend: 0x0, symName: __ZNSt3__117__compressed_pairIPN5utils10TypeErased5ModelIbEENS_14default_deleteIS4_EEE6secondB8ue170006Ev, symObjAddr: 0x19BFC, symBinAddr: 0x10001AEF0, symSize: 0x24 }
  - { offsetInCU: 0x32919, offset: 0x32919, size: 0x8, addend: 0x0, symName: __ZNSt3__122__compressed_pair_elemINS_14default_deleteIN5utils10TypeErased5ModelIbEEEELi1ELb1EE5__getB8ue170006Ev, symObjAddr: 0x19C20, symBinAddr: 0x10001AF14, symSize: 0x14 }
  - { offsetInCU: 0x3293F, offset: 0x3293F, size: 0x8, addend: 0x0, symName: __ZNSt3__117__compressed_pairIPN5utils10TypeErased4BaseENS_14default_deleteIS3_EEEC2B8ue170006IPNS2_5ModelIbEENS5_ISA_EEEEOT_OT0_, symObjAddr: 0x19C34, symBinAddr: 0x10001AF28, symSize: 0x44 }
  - { offsetInCU: 0x32997, offset: 0x32997, size: 0x8, addend: 0x0, symName: __ZNSt3__122__compressed_pair_elemIPN5utils10TypeErased4BaseELi0ELb0EEC2B8ue170006IPNS2_5ModelIbEEvEEOT_, symObjAddr: 0x19C78, symBinAddr: 0x10001AF6C, symSize: 0x24 }
  - { offsetInCU: 0x329D9, offset: 0x329D9, size: 0x8, addend: 0x0, symName: __ZNSt3__122__compressed_pair_elemINS_14default_deleteIN5utils10TypeErased4BaseEEELi1ELb1EEC2B8ue170006INS1_INS3_5ModelIbEEEEvEEOT_, symObjAddr: 0x19C9C, symBinAddr: 0x10001AF90, symSize: 0x38 }
  - { offsetInCU: 0x32A1B, offset: 0x32A1B, size: 0x8, addend: 0x0, symName: __ZNSt3__114default_deleteIN5utils10TypeErased4BaseEEC2B8ue170006INS2_5ModelIbEEEERKNS0_IT_EEPNS_9enable_ifIXsr14is_convertibleIPS8_PS3_EE5valueEvE4typeE, symObjAddr: 0x19CD4, symBinAddr: 0x10001AFC8, symSize: 0x1C }
  - { offsetInCU: 0x32A64, offset: 0x32A64, size: 0x8, addend: 0x0, symName: __ZNSt3__110unique_ptrIN5utils10TypeErased5ModelIbEENS_14default_deleteIS4_EEEC2B8ue170006ILb1EvEEPS4_, symObjAddr: 0x19CF0, symBinAddr: 0x10001AFE4, symSize: 0x44 }
  - { offsetInCU: 0x32AA7, offset: 0x32AA7, size: 0x8, addend: 0x0, symName: __ZNSt3__117__compressed_pairIPN5utils10TypeErased5ModelIbEENS_14default_deleteIS4_EEEC1B8ue170006IRS5_NS_16__value_init_tagEEEOT_OT0_, symObjAddr: 0x19D34, symBinAddr: 0x10001B028, symSize: 0x3C }
  - { offsetInCU: 0x32AFF, offset: 0x32AFF, size: 0x8, addend: 0x0, symName: __ZNSt3__117__compressed_pairIPN5utils10TypeErased5ModelIbEENS_14default_deleteIS4_EEEC2B8ue170006IRS5_NS_16__value_init_tagEEEOT_OT0_, symObjAddr: 0x19D70, symBinAddr: 0x10001B064, symSize: 0x40 }
  - { offsetInCU: 0x32B57, offset: 0x32B57, size: 0x8, addend: 0x0, symName: __ZNSt3__122__compressed_pair_elemIPN5utils10TypeErased5ModelIbEELi0ELb0EEC2B8ue170006IRS5_vEEOT_, symObjAddr: 0x19DB0, symBinAddr: 0x10001B0A4, symSize: 0x24 }
  - { offsetInCU: 0x32B99, offset: 0x32B99, size: 0x8, addend: 0x0, symName: __ZNSt3__122__compressed_pair_elemINS_14default_deleteIN5utils10TypeErased5ModelIbEEEELi1ELb1EEC2B8ue170006ENS_16__value_init_tagE, symObjAddr: 0x19DD4, symBinAddr: 0x10001B0C8, symSize: 0x14 }
  - { offsetInCU: 0x32BCE, offset: 0x32BCE, size: 0x8, addend: 0x0, symName: __ZNKSt3__117__compressed_pairIPN5utils10TypeErased5ModelIbEENS_14default_deleteIS4_EEE5firstB8ue170006Ev, symObjAddr: 0x19DE8, symBinAddr: 0x10001B0DC, symSize: 0x24 }
  - { offsetInCU: 0x32BF4, offset: 0x32BF4, size: 0x8, addend: 0x0, symName: __ZNKSt3__122__compressed_pair_elemIPN5utils10TypeErased5ModelIbEELi0ELb0EE5__getB8ue170006Ev, symObjAddr: 0x19E0C, symBinAddr: 0x10001B100, symSize: 0x14 }
  - { offsetInCU: 0x32C1A, offset: 0x32C1A, size: 0x8, addend: 0x0, symName: __ZNSt3__114default_deleteIN5utils10TypeErased4BaseEEC1B8ue170006INS2_5ModelIbEEEERKNS0_IT_EEPNS_9enable_ifIXsr14is_convertibleIPS8_PS3_EE5valueEvE4typeE, symObjAddr: 0x19E20, symBinAddr: 0x10001B114, symSize: 0x3C }
  - { offsetInCU: 0x32C63, offset: 0x32C63, size: 0x8, addend: 0x0, symName: __ZNSt3__110unique_ptrIN5utils10TypeErased5ModelIbEENS_14default_deleteIS4_EEED2B8ue170006Ev, symObjAddr: 0x19E5C, symBinAddr: 0x10001B150, symSize: 0x30 }
  - { offsetInCU: 0x32C8D, offset: 0x32C8D, size: 0x8, addend: 0x0, symName: __ZNSt3__110unique_ptrIN5utils10TypeErased5ModelIbEENS_14default_deleteIS4_EEE5resetB8ue170006EPS4_, symObjAddr: 0x19E8C, symBinAddr: 0x10001B180, symSize: 0x78 }
  - { offsetInCU: 0x32CD1, offset: 0x32CD1, size: 0x8, addend: 0x0, symName: __ZNKSt3__114default_deleteIN5utils10TypeErased5ModelIbEEEclB8ue170006EPS4_, symObjAddr: 0x19F04, symBinAddr: 0x10001B1F8, symSize: 0x4C }
  - { offsetInCU: 0x32D05, offset: 0x32D05, size: 0x8, addend: 0x0, symName: __ZN5utils10TypeErasedC2INSt3__112basic_stringIcNS2_11char_traitsIcEENS2_9allocatorIcEEEEvEEOT_, symObjAddr: 0x19F50, symBinAddr: 0x10001B244, symSize: 0x64 }
  - { offsetInCU: 0x32D4D, offset: 0x32D4D, size: 0x8, addend: 0x0, symName: __ZN5utils10TypeErased7emplaceINSt3__112basic_stringIcNS2_11char_traitsIcEENS2_9allocatorIcEEEEJS8_EEENS2_9enable_ifIXaasr3stdE18is_constructible_vIu7__decayIT_EDpT0_Esr3stdE23is_copy_constructible_vISB_EERSB_E4typeEDpOSC_, symObjAddr: 0x19FB4, symBinAddr: 0x10001B2A8, symSize: 0x6C }
  - { offsetInCU: 0x32DB1, offset: 0x32DB1, size: 0x8, addend: 0x0, symName: __ZNKSt3__110unique_ptrIN5utils10TypeErased5ModelINS_12basic_stringIcNS_11char_traitsIcEENS_9allocatorIcEEEEEENS_14default_deleteISA_EEEptB8ue170006Ev, symObjAddr: 0x1A08C, symBinAddr: 0x10001B380, symSize: 0x28 }
  - { offsetInCU: 0x32DD7, offset: 0x32DD7, size: 0x8, addend: 0x0, symName: __ZNSt3__110unique_ptrIN5utils10TypeErased4BaseENS_14default_deleteIS3_EEEaSB8ue170006INS2_5ModelINS_12basic_stringIcNS_11char_traitsIcEENS_9allocatorIcEEEEEENS4_ISF_EEvvEERS6_ONS0_IT_T0_EE, symObjAddr: 0x1A0B4, symBinAddr: 0x10001B3A8, symSize: 0x60 }
  - { offsetInCU: 0x32E1F, offset: 0x32E1F, size: 0x8, addend: 0x0, symName: __ZNSt3__110unique_ptrIN5utils10TypeErased5ModelINS_12basic_stringIcNS_11char_traitsIcEENS_9allocatorIcEEEEEENS_14default_deleteISA_EEED1B8ue170006Ev, symObjAddr: 0x1A114, symBinAddr: 0x10001B408, symSize: 0x2C }
  - { offsetInCU: 0x32E4F, offset: 0x32E4F, size: 0x8, addend: 0x0, symName: __ZN5utils10TypeErased5ModelINSt3__112basic_stringIcNS2_11char_traitsIcEENS2_9allocatorIcEEEEEC1IS8_EEOT_, symObjAddr: 0x1A140, symBinAddr: 0x10001B434, symSize: 0x34 }
  - { offsetInCU: 0x32E90, offset: 0x32E90, size: 0x8, addend: 0x0, symName: __ZNSt3__110unique_ptrIN5utils10TypeErased5ModelINS_12basic_stringIcNS_11char_traitsIcEENS_9allocatorIcEEEEEENS_14default_deleteISA_EEEC1B8ue170006ILb1EvEEPSA_, symObjAddr: 0x1A174, symBinAddr: 0x10001B468, symSize: 0x34 }
  - { offsetInCU: 0x32ED3, offset: 0x32ED3, size: 0x8, addend: 0x0, symName: __ZN5utils10TypeErased5ModelINSt3__112basic_stringIcNS2_11char_traitsIcEENS2_9allocatorIcEEEEEC2IS8_EEOT_, symObjAddr: 0x1A1A8, symBinAddr: 0x10001B49C, symSize: 0x58 }
  - { offsetInCU: 0x32F14, offset: 0x32F14, size: 0x8, addend: 0x0, symName: __ZNSt3__112basic_stringIcNS_11char_traitsIcEENS_9allocatorIcEEEC1B8ue170006EOS5_, symObjAddr: 0x1A200, symBinAddr: 0x10001B4F4, symSize: 0x34 }
  - { offsetInCU: 0x32F4D, offset: 0x32F4D, size: 0x8, addend: 0x0, symName: __ZN5utils10TypeErased5ModelINSt3__112basic_stringIcNS2_11char_traitsIcEENS2_9allocatorIcEEEEED1Ev, symObjAddr: 0x1A234, symBinAddr: 0x10001B528, symSize: 0x2C }
  - { offsetInCU: 0x32F79, offset: 0x32F79, size: 0x8, addend: 0x0, symName: __ZN5utils10TypeErased5ModelINSt3__112basic_stringIcNS2_11char_traitsIcEENS2_9allocatorIcEEEEED0Ev, symObjAddr: 0x1A260, symBinAddr: 0x10001B554, symSize: 0x30 }
  - { offsetInCU: 0x32FA5, offset: 0x32FA5, size: 0x8, addend: 0x0, symName: __ZNK5utils10TypeErased5ModelINSt3__112basic_stringIcNS2_11char_traitsIcEENS2_9allocatorIcEEEEE4typeEv, symObjAddr: 0x1A290, symBinAddr: 0x10001B584, symSize: 0x18 }
  - { offsetInCU: 0x32FCB, offset: 0x32FCB, size: 0x8, addend: 0x0, symName: __ZNK5utils10TypeErased5ModelINSt3__112basic_stringIcNS2_11char_traitsIcEENS2_9allocatorIcEEEEEeqERKNS0_4BaseE, symObjAddr: 0x1A2A8, symBinAddr: 0x10001B59C, symSize: 0x104 }
  - { offsetInCU: 0x3301B, offset: 0x3301B, size: 0x8, addend: 0x0, symName: __ZNK5utils10TypeErased5ModelINSt3__112basic_stringIcNS2_11char_traitsIcEENS2_9allocatorIcEEEEE5cloneEv, symObjAddr: 0x1A3AC, symBinAddr: 0x10001B6A0, symSize: 0x4C }
  - { offsetInCU: 0x33041, offset: 0x33041, size: 0x8, addend: 0x0, symName: __ZNSt3__112basic_stringIcNS_11char_traitsIcEENS_9allocatorIcEEEC2B8ue170006EOS5_, symObjAddr: 0x1A3F8, symBinAddr: 0x10001B6EC, symSize: 0x48 }
  - { offsetInCU: 0x3307A, offset: 0x3307A, size: 0x8, addend: 0x0, symName: __ZN5utils10TypeErased5ModelINSt3__112basic_stringIcNS2_11char_traitsIcEENS2_9allocatorIcEEEEED2Ev, symObjAddr: 0x1A440, symBinAddr: 0x10001B734, symSize: 0x48 }
  - { offsetInCU: 0x330A6, offset: 0x330A6, size: 0x8, addend: 0x0, symName: __ZNSt3__110unique_ptrIN5utils10TypeErased4BaseENS_14default_deleteIS3_EEEC1B8ue170006INS2_5ModelINS_12basic_stringIcNS_11char_traitsIcEENS_9allocatorIcEEEEEENS4_ISF_EEvvEEONS0_IT_T0_EE, symObjAddr: 0x1A4F4, symBinAddr: 0x10001B7E8, symSize: 0x34 }
  - { offsetInCU: 0x330F2, offset: 0x330F2, size: 0x8, addend: 0x0, symName: __ZN5utils10TypeErased5ModelINSt3__112basic_stringIcNS2_11char_traitsIcEENS2_9allocatorIcEEEEEC1IRKS8_EEOT_, symObjAddr: 0x1A528, symBinAddr: 0x10001B81C, symSize: 0x34 }
  - { offsetInCU: 0x33133, offset: 0x33133, size: 0x8, addend: 0x0, symName: __ZN5utils10TypeErased5ModelINSt3__112basic_stringIcNS2_11char_traitsIcEENS2_9allocatorIcEEEEEC2IRKS8_EEOT_, symObjAddr: 0x1A55C, symBinAddr: 0x10001B850, symSize: 0x80 }
  - { offsetInCU: 0x33174, offset: 0x33174, size: 0x8, addend: 0x0, symName: __ZNSt3__110unique_ptrIN5utils10TypeErased4BaseENS_14default_deleteIS3_EEEC2B8ue170006INS2_5ModelINS_12basic_stringIcNS_11char_traitsIcEENS_9allocatorIcEEEEEENS4_ISF_EEvvEEONS0_IT_T0_EE, symObjAddr: 0x1A5DC, symBinAddr: 0x10001B8D0, symSize: 0x60 }
  - { offsetInCU: 0x331C0, offset: 0x331C0, size: 0x8, addend: 0x0, symName: __ZNSt3__110unique_ptrIN5utils10TypeErased5ModelINS_12basic_stringIcNS_11char_traitsIcEENS_9allocatorIcEEEEEENS_14default_deleteISA_EEE7releaseB8ue170006Ev, symObjAddr: 0x1A63C, symBinAddr: 0x10001B930, symSize: 0x44 }
  - { offsetInCU: 0x331F5, offset: 0x331F5, size: 0x8, addend: 0x0, symName: __ZNSt3__110unique_ptrIN5utils10TypeErased5ModelINS_12basic_stringIcNS_11char_traitsIcEENS_9allocatorIcEEEEEENS_14default_deleteISA_EEE11get_deleterB8ue170006Ev, symObjAddr: 0x1A680, symBinAddr: 0x10001B974, symSize: 0x24 }
  - { offsetInCU: 0x33227, offset: 0x33227, size: 0x8, addend: 0x0, symName: __ZNSt3__117__compressed_pairIPN5utils10TypeErased4BaseENS_14default_deleteIS3_EEEC1B8ue170006IPNS2_5ModelINS_12basic_stringIcNS_11char_traitsIcEENS_9allocatorIcEEEEEENS5_ISG_EEEEOT_OT0_, symObjAddr: 0x1A6A4, symBinAddr: 0x10001B998, symSize: 0x3C }
  - { offsetInCU: 0x3327F, offset: 0x3327F, size: 0x8, addend: 0x0, symName: __ZNSt3__117__compressed_pairIPN5utils10TypeErased5ModelINS_12basic_stringIcNS_11char_traitsIcEENS_9allocatorIcEEEEEENS_14default_deleteISA_EEE5firstB8ue170006Ev, symObjAddr: 0x1A6E0, symBinAddr: 0x10001B9D4, symSize: 0x24 }
  - { offsetInCU: 0x332A5, offset: 0x332A5, size: 0x8, addend: 0x0, symName: __ZNSt3__122__compressed_pair_elemIPN5utils10TypeErased5ModelINS_12basic_stringIcNS_11char_traitsIcEENS_9allocatorIcEEEEEELi0ELb0EE5__getB8ue170006Ev, symObjAddr: 0x1A704, symBinAddr: 0x10001B9F8, symSize: 0x14 }
  - { offsetInCU: 0x332CB, offset: 0x332CB, size: 0x8, addend: 0x0, symName: __ZNSt3__117__compressed_pairIPN5utils10TypeErased5ModelINS_12basic_stringIcNS_11char_traitsIcEENS_9allocatorIcEEEEEENS_14default_deleteISA_EEE6secondB8ue170006Ev, symObjAddr: 0x1A718, symBinAddr: 0x10001BA0C, symSize: 0x24 }
  - { offsetInCU: 0x332F1, offset: 0x332F1, size: 0x8, addend: 0x0, symName: __ZNSt3__122__compressed_pair_elemINS_14default_deleteIN5utils10TypeErased5ModelINS_12basic_stringIcNS_11char_traitsIcEENS_9allocatorIcEEEEEEEELi1ELb1EE5__getB8ue170006Ev, symObjAddr: 0x1A73C, symBinAddr: 0x10001BA30, symSize: 0x14 }
  - { offsetInCU: 0x33317, offset: 0x33317, size: 0x8, addend: 0x0, symName: __ZNSt3__117__compressed_pairIPN5utils10TypeErased4BaseENS_14default_deleteIS3_EEEC2B8ue170006IPNS2_5ModelINS_12basic_stringIcNS_11char_traitsIcEENS_9allocatorIcEEEEEENS5_ISG_EEEEOT_OT0_, symObjAddr: 0x1A750, symBinAddr: 0x10001BA44, symSize: 0x44 }
  - { offsetInCU: 0x3336F, offset: 0x3336F, size: 0x8, addend: 0x0, symName: __ZNSt3__122__compressed_pair_elemIPN5utils10TypeErased4BaseELi0ELb0EEC2B8ue170006IPNS2_5ModelINS_12basic_stringIcNS_11char_traitsIcEENS_9allocatorIcEEEEEEvEEOT_, symObjAddr: 0x1A794, symBinAddr: 0x10001BA88, symSize: 0x24 }
  - { offsetInCU: 0x333B1, offset: 0x333B1, size: 0x8, addend: 0x0, symName: __ZNSt3__122__compressed_pair_elemINS_14default_deleteIN5utils10TypeErased4BaseEEELi1ELb1EEC2B8ue170006INS1_INS3_5ModelINS_12basic_stringIcNS_11char_traitsIcEENS_9allocatorIcEEEEEEEEvEEOT_, symObjAddr: 0x1A7B8, symBinAddr: 0x10001BAAC, symSize: 0x38 }
  - { offsetInCU: 0x333F3, offset: 0x333F3, size: 0x8, addend: 0x0, symName: __ZNSt3__114default_deleteIN5utils10TypeErased4BaseEEC2B8ue170006INS2_5ModelINS_12basic_stringIcNS_11char_traitsIcEENS_9allocatorIcEEEEEEEERKNS0_IT_EEPNS_9enable_ifIXsr14is_convertibleIPSE_PS3_EE5valueEvE4typeE, symObjAddr: 0x1A7F0, symBinAddr: 0x10001BAE4, symSize: 0x1C }
  - { offsetInCU: 0x3343C, offset: 0x3343C, size: 0x8, addend: 0x0, symName: __ZNSt3__110unique_ptrIN5utils10TypeErased5ModelINS_12basic_stringIcNS_11char_traitsIcEENS_9allocatorIcEEEEEENS_14default_deleteISA_EEEC2B8ue170006ILb1EvEEPSA_, symObjAddr: 0x1A80C, symBinAddr: 0x10001BB00, symSize: 0x44 }
  - { offsetInCU: 0x3347F, offset: 0x3347F, size: 0x8, addend: 0x0, symName: __ZNSt3__117__compressed_pairIPN5utils10TypeErased5ModelINS_12basic_stringIcNS_11char_traitsIcEENS_9allocatorIcEEEEEENS_14default_deleteISA_EEEC1B8ue170006IRSB_NS_16__value_init_tagEEEOT_OT0_, symObjAddr: 0x1A850, symBinAddr: 0x10001BB44, symSize: 0x3C }
  - { offsetInCU: 0x334D7, offset: 0x334D7, size: 0x8, addend: 0x0, symName: __ZNSt3__117__compressed_pairIPN5utils10TypeErased5ModelINS_12basic_stringIcNS_11char_traitsIcEENS_9allocatorIcEEEEEENS_14default_deleteISA_EEEC2B8ue170006IRSB_NS_16__value_init_tagEEEOT_OT0_, symObjAddr: 0x1A88C, symBinAddr: 0x10001BB80, symSize: 0x40 }
  - { offsetInCU: 0x3352F, offset: 0x3352F, size: 0x8, addend: 0x0, symName: __ZNSt3__122__compressed_pair_elemIPN5utils10TypeErased5ModelINS_12basic_stringIcNS_11char_traitsIcEENS_9allocatorIcEEEEEELi0ELb0EEC2B8ue170006IRSB_vEEOT_, symObjAddr: 0x1A8CC, symBinAddr: 0x10001BBC0, symSize: 0x24 }
  - { offsetInCU: 0x33571, offset: 0x33571, size: 0x8, addend: 0x0, symName: __ZNSt3__122__compressed_pair_elemINS_14default_deleteIN5utils10TypeErased5ModelINS_12basic_stringIcNS_11char_traitsIcEENS_9allocatorIcEEEEEEEELi1ELb1EEC2B8ue170006ENS_16__value_init_tagE, symObjAddr: 0x1A8F0, symBinAddr: 0x10001BBE4, symSize: 0x14 }
  - { offsetInCU: 0x335A6, offset: 0x335A6, size: 0x8, addend: 0x0, symName: __ZNKSt3__117__compressed_pairIPN5utils10TypeErased5ModelINS_12basic_stringIcNS_11char_traitsIcEENS_9allocatorIcEEEEEENS_14default_deleteISA_EEE5firstB8ue170006Ev, symObjAddr: 0x1A904, symBinAddr: 0x10001BBF8, symSize: 0x24 }
  - { offsetInCU: 0x335CC, offset: 0x335CC, size: 0x8, addend: 0x0, symName: __ZNKSt3__122__compressed_pair_elemIPN5utils10TypeErased5ModelINS_12basic_stringIcNS_11char_traitsIcEENS_9allocatorIcEEEEEELi0ELb0EE5__getB8ue170006Ev, symObjAddr: 0x1A928, symBinAddr: 0x10001BC1C, symSize: 0x14 }
  - { offsetInCU: 0x335F2, offset: 0x335F2, size: 0x8, addend: 0x0, symName: __ZNSt3__114default_deleteIN5utils10TypeErased4BaseEEC1B8ue170006INS2_5ModelINS_12basic_stringIcNS_11char_traitsIcEENS_9allocatorIcEEEEEEEERKNS0_IT_EEPNS_9enable_ifIXsr14is_convertibleIPSE_PS3_EE5valueEvE4typeE, symObjAddr: 0x1A93C, symBinAddr: 0x10001BC30, symSize: 0x3C }
  - { offsetInCU: 0x3363B, offset: 0x3363B, size: 0x8, addend: 0x0, symName: __ZNSt3__110unique_ptrIN5utils10TypeErased5ModelINS_12basic_stringIcNS_11char_traitsIcEENS_9allocatorIcEEEEEENS_14default_deleteISA_EEED2B8ue170006Ev, symObjAddr: 0x1A978, symBinAddr: 0x10001BC6C, symSize: 0x30 }
  - { offsetInCU: 0x33665, offset: 0x33665, size: 0x8, addend: 0x0, symName: __ZNSt3__110unique_ptrIN5utils10TypeErased5ModelINS_12basic_stringIcNS_11char_traitsIcEENS_9allocatorIcEEEEEENS_14default_deleteISA_EEE5resetB8ue170006EPSA_, symObjAddr: 0x1A9A8, symBinAddr: 0x10001BC9C, symSize: 0x78 }
  - { offsetInCU: 0x336A9, offset: 0x336A9, size: 0x8, addend: 0x0, symName: __ZNKSt3__114default_deleteIN5utils10TypeErased5ModelINS_12basic_stringIcNS_11char_traitsIcEENS_9allocatorIcEEEEEEEclB8ue170006EPSA_, symObjAddr: 0x1AA20, symBinAddr: 0x10001BD14, symSize: 0x4C }
  - { offsetInCU: 0x336DD, offset: 0x336DD, size: 0x8, addend: 0x0, symName: __ZN9rapidjson19BasicIStreamWrapperINSt3__113basic_istreamIcNS1_11char_traitsIcEEEEEC2ERS5_, symObjAddr: 0x1AA6C, symBinAddr: 0x10001BD60, symSize: 0x60 }
  - { offsetInCU: 0x33715, offset: 0x33715, size: 0x8, addend: 0x0, symName: __ZN9rapidjson19BasicIStreamWrapperINSt3__113basic_istreamIcNS1_11char_traitsIcEEEEE4ReadEv, symObjAddr: 0x1AACC, symBinAddr: 0x10001BDC0, symSize: 0x100 }
  - { offsetInCU: 0x3373B, offset: 0x3373B, size: 0x8, addend: 0x0, symName: __ZNKSt3__19basic_iosIcNS_11char_traitsIcEEEntB8ue170006Ev, symObjAddr: 0x1ABCC, symBinAddr: 0x10001BEC0, symSize: 0x28 }
  - { offsetInCU: 0x33761, offset: 0x33761, size: 0x8, addend: 0x0, symName: __ZNKSt3__113basic_istreamIcNS_11char_traitsIcEEE6gcountB8ue170006Ev, symObjAddr: 0x1ABF4, symBinAddr: 0x10001BEE8, symSize: 0x18 }
  - { offsetInCU: 0x33787, offset: 0x33787, size: 0x8, addend: 0x0, symName: __ZNKSt3__19basic_iosIcNS_11char_traitsIcEEE4failB8ue170006Ev, symObjAddr: 0x1AC0C, symBinAddr: 0x10001BF00, symSize: 0x28 }
  - { offsetInCU: 0x337AD, offset: 0x337AD, size: 0x8, addend: 0x0, symName: __ZNKSt3__18ios_base4failB8ue170006Ev, symObjAddr: 0x1AC34, symBinAddr: 0x10001BF28, symSize: 0x28 }
  - { offsetInCU: 0x337D5, offset: 0x337D5, size: 0x8, addend: 0x0, symName: __ZN9rapidjson15GenericDocumentINS_4UTF8IcEENS_19MemoryPoolAllocatorINS_12CrtAllocatorEEES4_E11ParseStreamILj0ES2_NS_19BasicIStreamWrapperINSt3__113basic_istreamIcNS9_11char_traitsIcEEEEEEEERS6_RT1_, symObjAddr: 0x1AC5C, symBinAddr: 0x10001BF50, symSize: 0x1B8 }
  - { offsetInCU: 0x33846, offset: 0x33846, size: 0x8, addend: 0x0, symName: __ZNK9rapidjson8internal5StackINS_12CrtAllocatorEE12HasAllocatorEv, symObjAddr: 0x1AE14, symBinAddr: 0x10001C108, symSize: 0x24 }
  - { offsetInCU: 0x3386C, offset: 0x3386C, size: 0x8, addend: 0x0, symName: __ZN9rapidjson8internal5StackINS_12CrtAllocatorEE12GetAllocatorEv, symObjAddr: 0x1AE38, symBinAddr: 0x10001C12C, symSize: 0x64 }
  - { offsetInCU: 0x33892, offset: 0x33892, size: 0x8, addend: 0x0, symName: __ZN9rapidjson13GenericReaderINS_4UTF8IcEES2_NS_12CrtAllocatorEEC1EPS3_m, symObjAddr: 0x1AE9C, symBinAddr: 0x10001C190, symSize: 0x3C }
  - { offsetInCU: 0x338F1, offset: 0x338F1, size: 0x8, addend: 0x0, symName: __ZN9rapidjson15GenericDocumentINS_4UTF8IcEENS_19MemoryPoolAllocatorINS_12CrtAllocatorEEES4_E16ClearStackOnExitC1ERS6_, symObjAddr: 0x1AED8, symBinAddr: 0x10001C1CC, symSize: 0x34 }
  - { offsetInCU: 0x3392A, offset: 0x3392A, size: 0x8, addend: 0x0, symName: __ZN9rapidjson13GenericReaderINS_4UTF8IcEES2_NS_12CrtAllocatorEE5ParseILj0ENS_19BasicIStreamWrapperINSt3__113basic_istreamIcNS7_11char_traitsIcEEEEEENS_15GenericDocumentIS2_NS_19MemoryPoolAllocatorIS3_EES3_EEEENS_11ParseResultERT0_RT1_, symObjAddr: 0x1AF0C, symBinAddr: 0x10001C200, symSize: 0x348 }
  - { offsetInCU: 0x33999, offset: 0x33999, size: 0x8, addend: 0x0, symName: __ZNK9rapidjson11ParseResultcvMS0_KFbvEEv, symObjAddr: 0x1B254, symBinAddr: 0x10001C548, symSize: 0x64 }
  - { offsetInCU: 0x339BF, offset: 0x339BF, size: 0x8, addend: 0x0, symName: __ZN9rapidjson12GenericValueINS_4UTF8IcEENS_19MemoryPoolAllocatorINS_12CrtAllocatorEEEEaSERS6_, symObjAddr: 0x1B2B8, symBinAddr: 0x10001C5AC, symSize: 0xAC }
  - { offsetInCU: 0x33A09, offset: 0x33A09, size: 0x8, addend: 0x0, symName: __ZN9rapidjson8internal5StackINS_12CrtAllocatorEE3PopINS_12GenericValueINS_4UTF8IcEENS_19MemoryPoolAllocatorIS2_EEEEEEPT_m, symObjAddr: 0x1B364, symBinAddr: 0x10001C658, symSize: 0x8C }
  - { offsetInCU: 0x33A46, offset: 0x33A46, size: 0x8, addend: 0x0, symName: __ZN9rapidjson15GenericDocumentINS_4UTF8IcEENS_19MemoryPoolAllocatorINS_12CrtAllocatorEEES4_E16ClearStackOnExitD1Ev, symObjAddr: 0x1B3F0, symBinAddr: 0x10001C6E4, symSize: 0x2C }
  - { offsetInCU: 0x33A70, offset: 0x33A70, size: 0x8, addend: 0x0, symName: __ZN9rapidjson13GenericReaderINS_4UTF8IcEES2_NS_12CrtAllocatorEED1Ev, symObjAddr: 0x1B41C, symBinAddr: 0x10001C710, symSize: 0x2C }
  - { offsetInCU: 0x33A9D, offset: 0x33A9D, size: 0x8, addend: 0x0, symName: __ZN9rapidjson13GenericReaderINS_4UTF8IcEES2_NS_12CrtAllocatorEEC2EPS3_m, symObjAddr: 0x1B448, symBinAddr: 0x10001C73C, symSize: 0x78 }
  - { offsetInCU: 0x33AE5, offset: 0x33AE5, size: 0x8, addend: 0x0, symName: __ZN9rapidjson15GenericDocumentINS_4UTF8IcEENS_19MemoryPoolAllocatorINS_12CrtAllocatorEEES4_E16ClearStackOnExitC2ERS6_, symObjAddr: 0x1B4C0, symBinAddr: 0x10001C7B4, symSize: 0x20 }
  - { offsetInCU: 0x33B1E, offset: 0x33B1E, size: 0x8, addend: 0x0, symName: __ZN9rapidjson11ParseResult5ClearEv, symObjAddr: 0x1B4E0, symBinAddr: 0x10001C7D4, symSize: 0x2C }
  - { offsetInCU: 0x33B5B, offset: 0x33B5B, size: 0x8, addend: 0x0, symName: __ZN9rapidjson13GenericReaderINS_4UTF8IcEES2_NS_12CrtAllocatorEE16ClearStackOnExitC1ERS4_, symObjAddr: 0x1B50C, symBinAddr: 0x10001C800, symSize: 0x34 }
  - { offsetInCU: 0x33B94, offset: 0x33B94, size: 0x8, addend: 0x0, symName: __ZN9rapidjson13GenericReaderINS_4UTF8IcEES2_NS_12CrtAllocatorEE25SkipWhitespaceAndCommentsILj0ENS_19BasicIStreamWrapperINSt3__113basic_istreamIcNS7_11char_traitsIcEEEEEEEEvRT0_, symObjAddr: 0x1B540, symBinAddr: 0x10001C834, symSize: 0x28 }
  - { offsetInCU: 0x33BDC, offset: 0x33BDC, size: 0x8, addend: 0x0, symName: __ZNK9rapidjson13GenericReaderINS_4UTF8IcEES2_NS_12CrtAllocatorEE13HasParseErrorEv, symObjAddr: 0x1B568, symBinAddr: 0x10001C85C, symSize: 0x2C }
  - { offsetInCU: 0x33C02, offset: 0x33C02, size: 0x8, addend: 0x0, symName: __ZNK9rapidjson19BasicIStreamWrapperINSt3__113basic_istreamIcNS1_11char_traitsIcEEEEE4PeekEv, symObjAddr: 0x1B594, symBinAddr: 0x10001C888, symSize: 0x1C }
  - { offsetInCU: 0x33C28, offset: 0x33C28, size: 0x8, addend: 0x0, symName: __ZN9rapidjson13GenericReaderINS_4UTF8IcEES2_NS_12CrtAllocatorEE13SetParseErrorENS_14ParseErrorCodeEm, symObjAddr: 0x1B5B0, symBinAddr: 0x10001C8A4, symSize: 0x38 }
  - { offsetInCU: 0x33C6C, offset: 0x33C6C, size: 0x8, addend: 0x0, symName: __ZNK9rapidjson19BasicIStreamWrapperINSt3__113basic_istreamIcNS1_11char_traitsIcEEEEE4TellEv, symObjAddr: 0x1B5E8, symBinAddr: 0x10001C8DC, symSize: 0x28 }
  - { offsetInCU: 0x33C92, offset: 0x33C92, size: 0x8, addend: 0x0, symName: __ZN9rapidjson13GenericReaderINS_4UTF8IcEES2_NS_12CrtAllocatorEE10ParseValueILj0ENS_19BasicIStreamWrapperINSt3__113basic_istreamIcNS7_11char_traitsIcEEEEEENS_15GenericDocumentIS2_NS_19MemoryPoolAllocatorIS3_EES3_EEEEvRT0_RT1_, symObjAddr: 0x1B610, symBinAddr: 0x10001C904, symSize: 0x144 }
  - { offsetInCU: 0x33CF2, offset: 0x33CF2, size: 0x8, addend: 0x0, symName: __ZN9rapidjson13GenericReaderINS_4UTF8IcEES2_NS_12CrtAllocatorEE16ClearStackOnExitD1Ev, symObjAddr: 0x1B754, symBinAddr: 0x10001CA48, symSize: 0x2C }
  - { offsetInCU: 0x33D1C, offset: 0x33D1C, size: 0x8, addend: 0x0, symName: __ZN9rapidjson11ParseResult3SetENS_14ParseErrorCodeEm, symObjAddr: 0x1B780, symBinAddr: 0x10001CA74, symSize: 0x2C }
  - { offsetInCU: 0x33D5E, offset: 0x33D5E, size: 0x8, addend: 0x0, symName: __ZN9rapidjson13GenericReaderINS_4UTF8IcEES2_NS_12CrtAllocatorEE16ClearStackOnExitC2ERS4_, symObjAddr: 0x1B7AC, symBinAddr: 0x10001CAA0, symSize: 0x20 }
  - { offsetInCU: 0x33DAE, offset: 0x33DAE, size: 0x8, addend: 0x0, symName: __ZN9rapidjson8internal15StreamLocalCopyINS_19BasicIStreamWrapperINSt3__113basic_istreamIcNS3_11char_traitsIcEEEEEELi0EEC1ERS8_, symObjAddr: 0x1B88C, symBinAddr: 0x10001CB80, symSize: 0x34 }
  - { offsetInCU: 0x33DE6, offset: 0x33DE6, size: 0x8, addend: 0x0, symName: __ZN9rapidjson19BasicIStreamWrapperINSt3__113basic_istreamIcNS1_11char_traitsIcEEEEE4TakeEv, symObjAddr: 0x1B8C0, symBinAddr: 0x10001CBB4, symSize: 0x34 }
  - { offsetInCU: 0x33E1A, offset: 0x33E1A, size: 0x8, addend: 0x0, symName: __ZN9rapidjson8internal15StreamLocalCopyINS_19BasicIStreamWrapperINSt3__113basic_istreamIcNS3_11char_traitsIcEEEEEELi0EEC2ERS8_, symObjAddr: 0x1B8F4, symBinAddr: 0x10001CBE8, symSize: 0x20 }
  - { offsetInCU: 0x33E52, offset: 0x33E52, size: 0x8, addend: 0x0, symName: __ZNK9rapidjson11ParseResult7IsErrorEv, symObjAddr: 0x1B914, symBinAddr: 0x10001CC08, symSize: 0x24 }
  - { offsetInCU: 0x33E78, offset: 0x33E78, size: 0x8, addend: 0x0, symName: __ZN9rapidjson13GenericReaderINS_4UTF8IcEES2_NS_12CrtAllocatorEE9ParseNullILj0ENS_19BasicIStreamWrapperINSt3__113basic_istreamIcNS7_11char_traitsIcEEEEEENS_15GenericDocumentIS2_NS_19MemoryPoolAllocatorIS3_EES3_EEEEvRT0_RT1_, symObjAddr: 0x1B938, symBinAddr: 0x10001CC2C, symSize: 0x1D8 }
  - { offsetInCU: 0x33ED8, offset: 0x33ED8, size: 0x8, addend: 0x0, symName: __ZN9rapidjson13GenericReaderINS_4UTF8IcEES2_NS_12CrtAllocatorEE9ParseTrueILj0ENS_19BasicIStreamWrapperINSt3__113basic_istreamIcNS7_11char_traitsIcEEEEEENS_15GenericDocumentIS2_NS_19MemoryPoolAllocatorIS3_EES3_EEEEvRT0_RT1_, symObjAddr: 0x1BB10, symBinAddr: 0x10001CE04, symSize: 0x1E0 }
  - { offsetInCU: 0x33F38, offset: 0x33F38, size: 0x8, addend: 0x0, symName: __ZN9rapidjson13GenericReaderINS_4UTF8IcEES2_NS_12CrtAllocatorEE10ParseFalseILj0ENS_19BasicIStreamWrapperINSt3__113basic_istreamIcNS7_11char_traitsIcEEEEEENS_15GenericDocumentIS2_NS_19MemoryPoolAllocatorIS3_EES3_EEEEvRT0_RT1_, symObjAddr: 0x1BCF0, symBinAddr: 0x10001CFE4, symSize: 0x1FC }
  - { offsetInCU: 0x33F98, offset: 0x33F98, size: 0x8, addend: 0x0, symName: __ZN9rapidjson13GenericReaderINS_4UTF8IcEES2_NS_12CrtAllocatorEE11ParseStringILj0ENS_19BasicIStreamWrapperINSt3__113basic_istreamIcNS7_11char_traitsIcEEEEEENS_15GenericDocumentIS2_NS_19MemoryPoolAllocatorIS3_EES3_EEEEvRT0_RT1_b, symObjAddr: 0x1BEEC, symBinAddr: 0x10001D1E0, symSize: 0x1DC }
  - { offsetInCU: 0x3406F, offset: 0x3406F, size: 0x8, addend: 0x0, symName: __ZN9rapidjson13GenericReaderINS_4UTF8IcEES2_NS_12CrtAllocatorEE11ParseObjectILj0ENS_19BasicIStreamWrapperINSt3__113basic_istreamIcNS7_11char_traitsIcEEEEEENS_15GenericDocumentIS2_NS_19MemoryPoolAllocatorIS3_EES3_EEEEvRT0_RT1_, symObjAddr: 0x1C0C8, symBinAddr: 0x10001D3BC, symSize: 0x568 }
  - { offsetInCU: 0x340EC, offset: 0x340EC, size: 0x8, addend: 0x0, symName: __ZN9rapidjson13GenericReaderINS_4UTF8IcEES2_NS_12CrtAllocatorEE10ParseArrayILj0ENS_19BasicIStreamWrapperINSt3__113basic_istreamIcNS7_11char_traitsIcEEEEEENS_15GenericDocumentIS2_NS_19MemoryPoolAllocatorIS3_EES3_EEEEvRT0_RT1_, symObjAddr: 0x1C630, symBinAddr: 0x10001D924, symSize: 0x3A4 }
  - { offsetInCU: 0x34169, offset: 0x34169, size: 0x8, addend: 0x0, symName: __ZN9rapidjson13GenericReaderINS_4UTF8IcEES2_NS_12CrtAllocatorEE11ParseNumberILj0ENS_19BasicIStreamWrapperINSt3__113basic_istreamIcNS7_11char_traitsIcEEEEEENS_15GenericDocumentIS2_NS_19MemoryPoolAllocatorIS3_EES3_EEEEvRT0_RT1_, symObjAddr: 0x1C9D4, symBinAddr: 0x10001DCC8, symSize: 0x104C }
  - { offsetInCU: 0x34368, offset: 0x34368, size: 0x8, addend: 0x0, symName: __ZN9rapidjson13GenericReaderINS_4UTF8IcEES2_NS_12CrtAllocatorEE7ConsumeINS_19BasicIStreamWrapperINSt3__113basic_istreamIcNS7_11char_traitsIcEEEEEEEEbRT_NSD_2ChE, symObjAddr: 0x1DA20, symBinAddr: 0x10001ED14, symSize: 0x74 }
  - { offsetInCU: 0x343A4, offset: 0x343A4, size: 0x8, addend: 0x0, symName: __ZN9rapidjson15GenericDocumentINS_4UTF8IcEENS_19MemoryPoolAllocatorINS_12CrtAllocatorEEES4_E4NullEv, symObjAddr: 0x1DA94, symBinAddr: 0x10001ED88, symSize: 0x38 }
  - { offsetInCU: 0x343CA, offset: 0x343CA, size: 0x8, addend: 0x0, symName: __ZN9rapidjson8internal5StackINS_12CrtAllocatorEE4PushINS_12GenericValueINS_4UTF8IcEENS_19MemoryPoolAllocatorIS2_EEEEEEPT_m, symObjAddr: 0x1DACC, symBinAddr: 0x10001EDC0, symSize: 0x3C }
  - { offsetInCU: 0x34407, offset: 0x34407, size: 0x8, addend: 0x0, symName: __ZN9rapidjson8internal5StackINS_12CrtAllocatorEE7ReserveINS_12GenericValueINS_4UTF8IcEENS_19MemoryPoolAllocatorIS2_EEEEEEvm, symObjAddr: 0x1DB08, symBinAddr: 0x10001EDFC, symSize: 0x60 }
  - { offsetInCU: 0x34444, offset: 0x34444, size: 0x8, addend: 0x0, symName: __ZN9rapidjson8internal5StackINS_12CrtAllocatorEE10PushUnsafeINS_12GenericValueINS_4UTF8IcEENS_19MemoryPoolAllocatorIS2_EEEEEEPT_m, symObjAddr: 0x1DB68, symBinAddr: 0x10001EE5C, symSize: 0xD8 }
  - { offsetInCU: 0x3448F, offset: 0x3448F, size: 0x8, addend: 0x0, symName: __ZN9rapidjson8internal5StackINS_12CrtAllocatorEE6ExpandINS_12GenericValueINS_4UTF8IcEENS_19MemoryPoolAllocatorIS2_EEEEEEvm, symObjAddr: 0x1DC40, symBinAddr: 0x10001EF34, symSize: 0xF8 }
  - { offsetInCU: 0x344E8, offset: 0x344E8, size: 0x8, addend: 0x0, symName: __ZN9rapidjson15GenericDocumentINS_4UTF8IcEENS_19MemoryPoolAllocatorINS_12CrtAllocatorEEES4_E4BoolEb, symObjAddr: 0x1DD38, symBinAddr: 0x10001F02C, symSize: 0x54 }
  - { offsetInCU: 0x3451D, offset: 0x3451D, size: 0x8, addend: 0x0, symName: __ZN9rapidjson13GenericReaderINS_4UTF8IcEES2_NS_12CrtAllocatorEE11StackStreamIcEC1ERNS_8internal5StackIS3_EE, symObjAddr: 0x1DD8C, symBinAddr: 0x10001F080, symSize: 0x34 }
  - { offsetInCU: 0x34556, offset: 0x34556, size: 0x8, addend: 0x0, symName: __ZNK9rapidjson13GenericReaderINS_4UTF8IcEES2_NS_12CrtAllocatorEE11StackStreamIcE6LengthEv, symObjAddr: 0x1E3E8, symBinAddr: 0x10001F6DC, symSize: 0x1C }
  - { offsetInCU: 0x3457C, offset: 0x3457C, size: 0x8, addend: 0x0, symName: __ZN9rapidjson13GenericReaderINS_4UTF8IcEES2_NS_12CrtAllocatorEE11StackStreamIcE3PopEv, symObjAddr: 0x1E404, symBinAddr: 0x10001F6F8, symSize: 0x30 }
  - { offsetInCU: 0x345A2, offset: 0x345A2, size: 0x8, addend: 0x0, symName: __ZN9rapidjson15GenericDocumentINS_4UTF8IcEENS_19MemoryPoolAllocatorINS_12CrtAllocatorEEES4_E3KeyEPKcjb, symObjAddr: 0x1E434, symBinAddr: 0x10001F728, symSize: 0x4C }
  - { offsetInCU: 0x345F5, offset: 0x345F5, size: 0x8, addend: 0x0, symName: __ZN9rapidjson15GenericDocumentINS_4UTF8IcEENS_19MemoryPoolAllocatorINS_12CrtAllocatorEEES4_E6StringEPKcjb, symObjAddr: 0x1E480, symBinAddr: 0x10001F774, symSize: 0xB4 }
  - { offsetInCU: 0x34648, offset: 0x34648, size: 0x8, addend: 0x0, symName: __ZN9rapidjson13GenericReaderINS_4UTF8IcEES2_NS_12CrtAllocatorEE11StackStreamIcEC2ERNS_8internal5StackIS3_EE, symObjAddr: 0x1E534, symBinAddr: 0x10001F828, symSize: 0x24 }
  - { offsetInCU: 0x34681, offset: 0x34681, size: 0x8, addend: 0x0, symName: __ZN9rapidjson13GenericReaderINS_4UTF8IcEES2_NS_12CrtAllocatorEE23ScanCopyUnescapedStringINS_19BasicIStreamWrapperINSt3__113basic_istreamIcNS7_11char_traitsIcEEEEEENS4_11StackStreamIcEEEEvRT_RT0_, symObjAddr: 0x1E558, symBinAddr: 0x10001F84C, symSize: 0x14 }
  - { offsetInCU: 0x346BE, offset: 0x346BE, size: 0x8, addend: 0x0, symName: __ZN9rapidjson13GenericReaderINS_4UTF8IcEES2_NS_12CrtAllocatorEE11StackStreamIcE3PutEc, symObjAddr: 0x1E56C, symBinAddr: 0x10001F860, symSize: 0x54 }
  - { offsetInCU: 0x346F3, offset: 0x346F3, size: 0x8, addend: 0x0, symName: __ZN9rapidjson13GenericReaderINS_4UTF8IcEES2_NS_12CrtAllocatorEE9ParseHex4INS_19BasicIStreamWrapperINSt3__113basic_istreamIcNS7_11char_traitsIcEEEEEEEEjRT_m, symObjAddr: 0x1E5C0, symBinAddr: 0x10001F8B4, symSize: 0x1C0 }
  - { offsetInCU: 0x34789, offset: 0x34789, size: 0x8, addend: 0x0, symName: __ZN9rapidjson4UTF8IcE6EncodeINS_13GenericReaderIS1_S1_NS_12CrtAllocatorEE11StackStreamIcEEEEvRT_j, symObjAddr: 0x1E780, symBinAddr: 0x10001FA74, symSize: 0x1D8 }
  - { offsetInCU: 0x347C3, offset: 0x347C3, size: 0x8, addend: 0x0, symName: __ZN9rapidjson10TranscoderINS_4UTF8IcEES2_E9TranscodeINS_19BasicIStreamWrapperINSt3__113basic_istreamIcNS6_11char_traitsIcEEEEEENS_13GenericReaderIS2_S2_NS_12CrtAllocatorEE11StackStreamIcEEEEbRT_RT0_, symObjAddr: 0x1E958, symBinAddr: 0x10001FC4C, symSize: 0x48 }
  - { offsetInCU: 0x34808, offset: 0x34808, size: 0x8, addend: 0x0, symName: __ZN9rapidjson12GenericValueINS_4UTF8IcEENS_19MemoryPoolAllocatorINS_12CrtAllocatorEEEEC1EPKcjRS5_, symObjAddr: 0x1E9A0, symBinAddr: 0x10001FC94, symSize: 0x44 }
  - { offsetInCU: 0x3485F, offset: 0x3485F, size: 0x8, addend: 0x0, symName: __ZN9rapidjson12GenericValueINS_4UTF8IcEENS_19MemoryPoolAllocatorINS_12CrtAllocatorEEEEC1EPKcj, symObjAddr: 0x1E9E4, symBinAddr: 0x10001FCD8, symSize: 0x3C }
  - { offsetInCU: 0x348A7, offset: 0x348A7, size: 0x8, addend: 0x0, symName: __ZN9rapidjson12GenericValueINS_4UTF8IcEENS_19MemoryPoolAllocatorINS_12CrtAllocatorEEEEC2EPKcjRS5_, symObjAddr: 0x1EA20, symBinAddr: 0x10001FD14, symSize: 0x68 }
  - { offsetInCU: 0x348FE, offset: 0x348FE, size: 0x8, addend: 0x0, symName: __ZN9rapidjson16GenericStringRefIcEC1EPKcj, symObjAddr: 0x1EACC, symBinAddr: 0x10001FDC0, symSize: 0x3C }
  - { offsetInCU: 0x34946, offset: 0x34946, size: 0x8, addend: 0x0, symName: __ZN9rapidjson16GenericStringRefIcEC2EPKcj, symObjAddr: 0x1EB08, symBinAddr: 0x10001FDFC, symSize: 0xD8 }
  - { offsetInCU: 0x3498E, offset: 0x3498E, size: 0x8, addend: 0x0, symName: __ZN9rapidjson12GenericValueINS_4UTF8IcEENS_19MemoryPoolAllocatorINS_12CrtAllocatorEEEEC2EPKcj, symObjAddr: 0x1EBE0, symBinAddr: 0x10001FED4, symSize: 0x64 }
  - { offsetInCU: 0x349D6, offset: 0x349D6, size: 0x8, addend: 0x0, symName: __ZN9rapidjson12GenericValueINS_4UTF8IcEENS_19MemoryPoolAllocatorINS_12CrtAllocatorEEEE12SetStringRawENS_16GenericStringRefIcEE, symObjAddr: 0x1EC44, symBinAddr: 0x10001FF38, symSize: 0x60 }
  - { offsetInCU: 0x34A0C, offset: 0x34A0C, size: 0x8, addend: 0x0, symName: __ZN9rapidjson15GenericDocumentINS_4UTF8IcEENS_19MemoryPoolAllocatorINS_12CrtAllocatorEEES4_E11StartObjectEv, symObjAddr: 0x1ECA4, symBinAddr: 0x10001FF98, symSize: 0x3C }
  - { offsetInCU: 0x34A32, offset: 0x34A32, size: 0x8, addend: 0x0, symName: __ZN9rapidjson15GenericDocumentINS_4UTF8IcEENS_19MemoryPoolAllocatorINS_12CrtAllocatorEEES4_E9EndObjectEj, symObjAddr: 0x1ECE0, symBinAddr: 0x10001FFD4, symSize: 0x84 }
  - { offsetInCU: 0x34A76, offset: 0x34A76, size: 0x8, addend: 0x0, symName: __ZN9rapidjson8internal5StackINS_12CrtAllocatorEE3PopINS_13GenericMemberINS_4UTF8IcEENS_19MemoryPoolAllocatorIS2_EEEEEEPT_m, symObjAddr: 0x1ED64, symBinAddr: 0x100020058, symSize: 0x8C }
  - { offsetInCU: 0x34AB3, offset: 0x34AB3, size: 0x8, addend: 0x0, symName: __ZN9rapidjson8internal5StackINS_12CrtAllocatorEE3TopINS_12GenericValueINS_4UTF8IcEENS_19MemoryPoolAllocatorIS2_EEEEEEPT_v, symObjAddr: 0x1EDF0, symBinAddr: 0x1000200E4, symSize: 0x68 }
  - { offsetInCU: 0x34AE2, offset: 0x34AE2, size: 0x8, addend: 0x0, symName: __ZN9rapidjson12GenericValueINS_4UTF8IcEENS_19MemoryPoolAllocatorINS_12CrtAllocatorEEEE12SetObjectRawEPNS_13GenericMemberIS2_S5_EEjRS5_, symObjAddr: 0x1EE58, symBinAddr: 0x10002014C, symSize: 0xAC }
  - { offsetInCU: 0x34B52, offset: 0x34B52, size: 0x8, addend: 0x0, symName: __ZN9rapidjson12GenericValueINS_4UTF8IcEENS_19MemoryPoolAllocatorINS_12CrtAllocatorEEEE14DoAllocMembersEjRS5_, symObjAddr: 0x1EF04, symBinAddr: 0x1000201F8, symSize: 0x34 }
  - { offsetInCU: 0x34B96, offset: 0x34B96, size: 0x8, addend: 0x0, symName: __ZN9rapidjson12GenericValueINS_4UTF8IcEENS_19MemoryPoolAllocatorINS_12CrtAllocatorEEEE17SetMembersPointerEPNS_13GenericMemberIS2_S5_EE, symObjAddr: 0x1EF38, symBinAddr: 0x10002022C, symSize: 0x20 }
  - { offsetInCU: 0x34BCB, offset: 0x34BCB, size: 0x8, addend: 0x0, symName: __ZN9rapidjson15GenericDocumentINS_4UTF8IcEENS_19MemoryPoolAllocatorINS_12CrtAllocatorEEES4_E10StartArrayEv, symObjAddr: 0x1EF8C, symBinAddr: 0x100020280, symSize: 0x3C }
  - { offsetInCU: 0x34BF1, offset: 0x34BF1, size: 0x8, addend: 0x0, symName: __ZN9rapidjson15GenericDocumentINS_4UTF8IcEENS_19MemoryPoolAllocatorINS_12CrtAllocatorEEES4_E8EndArrayEj, symObjAddr: 0x1EFC8, symBinAddr: 0x1000202BC, symSize: 0x84 }
  - { offsetInCU: 0x34C35, offset: 0x34C35, size: 0x8, addend: 0x0, symName: __ZN9rapidjson12GenericValueINS_4UTF8IcEENS_19MemoryPoolAllocatorINS_12CrtAllocatorEEEE11SetArrayRawEPS6_jRS5_, symObjAddr: 0x1F04C, symBinAddr: 0x100020340, symSize: 0xB4 }
  - { offsetInCU: 0x34CA5, offset: 0x34CA5, size: 0x8, addend: 0x0, symName: __ZN9rapidjson12GenericValueINS_4UTF8IcEENS_19MemoryPoolAllocatorINS_12CrtAllocatorEEEE18SetElementsPointerEPS6_, symObjAddr: 0x1F100, symBinAddr: 0x1000203F4, symSize: 0x20 }
  - { offsetInCU: 0x34CF7, offset: 0x34CF7, size: 0x8, addend: 0x0, symName: __ZN9rapidjson13GenericReaderINS_4UTF8IcEES2_NS_12CrtAllocatorEE12NumberStreamINS_19BasicIStreamWrapperINSt3__113basic_istreamIcNS7_11char_traitsIcEEEEEEcLb0ELb0EEC1ERS4_RSC_, symObjAddr: 0x1F120, symBinAddr: 0x100020414, symSize: 0x3C }
  - { offsetInCU: 0x34D3F, offset: 0x34D3F, size: 0x8, addend: 0x0, symName: __ZN9rapidjson13GenericReaderINS_4UTF8IcEES2_NS_12CrtAllocatorEE12NumberStreamINS_19BasicIStreamWrapperINSt3__113basic_istreamIcNS7_11char_traitsIcEEEEEEcLb0ELb0EE4TellEv, symObjAddr: 0x1F15C, symBinAddr: 0x100020450, symSize: 0x28 }
  - { offsetInCU: 0x34D65, offset: 0x34D65, size: 0x8, addend: 0x0, symName: __ZN9rapidjson13GenericReaderINS_4UTF8IcEES2_NS_12CrtAllocatorEE7ConsumeINS4_12NumberStreamINS_19BasicIStreamWrapperINSt3__113basic_istreamIcNS8_11char_traitsIcEEEEEEcLb0ELb0EEEEEbRT_NSF_2ChE, symObjAddr: 0x1F184, symBinAddr: 0x100020478, symSize: 0x74 }
  - { offsetInCU: 0x34DA1, offset: 0x34DA1, size: 0x8, addend: 0x0, symName: __ZNK9rapidjson13GenericReaderINS_4UTF8IcEES2_NS_12CrtAllocatorEE12NumberStreamINS_19BasicIStreamWrapperINSt3__113basic_istreamIcNS7_11char_traitsIcEEEEEEcLb0ELb0EE4PeekEv, symObjAddr: 0x1F1F8, symBinAddr: 0x1000204EC, symSize: 0x2C }
  - { offsetInCU: 0x34DC7, offset: 0x34DC7, size: 0x8, addend: 0x0, symName: __ZN9rapidjson13GenericReaderINS_4UTF8IcEES2_NS_12CrtAllocatorEE12NumberStreamINS_19BasicIStreamWrapperINSt3__113basic_istreamIcNS7_11char_traitsIcEEEEEEcLb0ELb0EE8TakePushEv, symObjAddr: 0x1F224, symBinAddr: 0x100020518, symSize: 0x2C }
  - { offsetInCU: 0x34DED, offset: 0x34DED, size: 0x8, addend: 0x0, symName: __ZN9rapidjson13GenericReaderINS_4UTF8IcEES2_NS_12CrtAllocatorEE12NumberStreamINS_19BasicIStreamWrapperINSt3__113basic_istreamIcNS7_11char_traitsIcEEEEEEcLb0ELb0EE6LengthEv, symObjAddr: 0x1F250, symBinAddr: 0x100020544, symSize: 0x14 }
  - { offsetInCU: 0x34E13, offset: 0x34E13, size: 0x8, addend: 0x0, symName: __ZN9rapidjson13GenericReaderINS_4UTF8IcEES2_NS_12CrtAllocatorEE12NumberStreamINS_19BasicIStreamWrapperINSt3__113basic_istreamIcNS7_11char_traitsIcEEEEEEcLb0ELb0EE4TakeEv, symObjAddr: 0x1F264, symBinAddr: 0x100020558, symSize: 0x2C }
  - { offsetInCU: 0x34E39, offset: 0x34E39, size: 0x8, addend: 0x0, symName: __ZN9rapidjson13GenericReaderINS_4UTF8IcEES2_NS_12CrtAllocatorEE12NumberStreamINS_19BasicIStreamWrapperINSt3__113basic_istreamIcNS7_11char_traitsIcEEEEEEcLb0ELb0EE3PopEv, symObjAddr: 0x1F290, symBinAddr: 0x100020584, symSize: 0x14 }
  - { offsetInCU: 0x34E5F, offset: 0x34E5F, size: 0x8, addend: 0x0, symName: __ZNSt3__114numeric_limitsIdE3maxB8ue170006Ev, symObjAddr: 0x1F318, symBinAddr: 0x10002060C, symSize: 0x14 }
  - { offsetInCU: 0x34E73, offset: 0x34E73, size: 0x8, addend: 0x0, symName: __ZN9rapidjson15GenericDocumentINS_4UTF8IcEENS_19MemoryPoolAllocatorINS_12CrtAllocatorEEES4_E6DoubleEd, symObjAddr: 0x1F32C, symBinAddr: 0x100020620, symSize: 0x40 }
  - { offsetInCU: 0x34EA8, offset: 0x34EA8, size: 0x8, addend: 0x0, symName: __ZN9rapidjson15GenericDocumentINS_4UTF8IcEENS_19MemoryPoolAllocatorINS_12CrtAllocatorEEES4_E5Int64Ex, symObjAddr: 0x1F36C, symBinAddr: 0x100020660, symSize: 0x40 }
  - { offsetInCU: 0x34EDD, offset: 0x34EDD, size: 0x8, addend: 0x0, symName: __ZN9rapidjson15GenericDocumentINS_4UTF8IcEENS_19MemoryPoolAllocatorINS_12CrtAllocatorEEES4_E6Uint64Ey, symObjAddr: 0x1F3AC, symBinAddr: 0x1000206A0, symSize: 0x40 }
  - { offsetInCU: 0x34F12, offset: 0x34F12, size: 0x8, addend: 0x0, symName: __ZN9rapidjson15GenericDocumentINS_4UTF8IcEENS_19MemoryPoolAllocatorINS_12CrtAllocatorEEES4_E3IntEi, symObjAddr: 0x1F3EC, symBinAddr: 0x1000206E0, symSize: 0x40 }
  - { offsetInCU: 0x34F47, offset: 0x34F47, size: 0x8, addend: 0x0, symName: __ZN9rapidjson15GenericDocumentINS_4UTF8IcEENS_19MemoryPoolAllocatorINS_12CrtAllocatorEEES4_E4UintEj, symObjAddr: 0x1F42C, symBinAddr: 0x100020720, symSize: 0x40 }
  - { offsetInCU: 0x34F7C, offset: 0x34F7C, size: 0x8, addend: 0x0, symName: __ZN9rapidjson13GenericReaderINS_4UTF8IcEES2_NS_12CrtAllocatorEE12NumberStreamINS_19BasicIStreamWrapperINSt3__113basic_istreamIcNS7_11char_traitsIcEEEEEEcLb0ELb0EEC2ERS4_RSC_, symObjAddr: 0x1F46C, symBinAddr: 0x100020760, symSize: 0x24 }
  - { offsetInCU: 0x34FC4, offset: 0x34FC4, size: 0x8, addend: 0x0, symName: __ZNSt3__123__libcpp_numeric_limitsIdLb1EE3maxB8ue170006Ev, symObjAddr: 0x1F5C4, symBinAddr: 0x1000208B8, symSize: 0xC }
  - { offsetInCU: 0x34FD8, offset: 0x34FD8, size: 0x8, addend: 0x0, symName: __ZN9rapidjson12GenericValueINS_4UTF8IcEENS_19MemoryPoolAllocatorINS_12CrtAllocatorEEEEC1Ex, symObjAddr: 0x1F5D0, symBinAddr: 0x1000208C4, symSize: 0x34 }
  - { offsetInCU: 0x35011, offset: 0x35011, size: 0x8, addend: 0x0, symName: __ZN9rapidjson12GenericValueINS_4UTF8IcEENS_19MemoryPoolAllocatorINS_12CrtAllocatorEEEEC2Ex, symObjAddr: 0x1F604, symBinAddr: 0x1000208F8, symSize: 0xF0 }
  - { offsetInCU: 0x3504A, offset: 0x3504A, size: 0x8, addend: 0x0, symName: __ZN9rapidjson12GenericValueINS_4UTF8IcEENS_19MemoryPoolAllocatorINS_12CrtAllocatorEEEEC1Ey, symObjAddr: 0x1F6F4, symBinAddr: 0x1000209E8, symSize: 0x34 }
  - { offsetInCU: 0x35083, offset: 0x35083, size: 0x8, addend: 0x0, symName: __ZN9rapidjson12GenericValueINS_4UTF8IcEENS_19MemoryPoolAllocatorINS_12CrtAllocatorEEEEC2Ey, symObjAddr: 0x1F728, symBinAddr: 0x100020A1C, symSize: 0xBC }
  - { offsetInCU: 0x350BC, offset: 0x350BC, size: 0x8, addend: 0x0, symName: __ZN9rapidjson12GenericValueINS_4UTF8IcEENS_19MemoryPoolAllocatorINS_12CrtAllocatorEEEEC1Ej, symObjAddr: 0x1F7E4, symBinAddr: 0x100020AD8, symSize: 0x34 }
  - { offsetInCU: 0x350F5, offset: 0x350F5, size: 0x8, addend: 0x0, symName: __ZN9rapidjson12GenericValueINS_4UTF8IcEENS_19MemoryPoolAllocatorINS_12CrtAllocatorEEEEC2Ej, symObjAddr: 0x1F818, symBinAddr: 0x100020B0C, symSize: 0x54 }
  - { offsetInCU: 0x3512E, offset: 0x3512E, size: 0x8, addend: 0x0, symName: __ZN9rapidjson13GenericReaderINS_4UTF8IcEES2_NS_12CrtAllocatorEE16ClearStackOnExitD2Ev, symObjAddr: 0x1F86C, symBinAddr: 0x100020B60, symSize: 0x38 }
  - { offsetInCU: 0x35158, offset: 0x35158, size: 0x8, addend: 0x0, symName: __ZN9rapidjson13GenericReaderINS_4UTF8IcEES2_NS_12CrtAllocatorEE10ClearStackEv, symObjAddr: 0x1F8A4, symBinAddr: 0x100020B98, symSize: 0x24 }
  - { offsetInCU: 0x3517E, offset: 0x3517E, size: 0x8, addend: 0x0, symName: __ZN9rapidjson8internal5StackINS_12CrtAllocatorEE5ClearEv, symObjAddr: 0x1F8C8, symBinAddr: 0x100020BBC, symSize: 0x1C }
  - { offsetInCU: 0x351A4, offset: 0x351A4, size: 0x8, addend: 0x0, symName: __ZN9rapidjson15GenericDocumentINS_4UTF8IcEENS_19MemoryPoolAllocatorINS_12CrtAllocatorEEES4_E16ClearStackOnExitD2Ev, symObjAddr: 0x1F8E4, symBinAddr: 0x100020BD8, symSize: 0x38 }
  - { offsetInCU: 0x351CE, offset: 0x351CE, size: 0x8, addend: 0x0, symName: __ZN9rapidjson15GenericDocumentINS_4UTF8IcEENS_19MemoryPoolAllocatorINS_12CrtAllocatorEEES4_E10ClearStackEv, symObjAddr: 0x1F91C, symBinAddr: 0x100020C10, symSize: 0x38 }
  - { offsetInCU: 0x351F4, offset: 0x351F4, size: 0x8, addend: 0x0, symName: __ZN9rapidjson8internal5StackINS_12CrtAllocatorEE11ShrinkToFitEv, symObjAddr: 0x1F954, symBinAddr: 0x100020C48, symSize: 0x68 }
  - { offsetInCU: 0x3521A, offset: 0x3521A, size: 0x8, addend: 0x0, symName: __ZN9rapidjson13GenericReaderINS_4UTF8IcEES2_NS_12CrtAllocatorEED2Ev, symObjAddr: 0x1F9BC, symBinAddr: 0x100020CB0, symSize: 0x2C }
  - { offsetInCU: 0x35247, offset: 0x35247, size: 0x8, addend: 0x0, symName: __ZNK9rapidjson11ParseResult4CodeEv, symObjAddr: 0x1F9E8, symBinAddr: 0x100020CDC, symSize: 0x18 }
  - { offsetInCU: 0x3526D, offset: 0x3526D, size: 0x8, addend: 0x0, symName: __ZN5utils10TypeErasedC2IRNS_6dict_tEvEEOT_, symObjAddr: 0x1FA00, symBinAddr: 0x100020CF4, symSize: 0x64 }
  - { offsetInCU: 0x352AF, offset: 0x352AF, size: 0x8, addend: 0x0, symName: __ZN5utils10TypeErased7emplaceINS_6dict_tEJRS2_EEENSt3__19enable_ifIXaasr3stdE18is_constructible_vIu7__decayIT_EDpT0_Esr3stdE23is_copy_constructible_vIS7_EERS7_E4typeEDpOS8_, symObjAddr: 0x1FA64, symBinAddr: 0x100020D58, symSize: 0x6C }
  - { offsetInCU: 0x35313, offset: 0x35313, size: 0x8, addend: 0x0, symName: __ZN5utils10TypeErased5ModelINS_6dict_tEEC1IRS2_EEOT_, symObjAddr: 0x1FB3C, symBinAddr: 0x100020E30, symSize: 0x34 }
  - { offsetInCU: 0x35354, offset: 0x35354, size: 0x8, addend: 0x0, symName: __ZN5utils10TypeErased5ModelINS_6dict_tEEC2IRS2_EEOT_, symObjAddr: 0x1FB70, symBinAddr: 0x100020E64, symSize: 0x80 }
  - { offsetInCU: 0x35395, offset: 0x35395, size: 0x8, addend: 0x0, symName: __ZN5utils6dict_t7get_ptrIiEEPT_RKNSt3__112basic_stringIcNS4_11char_traitsIcEENS4_9allocatorIcEEEE, symObjAddr: 0x1FBF0, symBinAddr: 0x100020EE4, symSize: 0xE4 }
  - { offsetInCU: 0x353EE, offset: 0x353EE, size: 0x8, addend: 0x0, symName: __ZNSt3__13mapINS_12basic_stringIcNS_11char_traitsIcEENS_9allocatorIcEEEEN5utils10TypeErasedENS_4lessIS6_EENS4_INS_4pairIKS6_S8_EEEEE4findB8ue170006ERSC_, symObjAddr: 0x1FD04, symBinAddr: 0x100020FF8, symSize: 0x40 }
  - { offsetInCU: 0x35423, offset: 0x35423, size: 0x8, addend: 0x0, symName: __ZNSt3__13mapINS_12basic_stringIcNS_11char_traitsIcEENS_9allocatorIcEEEEN5utils10TypeErasedENS_4lessIS6_EENS4_INS_4pairIKS6_S8_EEEEE3endB8ue170006Ev, symObjAddr: 0x1FD44, symBinAddr: 0x100021038, symSize: 0x38 }
  - { offsetInCU: 0x3545A, offset: 0x3545A, size: 0x8, addend: 0x0, symName: __ZN5utils16no_key_exceptionC1Ev, symObjAddr: 0x1FD7C, symBinAddr: 0x100021070, symSize: 0x2C }
  - { offsetInCU: 0x35486, offset: 0x35486, size: 0x8, addend: 0x0, symName: __ZN5utils16no_key_exceptionD1Ev, symObjAddr: 0x1FDA8, symBinAddr: 0x10002109C, symSize: 0x2C }
  - { offsetInCU: 0x354C3, offset: 0x354C3, size: 0x8, addend: 0x0, symName: __ZN5utils22invalid_type_exceptionC1Ev, symObjAddr: 0x1FDD4, symBinAddr: 0x1000210C8, symSize: 0x2C }
  - { offsetInCU: 0x354EF, offset: 0x354EF, size: 0x8, addend: 0x0, symName: __ZN5utils22invalid_type_exceptionD1Ev, symObjAddr: 0x1FE00, symBinAddr: 0x1000210F4, symSize: 0x2C }
  - { offsetInCU: 0x3551B, offset: 0x3551B, size: 0x8, addend: 0x0, symName: __ZNKSt3__114__map_iteratorINS_15__tree_iteratorINS_12__value_typeINS_12basic_stringIcNS_11char_traitsIcEENS_9allocatorIcEEEEN5utils10TypeErasedEEEPNS_11__tree_nodeISB_PvEElEEEptB8ue170006Ev, symObjAddr: 0x1FE2C, symBinAddr: 0x100021120, symSize: 0x2C }
  - { offsetInCU: 0x35541, offset: 0x35541, size: 0x8, addend: 0x0, symName: __ZN5utils10TypeErased12getObjectPtrIiEEPT_v, symObjAddr: 0x1FE58, symBinAddr: 0x10002114C, symSize: 0xEC }
  - { offsetInCU: 0x3558C, offset: 0x3558C, size: 0x8, addend: 0x0, symName: __ZNSt3__114pointer_traitsIPNS_4pairIKNS_12basic_stringIcNS_11char_traitsIcEENS_9allocatorIcEEEEN5utils10TypeErasedEEEE10pointer_toB8ue170006ERSB_, symObjAddr: 0x1FF44, symBinAddr: 0x100021238, symSize: 0x14 }
  - { offsetInCU: 0x355AF, offset: 0x355AF, size: 0x8, addend: 0x0, symName: __ZNSt3__16__treeINS_12__value_typeINS_12basic_stringIcNS_11char_traitsIcEENS_9allocatorIcEEEEN5utils10TypeErasedEEENS_19__map_value_compareIS7_SA_NS_4lessIS7_EELb1EEENS5_ISA_EEE4findIS7_EENS_15__tree_iteratorISA_PNS_11__tree_nodeISA_PvEElEERKT_, symObjAddr: 0x1FF88, symBinAddr: 0x10002127C, symSize: 0xF8 }
  - { offsetInCU: 0x355FE, offset: 0x355FE, size: 0x8, addend: 0x0, symName: __ZNSt3__114__map_iteratorINS_15__tree_iteratorINS_12__value_typeINS_12basic_stringIcNS_11char_traitsIcEENS_9allocatorIcEEEEN5utils10TypeErasedEEEPNS_11__tree_nodeISB_PvEElEEEC1B8ue170006ESG_, symObjAddr: 0x20080, symBinAddr: 0x100021374, symSize: 0x34 }
  - { offsetInCU: 0x35637, offset: 0x35637, size: 0x8, addend: 0x0, symName: __ZNSt3__16__treeINS_12__value_typeINS_12basic_stringIcNS_11char_traitsIcEENS_9allocatorIcEEEEN5utils10TypeErasedEEENS_19__map_value_compareIS7_SA_NS_4lessIS7_EELb1EEENS5_ISA_EEE13__lower_boundIS7_EENS_15__tree_iteratorISA_PNS_11__tree_nodeISA_PvEElEERKT_SM_PNS_15__tree_end_nodeIPNS_16__tree_node_baseISK_EEEE, symObjAddr: 0x200B4, symBinAddr: 0x1000213A8, symSize: 0xA4 }
  - { offsetInCU: 0x35695, offset: 0x35695, size: 0x8, addend: 0x0, symName: __ZNSt3__16__treeINS_12__value_typeINS_12basic_stringIcNS_11char_traitsIcEENS_9allocatorIcEEEEN5utils10TypeErasedEEENS_19__map_value_compareIS7_SA_NS_4lessIS7_EELb1EEENS5_ISA_EEE3endB8ue170006Ev, symObjAddr: 0x2018C, symBinAddr: 0x100021480, symSize: 0x34 }
  - { offsetInCU: 0x356BB, offset: 0x356BB, size: 0x8, addend: 0x0, symName: __ZNKSt3__115__tree_iteratorINS_12__value_typeINS_12basic_stringIcNS_11char_traitsIcEENS_9allocatorIcEEEEN5utils10TypeErasedEEEPNS_11__tree_nodeISA_PvEElEdeB8ue170006Ev, symObjAddr: 0x201C0, symBinAddr: 0x1000214B4, symSize: 0x28 }
  - { offsetInCU: 0x356E1, offset: 0x356E1, size: 0x8, addend: 0x0, symName: __ZNSt3__115__tree_iteratorINS_12__value_typeINS_12basic_stringIcNS_11char_traitsIcEENS_9allocatorIcEEEEN5utils10TypeErasedEEEPNS_11__tree_nodeISA_PvEElEC1B8ue170006EPNS_15__tree_end_nodeIPNS_16__tree_node_baseISC_EEEE, symObjAddr: 0x201E8, symBinAddr: 0x1000214DC, symSize: 0x34 }
  - { offsetInCU: 0x3571A, offset: 0x3571A, size: 0x8, addend: 0x0, symName: __ZNSt3__115__tree_iteratorINS_12__value_typeINS_12basic_stringIcNS_11char_traitsIcEENS_9allocatorIcEEEEN5utils10TypeErasedEEEPNS_11__tree_nodeISA_PvEElEC2B8ue170006EPNS_15__tree_end_nodeIPNS_16__tree_node_baseISC_EEEE, symObjAddr: 0x2021C, symBinAddr: 0x100021510, symSize: 0x20 }
  - { offsetInCU: 0x35753, offset: 0x35753, size: 0x8, addend: 0x0, symName: __ZNSt3__114__map_iteratorINS_15__tree_iteratorINS_12__value_typeINS_12basic_stringIcNS_11char_traitsIcEENS_9allocatorIcEEEEN5utils10TypeErasedEEEPNS_11__tree_nodeISB_PvEElEEEC2B8ue170006ESG_, symObjAddr: 0x2023C, symBinAddr: 0x100021530, symSize: 0x20 }
  - { offsetInCU: 0x3578C, offset: 0x3578C, size: 0x8, addend: 0x0, symName: __ZN5utils16no_key_exceptionC2Ev, symObjAddr: 0x2025C, symBinAddr: 0x100021550, symSize: 0x44 }
  - { offsetInCU: 0x357B8, offset: 0x357B8, size: 0x8, addend: 0x0, symName: __ZN5utils16no_key_exceptionD0Ev, symObjAddr: 0x202A0, symBinAddr: 0x100021594, symSize: 0x30 }
  - { offsetInCU: 0x357E4, offset: 0x357E4, size: 0x8, addend: 0x0, symName: __ZNK5utils16no_key_exception4whatEv, symObjAddr: 0x202D0, symBinAddr: 0x1000215C4, symSize: 0x18 }
  - { offsetInCU: 0x3580A, offset: 0x3580A, size: 0x8, addend: 0x0, symName: __ZN5utils16no_key_exceptionD2Ev, symObjAddr: 0x202E8, symBinAddr: 0x1000215DC, symSize: 0x2C }
  - { offsetInCU: 0x35836, offset: 0x35836, size: 0x8, addend: 0x0, symName: __ZN5utils22invalid_type_exceptionC2Ev, symObjAddr: 0x20314, symBinAddr: 0x100021608, symSize: 0x44 }
  - { offsetInCU: 0x35862, offset: 0x35862, size: 0x8, addend: 0x0, symName: __ZN5utils22invalid_type_exceptionD0Ev, symObjAddr: 0x20358, symBinAddr: 0x10002164C, symSize: 0x30 }
  - { offsetInCU: 0x3588E, offset: 0x3588E, size: 0x8, addend: 0x0, symName: __ZNK5utils22invalid_type_exception4whatEv, symObjAddr: 0x20388, symBinAddr: 0x10002167C, symSize: 0x18 }
  - { offsetInCU: 0x358B4, offset: 0x358B4, size: 0x8, addend: 0x0, symName: __ZN5utils22invalid_type_exceptionD2Ev, symObjAddr: 0x203A0, symBinAddr: 0x100021694, symSize: 0x2C }
  - { offsetInCU: 0x358E0, offset: 0x358E0, size: 0x8, addend: 0x0, symName: __ZN5utils10TypeErased12getObjectPtrIdEEPT_v, symObjAddr: 0x203CC, symBinAddr: 0x1000216C0, symSize: 0xEC }
  - { offsetInCU: 0x35931, offset: 0x35931, size: 0x8, addend: 0x0, symName: __ZN5utils6dict_t7get_ptrIS0_EEPT_RKNSt3__112basic_stringIcNS4_11char_traitsIcEENS4_9allocatorIcEEEE, symObjAddr: 0x204B8, symBinAddr: 0x1000217AC, symSize: 0xE4 }
  - { offsetInCU: 0x3598A, offset: 0x3598A, size: 0x8, addend: 0x0, symName: __ZN5utils10TypeErased12getObjectPtrINS_6dict_tEEEPT_v, symObjAddr: 0x2059C, symBinAddr: 0x100021890, symSize: 0xEC }
  - { offsetInCU: 0x359E0, offset: 0x359E0, size: 0x8, addend: 0x0, symName: '__ZZ14test_put_n_getvENK3$_0clEv', symObjAddr: 0x20688, symBinAddr: 0x10002197C, symSize: 0x74 }
  - { offsetInCU: 0x35A0A, offset: 0x35A0A, size: 0x8, addend: 0x0, symName: __ZN5utils6dict_t3getINSt3__112basic_stringIcNS2_11char_traitsIcEENS2_9allocatorIcEEEEEERT_RKS8_, symObjAddr: 0x206FC, symBinAddr: 0x1000219F0, symSize: 0xE4 }
  - { offsetInCU: 0x35A5D, offset: 0x35A5D, size: 0x8, addend: 0x0, symName: __ZN5utils6dict_t7get_ptrINSt3__112basic_stringIcNS2_11char_traitsIcEENS2_9allocatorIcEEEEEEPT_RKS8_, symObjAddr: 0x207E0, symBinAddr: 0x100021AD4, symSize: 0xE4 }
  - { offsetInCU: 0x35AB6, offset: 0x35AB6, size: 0x8, addend: 0x0, symName: __ZN5utils10TypeErased12getObjectPtrINSt3__112basic_stringIcNS2_11char_traitsIcEENS2_9allocatorIcEEEEEEPT_v, symObjAddr: 0x208C4, symBinAddr: 0x100021BB8, symSize: 0xEC }
  - { offsetInCU: 0x35B0C, offset: 0x35B0C, size: 0x8, addend: 0x0, symName: '__ZZ14test_put_n_getvENK3$_1clEv', symObjAddr: 0x209B0, symBinAddr: 0x100021CA4, symSize: 0x74 }
  - { offsetInCU: 0x35B36, offset: 0x35B36, size: 0x8, addend: 0x0, symName: __ZNSt3__13mapINS_12basic_stringIcNS_11char_traitsIcEENS_9allocatorIcEEEEdNS_4lessIS6_EENS4_INS_4pairIKS6_dEEEEED2B8ue170006Ev, symObjAddr: 0x20A24, symBinAddr: 0x100021D18, symSize: 0x2C }
  - { offsetInCU: 0x35B60, offset: 0x35B60, size: 0x8, addend: 0x0, symName: __ZNSt3__13mapINS_12basic_stringIcNS_11char_traitsIcEENS_9allocatorIcEEEEdNS_4lessIS6_EENS4_INS_4pairIKS6_dEEEEEC2B8ue170006Ev, symObjAddr: 0x20A50, symBinAddr: 0x100021D44, symSize: 0x40 }
  - { offsetInCU: 0x35B8A, offset: 0x35B8A, size: 0x8, addend: 0x0, symName: __ZNSt3__119__map_value_compareINS_12basic_stringIcNS_11char_traitsIcEENS_9allocatorIcEEEENS_12__value_typeIS6_dEENS_4lessIS6_EELb1EEC1B8ue170006ESA_, symObjAddr: 0x20A90, symBinAddr: 0x100021D84, symSize: 0x2C }
  - { offsetInCU: 0x35BC3, offset: 0x35BC3, size: 0x8, addend: 0x0, symName: __ZNSt3__16__treeINS_12__value_typeINS_12basic_stringIcNS_11char_traitsIcEENS_9allocatorIcEEEEdEENS_19__map_value_compareIS7_S8_NS_4lessIS7_EELb1EEENS5_IS8_EEEC1ERKSC_, symObjAddr: 0x20ABC, symBinAddr: 0x100021DB0, symSize: 0x34 }
  - { offsetInCU: 0x35BFE, offset: 0x35BFE, size: 0x8, addend: 0x0, symName: __ZNSt3__119__map_value_compareINS_12basic_stringIcNS_11char_traitsIcEENS_9allocatorIcEEEENS_12__value_typeIS6_dEENS_4lessIS6_EELb1EEC2B8ue170006ESA_, symObjAddr: 0x20AF0, symBinAddr: 0x100021DE4, symSize: 0x14 }
  - { offsetInCU: 0x35C37, offset: 0x35C37, size: 0x8, addend: 0x0, symName: __ZNSt3__16__treeINS_12__value_typeINS_12basic_stringIcNS_11char_traitsIcEENS_9allocatorIcEEEEdEENS_19__map_value_compareIS7_S8_NS_4lessIS7_EELb1EEENS5_IS8_EEEC2ERKSC_, symObjAddr: 0x20B04, symBinAddr: 0x100021DF8, symSize: 0x7C }
  - { offsetInCU: 0x35C72, offset: 0x35C72, size: 0x8, addend: 0x0, symName: __ZNSt3__117__compressed_pairINS_15__tree_end_nodeIPNS_16__tree_node_baseIPvEEEENS_9allocatorINS_11__tree_nodeINS_12__value_typeINS_12basic_stringIcNS_11char_traitsIcEENS7_IcEEEEdEES3_EEEEEC1B8ue170006ILb1EvEEv, symObjAddr: 0x20B80, symBinAddr: 0x100021E74, symSize: 0x2C }
  - { offsetInCU: 0x35CA7, offset: 0x35CA7, size: 0x8, addend: 0x0, symName: __ZNSt3__117__compressed_pairINS_15__tree_end_nodeIPNS_16__tree_node_baseIPvEEEENS_9allocatorINS_11__tree_nodeINS_12__value_typeINS_12basic_stringIcNS_11char_traitsIcEENS7_IcEEEEdEES3_EEEEEC2B8ue170006ILb1EvEEv, symObjAddr: 0x20BAC, symBinAddr: 0x100021EA0, symSize: 0x34 }
  - { offsetInCU: 0x35CDC, offset: 0x35CDC, size: 0x8, addend: 0x0, symName: __ZNSt3__122__compressed_pair_elemINS_9allocatorINS_11__tree_nodeINS_12__value_typeINS_12basic_stringIcNS_11char_traitsIcEENS1_IcEEEEdEEPvEEEELi1ELb1EEC2B8ue170006ENS_16__value_init_tagE, symObjAddr: 0x20BE0, symBinAddr: 0x100021ED4, symSize: 0x2C }
  - { offsetInCU: 0x35D11, offset: 0x35D11, size: 0x8, addend: 0x0, symName: __ZNSt3__19allocatorINS_11__tree_nodeINS_12__value_typeINS_12basic_stringIcNS_11char_traitsIcEENS0_IcEEEEdEEPvEEEC2B8ue170006Ev, symObjAddr: 0x20C0C, symBinAddr: 0x100021F00, symSize: 0x2C }
  - { offsetInCU: 0x35D3B, offset: 0x35D3B, size: 0x8, addend: 0x0, symName: __ZNSt3__116__non_trivial_ifILb1ENS_9allocatorINS_11__tree_nodeINS_12__value_typeINS_12basic_stringIcNS_11char_traitsIcEENS1_IcEEEEdEEPvEEEEEC2B8ue170006Ev, symObjAddr: 0x20C38, symBinAddr: 0x100021F2C, symSize: 0x14 }
  - { offsetInCU: 0x35D65, offset: 0x35D65, size: 0x8, addend: 0x0, symName: __ZNSt3__13mapINS_12basic_stringIcNS_11char_traitsIcEENS_9allocatorIcEEEEdNS_4lessIS6_EENS4_INS_4pairIKS6_dEEEEEC2B8ue170006ESt16initializer_listISB_ERKS8_, symObjAddr: 0x20C4C, symBinAddr: 0x100021F40, symSize: 0xA4 }
  - { offsetInCU: 0x35DAD, offset: 0x35DAD, size: 0x8, addend: 0x0, symName: __ZNSt3__13mapINS_12basic_stringIcNS_11char_traitsIcEENS_9allocatorIcEEEEdNS_4lessIS6_EENS4_INS_4pairIKS6_dEEEEE6insertB8ue170006IPKSB_EEvT_SH_, symObjAddr: 0x20CF0, symBinAddr: 0x100021FE4, symSize: 0x8C }
  - { offsetInCU: 0x35E17, offset: 0x35E17, size: 0x8, addend: 0x0, symName: __ZNKSt16initializer_listINSt3__14pairIKNS0_12basic_stringIcNS0_11char_traitsIcEENS0_9allocatorIcEEEEdEEE5beginB8ue170006Ev, symObjAddr: 0x20D7C, symBinAddr: 0x100022070, symSize: 0x18 }
  - { offsetInCU: 0x35E3D, offset: 0x35E3D, size: 0x8, addend: 0x0, symName: __ZNKSt16initializer_listINSt3__14pairIKNS0_12basic_stringIcNS0_11char_traitsIcEENS0_9allocatorIcEEEEdEEE3endB8ue170006Ev, symObjAddr: 0x20D94, symBinAddr: 0x100022088, symSize: 0x20 }
  - { offsetInCU: 0x35E63, offset: 0x35E63, size: 0x8, addend: 0x0, symName: __ZNSt3__13mapINS_12basic_stringIcNS_11char_traitsIcEENS_9allocatorIcEEEENS_6vectorINS0_IS6_dNS_4lessIS6_EENS4_INS_4pairIKS6_dEEEEEENS4_ISE_EEEES9_NS4_INSA_ISB_SG_EEEEEC2B8ue170006ESt16initializer_listISH_ERKS9_, symObjAddr: 0x20DB4, symBinAddr: 0x1000220A8, symSize: 0xA4 }
  - { offsetInCU: 0x35EAB, offset: 0x35EAB, size: 0x8, addend: 0x0, symName: __ZNSt3__119__map_value_compareINS_12basic_stringIcNS_11char_traitsIcEENS_9allocatorIcEEEENS_12__value_typeIS6_NS_6vectorINS_3mapIS6_dNS_4lessIS6_EENS4_INS_4pairIKS6_dEEEEEENS4_ISG_EEEEEESB_Lb1EEC1B8ue170006ESB_, symObjAddr: 0x20E58, symBinAddr: 0x10002214C, symSize: 0x2C }
  - { offsetInCU: 0x35EE4, offset: 0x35EE4, size: 0x8, addend: 0x0, symName: __ZNSt3__16__treeINS_12__value_typeINS_12basic_stringIcNS_11char_traitsIcEENS_9allocatorIcEEEENS_6vectorINS_3mapIS7_dNS_4lessIS7_EENS5_INS_4pairIKS7_dEEEEEENS5_ISG_EEEEEENS_19__map_value_compareIS7_SJ_SB_Lb1EEENS5_ISJ_EEEC1ERKSL_, symObjAddr: 0x20E84, symBinAddr: 0x100022178, symSize: 0x34 }
  - { offsetInCU: 0x35F1F, offset: 0x35F1F, size: 0x8, addend: 0x0, symName: __ZNSt3__13mapINS_12basic_stringIcNS_11char_traitsIcEENS_9allocatorIcEEEENS_6vectorINS0_IS6_dNS_4lessIS6_EENS4_INS_4pairIKS6_dEEEEEENS4_ISE_EEEES9_NS4_INSA_ISB_SG_EEEEE6insertB8ue170006IPKSH_EEvT_SN_, symObjAddr: 0x20EB8, symBinAddr: 0x1000221AC, symSize: 0x8C }
  - { offsetInCU: 0x35F89, offset: 0x35F89, size: 0x8, addend: 0x0, symName: __ZNKSt16initializer_listINSt3__14pairIKNS0_12basic_stringIcNS0_11char_traitsIcEENS0_9allocatorIcEEEENS0_6vectorINS0_3mapIS7_dNS0_4lessIS7_EENS5_INS1_IS8_dEEEEEENS5_ISF_EEEEEEE5beginB8ue170006Ev, symObjAddr: 0x20F44, symBinAddr: 0x100022238, symSize: 0x18 }
  - { offsetInCU: 0x35FAF, offset: 0x35FAF, size: 0x8, addend: 0x0, symName: __ZNKSt16initializer_listINSt3__14pairIKNS0_12basic_stringIcNS0_11char_traitsIcEENS0_9allocatorIcEEEENS0_6vectorINS0_3mapIS7_dNS0_4lessIS7_EENS5_INS1_IS8_dEEEEEENS5_ISF_EEEEEEE3endB8ue170006Ev, symObjAddr: 0x20F5C, symBinAddr: 0x100022250, symSize: 0x28 }
  - { offsetInCU: 0x35FD5, offset: 0x35FD5, size: 0x8, addend: 0x0, symName: __ZNSt3__16__treeINS_12__value_typeINS_12basic_stringIcNS_11char_traitsIcEENS_9allocatorIcEEEENS_6vectorINS_3mapIS7_dNS_4lessIS7_EENS5_INS_4pairIKS7_dEEEEEENS5_ISG_EEEEEENS_19__map_value_compareIS7_SJ_SB_Lb1EEENS5_ISJ_EEED1Ev, symObjAddr: 0x20F84, symBinAddr: 0x100022278, symSize: 0x2C }
  - { offsetInCU: 0x36001, offset: 0x36001, size: 0x8, addend: 0x0, symName: __ZNSt3__119__map_value_compareINS_12basic_stringIcNS_11char_traitsIcEENS_9allocatorIcEEEENS_12__value_typeIS6_NS_6vectorINS_3mapIS6_dNS_4lessIS6_EENS4_INS_4pairIKS6_dEEEEEENS4_ISG_EEEEEESB_Lb1EEC2B8ue170006ESB_, symObjAddr: 0x20FB0, symBinAddr: 0x1000222A4, symSize: 0x14 }
  - { offsetInCU: 0x3603A, offset: 0x3603A, size: 0x8, addend: 0x0, symName: __ZNSt3__16__treeINS_12__value_typeINS_12basic_stringIcNS_11char_traitsIcEENS_9allocatorIcEEEENS_6vectorINS_3mapIS7_dNS_4lessIS7_EENS5_INS_4pairIKS7_dEEEEEENS5_ISG_EEEEEENS_19__map_value_compareIS7_SJ_SB_Lb1EEENS5_ISJ_EEEC2ERKSL_, symObjAddr: 0x20FC4, symBinAddr: 0x1000222B8, symSize: 0x7C }
  - { offsetInCU: 0x36075, offset: 0x36075, size: 0x8, addend: 0x0, symName: __ZNSt3__117__compressed_pairINS_15__tree_end_nodeIPNS_16__tree_node_baseIPvEEEENS_9allocatorINS_11__tree_nodeINS_12__value_typeINS_12basic_stringIcNS_11char_traitsIcEENS7_IcEEEENS_6vectorINS_3mapISE_dNS_4lessISE_EENS7_INS_4pairIKSE_dEEEEEENS7_ISN_EEEEEES3_EEEEEC1B8ue170006ILb1EvEEv, symObjAddr: 0x21040, symBinAddr: 0x100022334, symSize: 0x2C }
  - { offsetInCU: 0x360AA, offset: 0x360AA, size: 0x8, addend: 0x0, symName: __ZNSt3__117__compressed_pairImNS_19__map_value_compareINS_12basic_stringIcNS_11char_traitsIcEENS_9allocatorIcEEEENS_12__value_typeIS7_NS_6vectorINS_3mapIS7_dNS_4lessIS7_EENS5_INS_4pairIKS7_dEEEEEENS5_ISH_EEEEEESC_Lb1EEEEC1B8ue170006IiRKSL_EEOT_OT0_, symObjAddr: 0x2106C, symBinAddr: 0x100022360, symSize: 0x3C }
  - { offsetInCU: 0x36102, offset: 0x36102, size: 0x8, addend: 0x0, symName: __ZNSt3__16__treeINS_12__value_typeINS_12basic_stringIcNS_11char_traitsIcEENS_9allocatorIcEEEENS_6vectorINS_3mapIS7_dNS_4lessIS7_EENS5_INS_4pairIKS7_dEEEEEENS5_ISG_EEEEEENS_19__map_value_compareIS7_SJ_SB_Lb1EEENS5_ISJ_EEE10__end_nodeB8ue170006Ev, symObjAddr: 0x210A8, symBinAddr: 0x10002239C, symSize: 0x2C }
  - { offsetInCU: 0x36128, offset: 0x36128, size: 0x8, addend: 0x0, symName: __ZNSt3__16__treeINS_12__value_typeINS_12basic_stringIcNS_11char_traitsIcEENS_9allocatorIcEEEENS_6vectorINS_3mapIS7_dNS_4lessIS7_EENS5_INS_4pairIKS7_dEEEEEENS5_ISG_EEEEEENS_19__map_value_compareIS7_SJ_SB_Lb1EEENS5_ISJ_EEE12__begin_nodeB8ue170006Ev, symObjAddr: 0x210D4, symBinAddr: 0x1000223C8, symSize: 0x14 }
  - { offsetInCU: 0x3614E, offset: 0x3614E, size: 0x8, addend: 0x0, symName: __ZNSt3__117__compressed_pairINS_15__tree_end_nodeIPNS_16__tree_node_baseIPvEEEENS_9allocatorINS_11__tree_nodeINS_12__value_typeINS_12basic_stringIcNS_11char_traitsIcEENS7_IcEEEENS_6vectorINS_3mapISE_dNS_4lessISE_EENS7_INS_4pairIKSE_dEEEEEENS7_ISN_EEEEEES3_EEEEEC2B8ue170006ILb1EvEEv, symObjAddr: 0x210E8, symBinAddr: 0x1000223DC, symSize: 0x34 }
  - { offsetInCU: 0x36183, offset: 0x36183, size: 0x8, addend: 0x0, symName: __ZNSt3__122__compressed_pair_elemINS_9allocatorINS_11__tree_nodeINS_12__value_typeINS_12basic_stringIcNS_11char_traitsIcEENS1_IcEEEENS_6vectorINS_3mapIS8_dNS_4lessIS8_EENS1_INS_4pairIKS8_dEEEEEENS1_ISH_EEEEEEPvEEEELi1ELb1EEC2B8ue170006ENS_16__value_init_tagE, symObjAddr: 0x2111C, symBinAddr: 0x100022410, symSize: 0x2C }
  - { offsetInCU: 0x361B8, offset: 0x361B8, size: 0x8, addend: 0x0, symName: __ZNSt3__19allocatorINS_11__tree_nodeINS_12__value_typeINS_12basic_stringIcNS_11char_traitsIcEENS0_IcEEEENS_6vectorINS_3mapIS7_dNS_4lessIS7_EENS0_INS_4pairIKS7_dEEEEEENS0_ISG_EEEEEEPvEEEC2B8ue170006Ev, symObjAddr: 0x21148, symBinAddr: 0x10002243C, symSize: 0x2C }
  - { offsetInCU: 0x361E2, offset: 0x361E2, size: 0x8, addend: 0x0, symName: __ZNSt3__116__non_trivial_ifILb1ENS_9allocatorINS_11__tree_nodeINS_12__value_typeINS_12basic_stringIcNS_11char_traitsIcEENS1_IcEEEENS_6vectorINS_3mapIS8_dNS_4lessIS8_EENS1_INS_4pairIKS8_dEEEEEENS1_ISH_EEEEEEPvEEEEEC2B8ue170006Ev, symObjAddr: 0x21174, symBinAddr: 0x100022468, symSize: 0x14 }
  - { offsetInCU: 0x3620C, offset: 0x3620C, size: 0x8, addend: 0x0, symName: __ZNSt3__117__compressed_pairImNS_19__map_value_compareINS_12basic_stringIcNS_11char_traitsIcEENS_9allocatorIcEEEENS_12__value_typeIS7_NS_6vectorINS_3mapIS7_dNS_4lessIS7_EENS5_INS_4pairIKS7_dEEEEEENS5_ISH_EEEEEESC_Lb1EEEEC2B8ue170006IiRKSL_EEOT_OT0_, symObjAddr: 0x21188, symBinAddr: 0x10002247C, symSize: 0x44 }
  - { offsetInCU: 0x36264, offset: 0x36264, size: 0x8, addend: 0x0, symName: __ZNSt3__122__compressed_pair_elemINS_19__map_value_compareINS_12basic_stringIcNS_11char_traitsIcEENS_9allocatorIcEEEENS_12__value_typeIS7_NS_6vectorINS_3mapIS7_dNS_4lessIS7_EENS5_INS_4pairIKS7_dEEEEEENS5_ISH_EEEEEESC_Lb1EEELi1ELb1EEC2B8ue170006IRKSL_vEEOT_, symObjAddr: 0x211CC, symBinAddr: 0x1000224C0, symSize: 0x18 }
  - { offsetInCU: 0x362A6, offset: 0x362A6, size: 0x8, addend: 0x0, symName: __ZNSt3__117__compressed_pairINS_15__tree_end_nodeIPNS_16__tree_node_baseIPvEEEENS_9allocatorINS_11__tree_nodeINS_12__value_typeINS_12basic_stringIcNS_11char_traitsIcEENS7_IcEEEENS_6vectorINS_3mapISE_dNS_4lessISE_EENS7_INS_4pairIKSE_dEEEEEENS7_ISN_EEEEEES3_EEEEE5firstB8ue170006Ev, symObjAddr: 0x211E4, symBinAddr: 0x1000224D8, symSize: 0x24 }
  - { offsetInCU: 0x362CC, offset: 0x362CC, size: 0x8, addend: 0x0, symName: __ZNKSt3__13mapINS_12basic_stringIcNS_11char_traitsIcEENS_9allocatorIcEEEENS_6vectorINS0_IS6_dNS_4lessIS6_EENS4_INS_4pairIKS6_dEEEEEENS4_ISE_EEEES9_NS4_INSA_ISB_SG_EEEEE4cendB8ue170006Ev, symObjAddr: 0x21208, symBinAddr: 0x1000224FC, symSize: 0x2C }
  - { offsetInCU: 0x362F2, offset: 0x362F2, size: 0x8, addend: 0x0, symName: __ZNSt3__13mapINS_12basic_stringIcNS_11char_traitsIcEENS_9allocatorIcEEEENS_6vectorINS0_IS6_dNS_4lessIS6_EENS4_INS_4pairIKS6_dEEEEEENS4_ISE_EEEES9_NS4_INSA_ISB_SG_EEEEE6insertB8ue170006ENS_20__map_const_iteratorINS_21__tree_const_iteratorINS_12__value_typeIS6_SG_EEPNS_11__tree_nodeISN_PvEElEEEERKSH_, symObjAddr: 0x21234, symBinAddr: 0x100022528, symSize: 0x50 }
  - { offsetInCU: 0x36336, offset: 0x36336, size: 0x8, addend: 0x0, symName: __ZNSt3__120__map_const_iteratorINS_21__tree_const_iteratorINS_12__value_typeINS_12basic_stringIcNS_11char_traitsIcEENS_9allocatorIcEEEENS_6vectorINS_3mapIS8_dNS_4lessIS8_EENS6_INS_4pairIKS8_dEEEEEENS6_ISH_EEEEEEPNS_11__tree_nodeISK_PvEElEEEC1B8ue170006ESP_, symObjAddr: 0x21284, symBinAddr: 0x100022578, symSize: 0x34 }
  - { offsetInCU: 0x3636F, offset: 0x3636F, size: 0x8, addend: 0x0, symName: __ZNKSt3__13mapINS_12basic_stringIcNS_11char_traitsIcEENS_9allocatorIcEEEENS_6vectorINS0_IS6_dNS_4lessIS6_EENS4_INS_4pairIKS6_dEEEEEENS4_ISE_EEEES9_NS4_INSA_ISB_SG_EEEEE3endB8ue170006Ev, symObjAddr: 0x212B8, symBinAddr: 0x1000225AC, symSize: 0x38 }
  - { offsetInCU: 0x36395, offset: 0x36395, size: 0x8, addend: 0x0, symName: __ZNKSt3__16__treeINS_12__value_typeINS_12basic_stringIcNS_11char_traitsIcEENS_9allocatorIcEEEENS_6vectorINS_3mapIS7_dNS_4lessIS7_EENS5_INS_4pairIKS7_dEEEEEENS5_ISG_EEEEEENS_19__map_value_compareIS7_SJ_SB_Lb1EEENS5_ISJ_EEE3endB8ue170006Ev, symObjAddr: 0x212F0, symBinAddr: 0x1000225E4, symSize: 0x34 }
  - { offsetInCU: 0x363BB, offset: 0x363BB, size: 0x8, addend: 0x0, symName: __ZNKSt3__16__treeINS_12__value_typeINS_12basic_stringIcNS_11char_traitsIcEENS_9allocatorIcEEEENS_6vectorINS_3mapIS7_dNS_4lessIS7_EENS5_INS_4pairIKS7_dEEEEEENS5_ISG_EEEEEENS_19__map_value_compareIS7_SJ_SB_Lb1EEENS5_ISJ_EEE10__end_nodeB8ue170006Ev, symObjAddr: 0x21324, symBinAddr: 0x100022618, symSize: 0x2C }
  - { offsetInCU: 0x363E1, offset: 0x363E1, size: 0x8, addend: 0x0, symName: __ZNSt3__121__tree_const_iteratorINS_12__value_typeINS_12basic_stringIcNS_11char_traitsIcEENS_9allocatorIcEEEENS_6vectorINS_3mapIS7_dNS_4lessIS7_EENS5_INS_4pairIKS7_dEEEEEENS5_ISG_EEEEEEPNS_11__tree_nodeISJ_PvEElEC1B8ue170006EPNS_15__tree_end_nodeIPNS_16__tree_node_baseISL_EEEE, symObjAddr: 0x21350, symBinAddr: 0x100022644, symSize: 0x34 }
  - { offsetInCU: 0x3641A, offset: 0x3641A, size: 0x8, addend: 0x0, symName: __ZNKSt3__117__compressed_pairINS_15__tree_end_nodeIPNS_16__tree_node_baseIPvEEEENS_9allocatorINS_11__tree_nodeINS_12__value_typeINS_12basic_stringIcNS_11char_traitsIcEENS7_IcEEEENS_6vectorINS_3mapISE_dNS_4lessISE_EENS7_INS_4pairIKSE_dEEEEEENS7_ISN_EEEEEES3_EEEEE5firstB8ue170006Ev, symObjAddr: 0x21384, symBinAddr: 0x100022678, symSize: 0x24 }
  - { offsetInCU: 0x36440, offset: 0x36440, size: 0x8, addend: 0x0, symName: __ZNSt3__121__tree_const_iteratorINS_12__value_typeINS_12basic_stringIcNS_11char_traitsIcEENS_9allocatorIcEEEENS_6vectorINS_3mapIS7_dNS_4lessIS7_EENS5_INS_4pairIKS7_dEEEEEENS5_ISG_EEEEEEPNS_11__tree_nodeISJ_PvEElEC2B8ue170006EPNS_15__tree_end_nodeIPNS_16__tree_node_baseISL_EEEE, symObjAddr: 0x213A8, symBinAddr: 0x10002269C, symSize: 0x20 }
  - { offsetInCU: 0x36479, offset: 0x36479, size: 0x8, addend: 0x0, symName: __ZNSt3__16__treeINS_12__value_typeINS_12basic_stringIcNS_11char_traitsIcEENS_9allocatorIcEEEENS_6vectorINS_3mapIS7_dNS_4lessIS7_EENS5_INS_4pairIKS7_dEEEEEENS5_ISG_EEEEEENS_19__map_value_compareIS7_SJ_SB_Lb1EEENS5_ISJ_EEE15__insert_uniqueB8ue170006ENS_21__tree_const_iteratorISJ_PNS_11__tree_nodeISJ_PvEElEERKNSC_ISD_SI_EE, symObjAddr: 0x213C8, symBinAddr: 0x1000226BC, symSize: 0x64 }
  - { offsetInCU: 0x364BD, offset: 0x364BD, size: 0x8, addend: 0x0, symName: __ZNSt3__114__map_iteratorINS_15__tree_iteratorINS_12__value_typeINS_12basic_stringIcNS_11char_traitsIcEENS_9allocatorIcEEEENS_6vectorINS_3mapIS8_dNS_4lessIS8_EENS6_INS_4pairIKS8_dEEEEEENS6_ISH_EEEEEEPNS_11__tree_nodeISK_PvEElEEEC1B8ue170006ESP_, symObjAddr: 0x2142C, symBinAddr: 0x100022720, symSize: 0x34 }
  - { offsetInCU: 0x364F6, offset: 0x364F6, size: 0x8, addend: 0x0, symName: __ZNSt3__16__treeINS_12__value_typeINS_12basic_stringIcNS_11char_traitsIcEENS_9allocatorIcEEEENS_6vectorINS_3mapIS7_dNS_4lessIS7_EENS5_INS_4pairIKS7_dEEEEEENS5_ISG_EEEEEENS_19__map_value_compareIS7_SJ_SB_Lb1EEENS5_ISJ_EEE30__emplace_hint_unique_key_argsIS7_JRKNSC_ISD_SI_EEEEENSC_INS_15__tree_iteratorISJ_PNS_11__tree_nodeISJ_PvEElEEbEENS_21__tree_const_iteratorISJ_SW_lEERKT_DpOT0_, symObjAddr: 0x21460, symBinAddr: 0x100022754, symSize: 0x104 }
  - { offsetInCU: 0x365C2, offset: 0x365C2, size: 0x8, addend: 0x0, symName: __ZNSt3__122__tree_key_value_typesINS_12__value_typeINS_12basic_stringIcNS_11char_traitsIcEENS_9allocatorIcEEEENS_6vectorINS_3mapIS7_dNS_4lessIS7_EENS5_INS_4pairIKS7_dEEEEEENS5_ISG_EEEEEEE9__get_keyB8ue170006IKNSC_ISD_SI_EEEENS_9enable_ifIXsr17__is_same_uncvrefIT_SM_EE5valueERSD_E4typeERSP_, symObjAddr: 0x21564, symBinAddr: 0x100022858, symSize: 0x14 }
  - { offsetInCU: 0x365EF, offset: 0x365EF, size: 0x8, addend: 0x0, symName: __ZNSt3__16__treeINS_12__value_typeINS_12basic_stringIcNS_11char_traitsIcEENS_9allocatorIcEEEENS_6vectorINS_3mapIS7_dNS_4lessIS7_EENS5_INS_4pairIKS7_dEEEEEENS5_ISG_EEEEEENS_19__map_value_compareIS7_SJ_SB_Lb1EEENS5_ISJ_EEE12__find_equalIS7_EERPNS_16__tree_node_baseIPvEENS_21__tree_const_iteratorISJ_PNS_11__tree_nodeISJ_SQ_EElEERPNS_15__tree_end_nodeISS_EEST_RKT_, symObjAddr: 0x21578, symBinAddr: 0x10002286C, symSize: 0x304 }
  - { offsetInCU: 0x36698, offset: 0x36698, size: 0x8, addend: 0x0, symName: __ZNSt3__16__treeINS_12__value_typeINS_12basic_stringIcNS_11char_traitsIcEENS_9allocatorIcEEEENS_6vectorINS_3mapIS7_dNS_4lessIS7_EENS5_INS_4pairIKS7_dEEEEEENS5_ISG_EEEEEENS_19__map_value_compareIS7_SJ_SB_Lb1EEENS5_ISJ_EEE16__construct_nodeIJRKNSC_ISD_SI_EEEEENS_10unique_ptrINS_11__tree_nodeISJ_PvEENS_22__tree_node_destructorINS5_ISV_EEEEEEDpOT_, symObjAddr: 0x2187C, symBinAddr: 0x100022B70, symSize: 0x110 }
  - { offsetInCU: 0x366F9, offset: 0x366F9, size: 0x8, addend: 0x0, symName: __ZNSt3__16__treeINS_12__value_typeINS_12basic_stringIcNS_11char_traitsIcEENS_9allocatorIcEEEENS_6vectorINS_3mapIS7_dNS_4lessIS7_EENS5_INS_4pairIKS7_dEEEEEENS5_ISG_EEEEEENS_19__map_value_compareIS7_SJ_SB_Lb1EEENS5_ISJ_EEE16__insert_node_atEPNS_15__tree_end_nodeIPNS_16__tree_node_baseIPvEEEERSS_SS_, symObjAddr: 0x2198C, symBinAddr: 0x100022C80, symSize: 0xCC }
  - { offsetInCU: 0x3674E, offset: 0x3674E, size: 0x8, addend: 0x0, symName: __ZNKSt3__110unique_ptrINS_11__tree_nodeINS_12__value_typeINS_12basic_stringIcNS_11char_traitsIcEENS_9allocatorIcEEEENS_6vectorINS_3mapIS8_dNS_4lessIS8_EENS6_INS_4pairIKS8_dEEEEEENS6_ISH_EEEEEEPvEENS_22__tree_node_destructorINS6_ISM_EEEEE3getB8ue170006Ev, symObjAddr: 0x21A58, symBinAddr: 0x100022D4C, symSize: 0x28 }
  - { offsetInCU: 0x36774, offset: 0x36774, size: 0x8, addend: 0x0, symName: __ZNSt3__110unique_ptrINS_11__tree_nodeINS_12__value_typeINS_12basic_stringIcNS_11char_traitsIcEENS_9allocatorIcEEEENS_6vectorINS_3mapIS8_dNS_4lessIS8_EENS6_INS_4pairIKS8_dEEEEEENS6_ISH_EEEEEEPvEENS_22__tree_node_destructorINS6_ISM_EEEEE7releaseB8ue170006Ev, symObjAddr: 0x21A80, symBinAddr: 0x100022D74, symSize: 0x44 }
  - { offsetInCU: 0x367A9, offset: 0x367A9, size: 0x8, addend: 0x0, symName: __ZNSt3__110unique_ptrINS_11__tree_nodeINS_12__value_typeINS_12basic_stringIcNS_11char_traitsIcEENS_9allocatorIcEEEENS_6vectorINS_3mapIS8_dNS_4lessIS8_EENS6_INS_4pairIKS8_dEEEEEENS6_ISH_EEEEEEPvEENS_22__tree_node_destructorINS6_ISM_EEEEED1B8ue170006Ev, symObjAddr: 0x21AC4, symBinAddr: 0x100022DB8, symSize: 0x2C }
  - { offsetInCU: 0x367D3, offset: 0x367D3, size: 0x8, addend: 0x0, symName: __ZNSt3__115__tree_iteratorINS_12__value_typeINS_12basic_stringIcNS_11char_traitsIcEENS_9allocatorIcEEEENS_6vectorINS_3mapIS7_dNS_4lessIS7_EENS5_INS_4pairIKS7_dEEEEEENS5_ISG_EEEEEEPNS_11__tree_nodeISJ_PvEElEC1B8ue170006ESN_, symObjAddr: 0x21AF0, symBinAddr: 0x100022DE4, symSize: 0x34 }
  - { offsetInCU: 0x36812, offset: 0x36812, size: 0x8, addend: 0x0, symName: __ZNSt3__14pairINS_15__tree_iteratorINS_12__value_typeINS_12basic_stringIcNS_11char_traitsIcEENS_9allocatorIcEEEENS_6vectorINS_3mapIS8_dNS_4lessIS8_EENS6_INS0_IKS8_dEEEEEENS6_ISG_EEEEEEPNS_11__tree_nodeISJ_PvEElEEbEC1B8ue170006ISO_RbLSL_0EEEOT_OT0_, symObjAddr: 0x21B24, symBinAddr: 0x100022E18, symSize: 0x3C }
  - { offsetInCU: 0x36870, offset: 0x36870, size: 0x8, addend: 0x0, symName: __ZNSt3__16__treeINS_12__value_typeINS_12basic_stringIcNS_11char_traitsIcEENS_9allocatorIcEEEENS_6vectorINS_3mapIS7_dNS_4lessIS7_EENS5_INS_4pairIKS7_dEEEEEENS5_ISG_EEEEEENS_19__map_value_compareIS7_SJ_SB_Lb1EEENS5_ISJ_EEE3endB8ue170006Ev, symObjAddr: 0x21B90, symBinAddr: 0x100022E84, symSize: 0x34 }
  - { offsetInCU: 0x36896, offset: 0x36896, size: 0x8, addend: 0x0, symName: __ZNSt3__121__tree_const_iteratorINS_12__value_typeINS_12basic_stringIcNS_11char_traitsIcEENS_9allocatorIcEEEENS_6vectorINS_3mapIS7_dNS_4lessIS7_EENS5_INS_4pairIKS7_dEEEEEENS5_ISG_EEEEEEPNS_11__tree_nodeISJ_PvEElEC1B8ue170006ENS_15__tree_iteratorISJ_SN_lEE, symObjAddr: 0x21BC4, symBinAddr: 0x100022EB8, symSize: 0x34 }
  - { offsetInCU: 0x368CF, offset: 0x368CF, size: 0x8, addend: 0x0, symName: __ZNSt3__16__treeINS_12__value_typeINS_12basic_stringIcNS_11char_traitsIcEENS_9allocatorIcEEEENS_6vectorINS_3mapIS7_dNS_4lessIS7_EENS5_INS_4pairIKS7_dEEEEEENS5_ISG_EEEEEENS_19__map_value_compareIS7_SJ_SB_Lb1EEENS5_ISJ_EEE10value_compB8ue170006Ev, symObjAddr: 0x21BF8, symBinAddr: 0x100022EEC, symSize: 0x28 }
  - { offsetInCU: 0x368F5, offset: 0x368F5, size: 0x8, addend: 0x0, symName: __ZNKSt3__119__map_value_compareINS_12basic_stringIcNS_11char_traitsIcEENS_9allocatorIcEEEENS_12__value_typeIS6_NS_6vectorINS_3mapIS6_dNS_4lessIS6_EENS4_INS_4pairIKS6_dEEEEEENS4_ISG_EEEEEESB_Lb1EEclB8ue170006ERSD_RKSJ_, symObjAddr: 0x21C20, symBinAddr: 0x100022F14, symSize: 0x50 }
  - { offsetInCU: 0x36939, offset: 0x36939, size: 0x8, addend: 0x0, symName: __ZNKSt3__121__tree_const_iteratorINS_12__value_typeINS_12basic_stringIcNS_11char_traitsIcEENS_9allocatorIcEEEENS_6vectorINS_3mapIS7_dNS_4lessIS7_EENS5_INS_4pairIKS7_dEEEEEENS5_ISG_EEEEEEPNS_11__tree_nodeISJ_PvEElEdeB8ue170006Ev, symObjAddr: 0x21C70, symBinAddr: 0x100022F64, symSize: 0x28 }
  - { offsetInCU: 0x3695F, offset: 0x3695F, size: 0x8, addend: 0x0, symName: __ZNSt3__16__treeINS_12__value_typeINS_12basic_stringIcNS_11char_traitsIcEENS_9allocatorIcEEEENS_6vectorINS_3mapIS7_dNS_4lessIS7_EENS5_INS_4pairIKS7_dEEEEEENS5_ISG_EEEEEENS_19__map_value_compareIS7_SJ_SB_Lb1EEENS5_ISJ_EEE5beginB8ue170006Ev, symObjAddr: 0x21C98, symBinAddr: 0x100022F8C, symSize: 0x34 }
  - { offsetInCU: 0x36985, offset: 0x36985, size: 0x8, addend: 0x0, symName: __ZNKSt3__119__map_value_compareINS_12basic_stringIcNS_11char_traitsIcEENS_9allocatorIcEEEENS_12__value_typeIS6_NS_6vectorINS_3mapIS6_dNS_4lessIS6_EENS4_INS_4pairIKS6_dEEEEEENS4_ISG_EEEEEESB_Lb1EEclB8ue170006ERKSJ_RSD_, symObjAddr: 0x21CCC, symBinAddr: 0x100022FC0, symSize: 0x48 }
  - { offsetInCU: 0x369C9, offset: 0x369C9, size: 0x8, addend: 0x0, symName: __ZNSt3__121__tree_const_iteratorINS_12__value_typeINS_12basic_stringIcNS_11char_traitsIcEENS_9allocatorIcEEEENS_6vectorINS_3mapIS7_dNS_4lessIS7_EENS5_INS_4pairIKS7_dEEEEEENS5_ISG_EEEEEEPNS_11__tree_nodeISJ_PvEElEmmB8ue170006Ev, symObjAddr: 0x21D14, symBinAddr: 0x100023008, symSize: 0x38 }
  - { offsetInCU: 0x369EF, offset: 0x369EF, size: 0x8, addend: 0x0, symName: __ZNSt3__16__treeINS_12__value_typeINS_12basic_stringIcNS_11char_traitsIcEENS_9allocatorIcEEEENS_6vectorINS_3mapIS7_dNS_4lessIS7_EENS5_INS_4pairIKS7_dEEEEEENS5_ISG_EEEEEENS_19__map_value_compareIS7_SJ_SB_Lb1EEENS5_ISJ_EEE12__find_equalIS7_EERPNS_16__tree_node_baseIPvEERPNS_15__tree_end_nodeISS_EERKT_, symObjAddr: 0x21D4C, symBinAddr: 0x100023040, symSize: 0x184 }
  - { offsetInCU: 0x36A5C, offset: 0x36A5C, size: 0x8, addend: 0x0, symName: __ZNKSt3__121__tree_const_iteratorINS_12__value_typeINS_12basic_stringIcNS_11char_traitsIcEENS_9allocatorIcEEEENS_6vectorINS_3mapIS7_dNS_4lessIS7_EENS5_INS_4pairIKS7_dEEEEEENS5_ISG_EEEEEEPNS_11__tree_nodeISJ_PvEElE8__get_npB8ue170006Ev, symObjAddr: 0x21F0C, symBinAddr: 0x100023200, symSize: 0x18 }
  - { offsetInCU: 0x36A82, offset: 0x36A82, size: 0x8, addend: 0x0, symName: __ZNSt3__115__tree_iteratorINS_12__value_typeINS_12basic_stringIcNS_11char_traitsIcEENS_9allocatorIcEEEENS_6vectorINS_3mapIS7_dNS_4lessIS7_EENS5_INS_4pairIKS7_dEEEEEENS5_ISG_EEEEEEPNS_11__tree_nodeISJ_PvEElEC1B8ue170006EPNS_15__tree_end_nodeIPNS_16__tree_node_baseISL_EEEE, symObjAddr: 0x21F24, symBinAddr: 0x100023218, symSize: 0x34 }
  - { offsetInCU: 0x36ABB, offset: 0x36ABB, size: 0x8, addend: 0x0, symName: __ZNSt3__115__tree_iteratorINS_12__value_typeINS_12basic_stringIcNS_11char_traitsIcEENS_9allocatorIcEEEENS_6vectorINS_3mapIS7_dNS_4lessIS7_EENS5_INS_4pairIKS7_dEEEEEENS5_ISG_EEEEEEPNS_11__tree_nodeISJ_PvEElEC2B8ue170006EPNS_15__tree_end_nodeIPNS_16__tree_node_baseISL_EEEE, symObjAddr: 0x21F58, symBinAddr: 0x10002324C, symSize: 0x20 }
  - { offsetInCU: 0x36AF4, offset: 0x36AF4, size: 0x8, addend: 0x0, symName: __ZNSt3__121__tree_const_iteratorINS_12__value_typeINS_12basic_stringIcNS_11char_traitsIcEENS_9allocatorIcEEEENS_6vectorINS_3mapIS7_dNS_4lessIS7_EENS5_INS_4pairIKS7_dEEEEEENS5_ISG_EEEEEEPNS_11__tree_nodeISJ_PvEElEC2B8ue170006ENS_15__tree_iteratorISJ_SN_lEE, symObjAddr: 0x21F78, symBinAddr: 0x10002326C, symSize: 0x20 }
  - { offsetInCU: 0x36B2D, offset: 0x36B2D, size: 0x8, addend: 0x0, symName: __ZNSt3__117__compressed_pairImNS_19__map_value_compareINS_12basic_stringIcNS_11char_traitsIcEENS_9allocatorIcEEEENS_12__value_typeIS7_NS_6vectorINS_3mapIS7_dNS_4lessIS7_EENS5_INS_4pairIKS7_dEEEEEENS5_ISH_EEEEEESC_Lb1EEEE6secondB8ue170006Ev, symObjAddr: 0x21F98, symBinAddr: 0x10002328C, symSize: 0x24 }
  - { offsetInCU: 0x36B53, offset: 0x36B53, size: 0x8, addend: 0x0, symName: __ZNSt3__122__compressed_pair_elemINS_19__map_value_compareINS_12basic_stringIcNS_11char_traitsIcEENS_9allocatorIcEEEENS_12__value_typeIS7_NS_6vectorINS_3mapIS7_dNS_4lessIS7_EENS5_INS_4pairIKS7_dEEEEEENS5_ISH_EEEEEESC_Lb1EEELi1ELb1EE5__getB8ue170006Ev, symObjAddr: 0x21FBC, symBinAddr: 0x1000232B0, symSize: 0x14 }
  - { offsetInCU: 0x36B79, offset: 0x36B79, size: 0x8, addend: 0x0, symName: __ZNKSt3__112__value_typeINS_12basic_stringIcNS_11char_traitsIcEENS_9allocatorIcEEEENS_6vectorINS_3mapIS6_dNS_4lessIS6_EENS4_INS_4pairIKS6_dEEEEEENS4_ISF_EEEEE11__get_valueB8ue170006Ev, symObjAddr: 0x21FD0, symBinAddr: 0x1000232C4, symSize: 0x24 }
  - { offsetInCU: 0x36B9F, offset: 0x36B9F, size: 0x8, addend: 0x0, symName: __ZNKSt3__16__treeINS_12__value_typeINS_12basic_stringIcNS_11char_traitsIcEENS_9allocatorIcEEEENS_6vectorINS_3mapIS7_dNS_4lessIS7_EENS5_INS_4pairIKS7_dEEEEEENS5_ISG_EEEEEENS_19__map_value_compareIS7_SJ_SB_Lb1EEENS5_ISJ_EEE6__rootB8ue170006Ev, symObjAddr: 0x2202C, symBinAddr: 0x100023320, symSize: 0x28 }
  - { offsetInCU: 0x36BC5, offset: 0x36BC5, size: 0x8, addend: 0x0, symName: __ZNKSt3__16__treeINS_12__value_typeINS_12basic_stringIcNS_11char_traitsIcEENS_9allocatorIcEEEENS_6vectorINS_3mapIS7_dNS_4lessIS7_EENS5_INS_4pairIKS7_dEEEEEENS5_ISG_EEEEEENS_19__map_value_compareIS7_SJ_SB_Lb1EEENS5_ISJ_EEE10__root_ptrB8ue170006Ev, symObjAddr: 0x22054, symBinAddr: 0x100023348, symSize: 0x24 }
  - { offsetInCU: 0x36BEB, offset: 0x36BEB, size: 0x8, addend: 0x0, symName: __ZNSt3__121__tree_const_iteratorINS_12__value_typeINS_12basic_stringIcNS_11char_traitsIcEENS_9allocatorIcEEEENS_6vectorINS_3mapIS7_dNS_4lessIS7_EENS5_INS_4pairIKS7_dEEEEEENS5_ISG_EEEEEEPNS_11__tree_nodeISJ_PvEElEppB8ue170006Ev, symObjAddr: 0x22154, symBinAddr: 0x100023448, symSize: 0x38 }
  - { offsetInCU: 0x36C11, offset: 0x36C11, size: 0x8, addend: 0x0, symName: __ZNSt3__16__treeINS_12__value_typeINS_12basic_stringIcNS_11char_traitsIcEENS_9allocatorIcEEEENS_6vectorINS_3mapIS7_dNS_4lessIS7_EENS5_INS_4pairIKS7_dEEEEEENS5_ISG_EEEEEENS_19__map_value_compareIS7_SJ_SB_Lb1EEENS5_ISJ_EEE12__node_allocB8ue170006Ev, symObjAddr: 0x2218C, symBinAddr: 0x100023480, symSize: 0x28 }
  - { offsetInCU: 0x36C37, offset: 0x36C37, size: 0x8, addend: 0x0, symName: __ZNSt3__116allocator_traitsINS_9allocatorINS_11__tree_nodeINS_12__value_typeINS_12basic_stringIcNS_11char_traitsIcEENS1_IcEEEENS_6vectorINS_3mapIS8_dNS_4lessIS8_EENS1_INS_4pairIKS8_dEEEEEENS1_ISH_EEEEEEPvEEEEE8allocateB8ue170006ERSN_m, symObjAddr: 0x221B4, symBinAddr: 0x1000234A8, symSize: 0x2C }
  - { offsetInCU: 0x36C6A, offset: 0x36C6A, size: 0x8, addend: 0x0, symName: __ZNSt3__122__tree_node_destructorINS_9allocatorINS_11__tree_nodeINS_12__value_typeINS_12basic_stringIcNS_11char_traitsIcEENS1_IcEEEENS_6vectorINS_3mapIS8_dNS_4lessIS8_EENS1_INS_4pairIKS8_dEEEEEENS1_ISH_EEEEEEPvEEEEEC1B8ue170006ERSN_b, symObjAddr: 0x221E0, symBinAddr: 0x1000234D4, symSize: 0x48 }
  - { offsetInCU: 0x36CB8, offset: 0x36CB8, size: 0x8, addend: 0x0, symName: __ZNSt3__110unique_ptrINS_11__tree_nodeINS_12__value_typeINS_12basic_stringIcNS_11char_traitsIcEENS_9allocatorIcEEEENS_6vectorINS_3mapIS8_dNS_4lessIS8_EENS6_INS_4pairIKS8_dEEEEEENS6_ISH_EEEEEEPvEENS_22__tree_node_destructorINS6_ISM_EEEEEC1B8ue170006ILb1EvEEPSM_NS_16__dependent_typeINS_27__unique_ptr_deleter_sfinaeISP_EEXT_EE20__good_rval_ref_typeE, symObjAddr: 0x22228, symBinAddr: 0x10002351C, symSize: 0x3C }
  - { offsetInCU: 0x36D09, offset: 0x36D09, size: 0x8, addend: 0x0, symName: __ZNSt3__116allocator_traitsINS_9allocatorINS_11__tree_nodeINS_12__value_typeINS_12basic_stringIcNS_11char_traitsIcEENS1_IcEEEENS_6vectorINS_3mapIS8_dNS_4lessIS8_EENS1_INS_4pairIKS8_dEEEEEENS1_ISH_EEEEEEPvEEEEE9constructB8ue170006INSD_ISE_SJ_EEJRKSQ_EvvEEvRSN_PT_DpOT0_, symObjAddr: 0x22264, symBinAddr: 0x100023558, symSize: 0x30 }
  - { offsetInCU: 0x36D5D, offset: 0x36D5D, size: 0x8, addend: 0x0, symName: __ZNSt3__122__tree_key_value_typesINS_12__value_typeINS_12basic_stringIcNS_11char_traitsIcEENS_9allocatorIcEEEENS_6vectorINS_3mapIS7_dNS_4lessIS7_EENS5_INS_4pairIKS7_dEEEEEENS5_ISG_EEEEEEE9__get_ptrB8ue170006ERSJ_, symObjAddr: 0x22294, symBinAddr: 0x100023588, symSize: 0x24 }
  - { offsetInCU: 0x36D81, offset: 0x36D81, size: 0x8, addend: 0x0, symName: __ZNKSt3__110unique_ptrINS_11__tree_nodeINS_12__value_typeINS_12basic_stringIcNS_11char_traitsIcEENS_9allocatorIcEEEENS_6vectorINS_3mapIS8_dNS_4lessIS8_EENS6_INS_4pairIKS8_dEEEEEENS6_ISH_EEEEEEPvEENS_22__tree_node_destructorINS6_ISM_EEEEEptB8ue170006Ev, symObjAddr: 0x222B8, symBinAddr: 0x1000235AC, symSize: 0x28 }
  - { offsetInCU: 0x36DA7, offset: 0x36DA7, size: 0x8, addend: 0x0, symName: __ZNSt3__110unique_ptrINS_11__tree_nodeINS_12__value_typeINS_12basic_stringIcNS_11char_traitsIcEENS_9allocatorIcEEEENS_6vectorINS_3mapIS8_dNS_4lessIS8_EENS6_INS_4pairIKS8_dEEEEEENS6_ISH_EEEEEEPvEENS_22__tree_node_destructorINS6_ISM_EEEEE11get_deleterB8ue170006Ev, symObjAddr: 0x222E0, symBinAddr: 0x1000235D4, symSize: 0x24 }
  - { offsetInCU: 0x36DCD, offset: 0x36DCD, size: 0x8, addend: 0x0, symName: __ZNSt3__117__compressed_pairINS_15__tree_end_nodeIPNS_16__tree_node_baseIPvEEEENS_9allocatorINS_11__tree_nodeINS_12__value_typeINS_12basic_stringIcNS_11char_traitsIcEENS7_IcEEEENS_6vectorINS_3mapISE_dNS_4lessISE_EENS7_INS_4pairIKSE_dEEEEEENS7_ISN_EEEEEES3_EEEEE6secondB8ue170006Ev, symObjAddr: 0x22304, symBinAddr: 0x1000235F8, symSize: 0x24 }
  - { offsetInCU: 0x36DF3, offset: 0x36DF3, size: 0x8, addend: 0x0, symName: __ZNSt3__122__compressed_pair_elemINS_9allocatorINS_11__tree_nodeINS_12__value_typeINS_12basic_stringIcNS_11char_traitsIcEENS1_IcEEEENS_6vectorINS_3mapIS8_dNS_4lessIS8_EENS1_INS_4pairIKS8_dEEEEEENS1_ISH_EEEEEEPvEEEELi1ELb1EE5__getB8ue170006Ev, symObjAddr: 0x22328, symBinAddr: 0x10002361C, symSize: 0x14 }
  - { offsetInCU: 0x36E19, offset: 0x36E19, size: 0x8, addend: 0x0, symName: __ZNSt3__19allocatorINS_11__tree_nodeINS_12__value_typeINS_12basic_stringIcNS_11char_traitsIcEENS0_IcEEEENS_6vectorINS_3mapIS7_dNS_4lessIS7_EENS0_INS_4pairIKS7_dEEEEEENS0_ISG_EEEEEEPvEEE8allocateB8ue170006Em, symObjAddr: 0x2233C, symBinAddr: 0x100023630, symSize: 0x5C }
  - { offsetInCU: 0x36E58, offset: 0x36E58, size: 0x8, addend: 0x0, symName: __ZNSt3__116allocator_traitsINS_9allocatorINS_11__tree_nodeINS_12__value_typeINS_12basic_stringIcNS_11char_traitsIcEENS1_IcEEEENS_6vectorINS_3mapIS8_dNS_4lessIS8_EENS1_INS_4pairIKS8_dEEEEEENS1_ISH_EEEEEEPvEEEEE8max_sizeB8ue170006ISN_vvEEmRKSN_, symObjAddr: 0x22398, symBinAddr: 0x10002368C, symSize: 0x28 }
  - { offsetInCU: 0x36E83, offset: 0x36E83, size: 0x8, addend: 0x0, symName: __ZNSt3__122__tree_node_destructorINS_9allocatorINS_11__tree_nodeINS_12__value_typeINS_12basic_stringIcNS_11char_traitsIcEENS1_IcEEEENS_6vectorINS_3mapIS8_dNS_4lessIS8_EENS1_INS_4pairIKS8_dEEEEEENS1_ISH_EEEEEEPvEEEEEC2B8ue170006ERSN_b, symObjAddr: 0x223C0, symBinAddr: 0x1000236B4, symSize: 0x38 }
  - { offsetInCU: 0x36ECB, offset: 0x36ECB, size: 0x8, addend: 0x0, symName: __ZNSt3__110unique_ptrINS_11__tree_nodeINS_12__value_typeINS_12basic_stringIcNS_11char_traitsIcEENS_9allocatorIcEEEENS_6vectorINS_3mapIS8_dNS_4lessIS8_EENS6_INS_4pairIKS8_dEEEEEENS6_ISH_EEEEEEPvEENS_22__tree_node_destructorINS6_ISM_EEEEEC2B8ue170006ILb1EvEEPSM_NS_16__dependent_typeINS_27__unique_ptr_deleter_sfinaeISP_EEXT_EE20__good_rval_ref_typeE, symObjAddr: 0x223F8, symBinAddr: 0x1000236EC, symSize: 0x48 }
  - { offsetInCU: 0x36F1C, offset: 0x36F1C, size: 0x8, addend: 0x0, symName: __ZNSt3__117__compressed_pairIPNS_11__tree_nodeINS_12__value_typeINS_12basic_stringIcNS_11char_traitsIcEENS_9allocatorIcEEEENS_6vectorINS_3mapIS8_dNS_4lessIS8_EENS6_INS_4pairIKS8_dEEEEEENS6_ISH_EEEEEEPvEENS_22__tree_node_destructorINS6_ISM_EEEEEC1B8ue170006IRSN_SQ_EEOT_OT0_, symObjAddr: 0x22440, symBinAddr: 0x100023734, symSize: 0x3C }
  - { offsetInCU: 0x36F74, offset: 0x36F74, size: 0x8, addend: 0x0, symName: __ZNSt3__117__compressed_pairIPNS_11__tree_nodeINS_12__value_typeINS_12basic_stringIcNS_11char_traitsIcEENS_9allocatorIcEEEENS_6vectorINS_3mapIS8_dNS_4lessIS8_EENS6_INS_4pairIKS8_dEEEEEENS6_ISH_EEEEEEPvEENS_22__tree_node_destructorINS6_ISM_EEEEEC2B8ue170006IRSN_SQ_EEOT_OT0_, symObjAddr: 0x2247C, symBinAddr: 0x100023770, symSize: 0x48 }
  - { offsetInCU: 0x36FCC, offset: 0x36FCC, size: 0x8, addend: 0x0, symName: __ZNSt3__122__compressed_pair_elemIPNS_11__tree_nodeINS_12__value_typeINS_12basic_stringIcNS_11char_traitsIcEENS_9allocatorIcEEEENS_6vectorINS_3mapIS8_dNS_4lessIS8_EENS6_INS_4pairIKS8_dEEEEEENS6_ISH_EEEEEEPvEELi0ELb0EEC2B8ue170006IRSN_vEEOT_, symObjAddr: 0x224C4, symBinAddr: 0x1000237B8, symSize: 0x24 }
  - { offsetInCU: 0x3700E, offset: 0x3700E, size: 0x8, addend: 0x0, symName: __ZNSt3__122__compressed_pair_elemINS_22__tree_node_destructorINS_9allocatorINS_11__tree_nodeINS_12__value_typeINS_12basic_stringIcNS_11char_traitsIcEENS2_IcEEEENS_6vectorINS_3mapIS9_dNS_4lessIS9_EENS2_INS_4pairIKS9_dEEEEEENS2_ISI_EEEEEEPvEEEEEELi1ELb0EEC2B8ue170006ISP_vEEOT_, symObjAddr: 0x224E8, symBinAddr: 0x1000237DC, symSize: 0x24 }
  - { offsetInCU: 0x37050, offset: 0x37050, size: 0x8, addend: 0x0, symName: __ZNSt3__14pairIKNS_12basic_stringIcNS_11char_traitsIcEENS_9allocatorIcEEEENS_6vectorINS_3mapIS6_dNS_4lessIS6_EENS4_INS0_IS7_dEEEEEENS4_ISE_EEEEEC1B8ue170006ERKSH_, symObjAddr: 0x22548, symBinAddr: 0x10002383C, symSize: 0x34 }
  - { offsetInCU: 0x37085, offset: 0x37085, size: 0x8, addend: 0x0, symName: __ZNSt3__14pairIKNS_12basic_stringIcNS_11char_traitsIcEENS_9allocatorIcEEEENS_6vectorINS_3mapIS6_dNS_4lessIS6_EENS4_INS0_IS7_dEEEEEENS4_ISE_EEEEEC2B8ue170006ERKSH_, symObjAddr: 0x2257C, symBinAddr: 0x100023870, symSize: 0x70 }
  - { offsetInCU: 0x370BA, offset: 0x370BA, size: 0x8, addend: 0x0, symName: __ZNSt3__112__value_typeINS_12basic_stringIcNS_11char_traitsIcEENS_9allocatorIcEEEENS_6vectorINS_3mapIS6_dNS_4lessIS6_EENS4_INS_4pairIKS6_dEEEEEENS4_ISF_EEEEE11__get_valueB8ue170006Ev, symObjAddr: 0x225EC, symBinAddr: 0x1000238E0, symSize: 0x24 }
  - { offsetInCU: 0x370E0, offset: 0x370E0, size: 0x8, addend: 0x0, symName: __ZNKSt3__117__compressed_pairIPNS_11__tree_nodeINS_12__value_typeINS_12basic_stringIcNS_11char_traitsIcEENS_9allocatorIcEEEENS_6vectorINS_3mapIS8_dNS_4lessIS8_EENS6_INS_4pairIKS8_dEEEEEENS6_ISH_EEEEEEPvEENS_22__tree_node_destructorINS6_ISM_EEEEE5firstB8ue170006Ev, symObjAddr: 0x22648, symBinAddr: 0x10002393C, symSize: 0x24 }
  - { offsetInCU: 0x37106, offset: 0x37106, size: 0x8, addend: 0x0, symName: __ZNKSt3__122__compressed_pair_elemIPNS_11__tree_nodeINS_12__value_typeINS_12basic_stringIcNS_11char_traitsIcEENS_9allocatorIcEEEENS_6vectorINS_3mapIS8_dNS_4lessIS8_EENS6_INS_4pairIKS8_dEEEEEENS6_ISH_EEEEEEPvEELi0ELb0EE5__getB8ue170006Ev, symObjAddr: 0x2266C, symBinAddr: 0x100023960, symSize: 0x14 }
  - { offsetInCU: 0x3712C, offset: 0x3712C, size: 0x8, addend: 0x0, symName: __ZNSt3__117__compressed_pairIPNS_11__tree_nodeINS_12__value_typeINS_12basic_stringIcNS_11char_traitsIcEENS_9allocatorIcEEEENS_6vectorINS_3mapIS8_dNS_4lessIS8_EENS6_INS_4pairIKS8_dEEEEEENS6_ISH_EEEEEEPvEENS_22__tree_node_destructorINS6_ISM_EEEEE6secondB8ue170006Ev, symObjAddr: 0x22680, symBinAddr: 0x100023974, symSize: 0x28 }
  - { offsetInCU: 0x37152, offset: 0x37152, size: 0x8, addend: 0x0, symName: __ZNSt3__122__compressed_pair_elemINS_22__tree_node_destructorINS_9allocatorINS_11__tree_nodeINS_12__value_typeINS_12basic_stringIcNS_11char_traitsIcEENS2_IcEEEENS_6vectorINS_3mapIS9_dNS_4lessIS9_EENS2_INS_4pairIKS9_dEEEEEENS2_ISI_EEEEEEPvEEEEEELi1ELb0EE5__getB8ue170006Ev, symObjAddr: 0x226A8, symBinAddr: 0x10002399C, symSize: 0x14 }
  - { offsetInCU: 0x37178, offset: 0x37178, size: 0x8, addend: 0x0, symName: __ZNSt3__16__treeINS_12__value_typeINS_12basic_stringIcNS_11char_traitsIcEENS_9allocatorIcEEEENS_6vectorINS_3mapIS7_dNS_4lessIS7_EENS5_INS_4pairIKS7_dEEEEEENS5_ISG_EEEEEENS_19__map_value_compareIS7_SJ_SB_Lb1EEENS5_ISJ_EEE4sizeB8ue170006Ev, symObjAddr: 0x226BC, symBinAddr: 0x1000239B0, symSize: 0x28 }
  - { offsetInCU: 0x3719E, offset: 0x3719E, size: 0x8, addend: 0x0, symName: __ZNSt3__117__compressed_pairImNS_19__map_value_compareINS_12basic_stringIcNS_11char_traitsIcEENS_9allocatorIcEEEENS_12__value_typeIS7_NS_6vectorINS_3mapIS7_dNS_4lessIS7_EENS5_INS_4pairIKS7_dEEEEEENS5_ISH_EEEEEESC_Lb1EEEE5firstB8ue170006Ev, symObjAddr: 0x226E4, symBinAddr: 0x1000239D8, symSize: 0x24 }
  - { offsetInCU: 0x371C4, offset: 0x371C4, size: 0x8, addend: 0x0, symName: __ZNSt3__117__compressed_pairIPNS_11__tree_nodeINS_12__value_typeINS_12basic_stringIcNS_11char_traitsIcEENS_9allocatorIcEEEENS_6vectorINS_3mapIS8_dNS_4lessIS8_EENS6_INS_4pairIKS8_dEEEEEENS6_ISH_EEEEEEPvEENS_22__tree_node_destructorINS6_ISM_EEEEE5firstB8ue170006Ev, symObjAddr: 0x22708, symBinAddr: 0x1000239FC, symSize: 0x24 }
  - { offsetInCU: 0x371EA, offset: 0x371EA, size: 0x8, addend: 0x0, symName: __ZNSt3__122__compressed_pair_elemIPNS_11__tree_nodeINS_12__value_typeINS_12basic_stringIcNS_11char_traitsIcEENS_9allocatorIcEEEENS_6vectorINS_3mapIS8_dNS_4lessIS8_EENS6_INS_4pairIKS8_dEEEEEENS6_ISH_EEEEEEPvEELi0ELb0EE5__getB8ue170006Ev, symObjAddr: 0x2272C, symBinAddr: 0x100023A20, symSize: 0x14 }
  - { offsetInCU: 0x37210, offset: 0x37210, size: 0x8, addend: 0x0, symName: __ZNSt3__110unique_ptrINS_11__tree_nodeINS_12__value_typeINS_12basic_stringIcNS_11char_traitsIcEENS_9allocatorIcEEEENS_6vectorINS_3mapIS8_dNS_4lessIS8_EENS6_INS_4pairIKS8_dEEEEEENS6_ISH_EEEEEEPvEENS_22__tree_node_destructorINS6_ISM_EEEEED2B8ue170006Ev, symObjAddr: 0x22740, symBinAddr: 0x100023A34, symSize: 0x30 }
  - { offsetInCU: 0x3723A, offset: 0x3723A, size: 0x8, addend: 0x0, symName: __ZNSt3__110unique_ptrINS_11__tree_nodeINS_12__value_typeINS_12basic_stringIcNS_11char_traitsIcEENS_9allocatorIcEEEENS_6vectorINS_3mapIS8_dNS_4lessIS8_EENS6_INS_4pairIKS8_dEEEEEENS6_ISH_EEEEEEPvEENS_22__tree_node_destructorINS6_ISM_EEEEE5resetB8ue170006EPSM_, symObjAddr: 0x22770, symBinAddr: 0x100023A64, symSize: 0x78 }
  - { offsetInCU: 0x3727E, offset: 0x3727E, size: 0x8, addend: 0x0, symName: __ZNSt3__122__tree_node_destructorINS_9allocatorINS_11__tree_nodeINS_12__value_typeINS_12basic_stringIcNS_11char_traitsIcEENS1_IcEEEENS_6vectorINS_3mapIS8_dNS_4lessIS8_EENS1_INS_4pairIKS8_dEEEEEENS1_ISH_EEEEEEPvEEEEEclB8ue170006EPSM_, symObjAddr: 0x227E8, symBinAddr: 0x100023ADC, symSize: 0x98 }
  - { offsetInCU: 0x372B3, offset: 0x372B3, size: 0x8, addend: 0x0, symName: __ZNSt3__116allocator_traitsINS_9allocatorINS_11__tree_nodeINS_12__value_typeINS_12basic_stringIcNS_11char_traitsIcEENS1_IcEEEENS_6vectorINS_3mapIS8_dNS_4lessIS8_EENS1_INS_4pairIKS8_dEEEEEENS1_ISH_EEEEEEPvEEEEE7destroyB8ue170006INSD_ISE_SJ_EEvvEEvRSN_PT_, symObjAddr: 0x22880, symBinAddr: 0x100023B74, symSize: 0x28 }
  - { offsetInCU: 0x372ED, offset: 0x372ED, size: 0x8, addend: 0x0, symName: __ZNSt3__116allocator_traitsINS_9allocatorINS_11__tree_nodeINS_12__value_typeINS_12basic_stringIcNS_11char_traitsIcEENS1_IcEEEENS_6vectorINS_3mapIS8_dNS_4lessIS8_EENS1_INS_4pairIKS8_dEEEEEENS1_ISH_EEEEEEPvEEEEE10deallocateB8ue170006ERSN_PSM_m, symObjAddr: 0x228A8, symBinAddr: 0x100023B9C, symSize: 0x34 }
  - { offsetInCU: 0x3732F, offset: 0x3732F, size: 0x8, addend: 0x0, symName: __ZNSt3__19allocatorINS_11__tree_nodeINS_12__value_typeINS_12basic_stringIcNS_11char_traitsIcEENS0_IcEEEENS_6vectorINS_3mapIS7_dNS_4lessIS7_EENS0_INS_4pairIKS7_dEEEEEENS0_ISG_EEEEEEPvEEE10deallocateB8ue170006EPSL_m, symObjAddr: 0x22924, symBinAddr: 0x100023C18, symSize: 0x44 }
  - { offsetInCU: 0x37371, offset: 0x37371, size: 0x8, addend: 0x0, symName: __ZNSt3__115__tree_iteratorINS_12__value_typeINS_12basic_stringIcNS_11char_traitsIcEENS_9allocatorIcEEEENS_6vectorINS_3mapIS7_dNS_4lessIS7_EENS5_INS_4pairIKS7_dEEEEEENS5_ISG_EEEEEEPNS_11__tree_nodeISJ_PvEElEC2B8ue170006ESN_, symObjAddr: 0x22968, symBinAddr: 0x100023C5C, symSize: 0x20 }
  - { offsetInCU: 0x373AA, offset: 0x373AA, size: 0x8, addend: 0x0, symName: __ZNSt3__14pairINS_15__tree_iteratorINS_12__value_typeINS_12basic_stringIcNS_11char_traitsIcEENS_9allocatorIcEEEENS_6vectorINS_3mapIS8_dNS_4lessIS8_EENS6_INS0_IKS8_dEEEEEENS6_ISG_EEEEEEPNS_11__tree_nodeISJ_PvEElEEbEC2B8ue170006ISO_RbLSL_0EEEOT_OT0_, symObjAddr: 0x22988, symBinAddr: 0x100023C7C, symSize: 0x38 }
  - { offsetInCU: 0x37408, offset: 0x37408, size: 0x8, addend: 0x0, symName: __ZNSt3__114__map_iteratorINS_15__tree_iteratorINS_12__value_typeINS_12basic_stringIcNS_11char_traitsIcEENS_9allocatorIcEEEENS_6vectorINS_3mapIS8_dNS_4lessIS8_EENS6_INS_4pairIKS8_dEEEEEENS6_ISH_EEEEEEPNS_11__tree_nodeISK_PvEElEEEC2B8ue170006ESP_, symObjAddr: 0x229C0, symBinAddr: 0x100023CB4, symSize: 0x20 }
  - { offsetInCU: 0x37441, offset: 0x37441, size: 0x8, addend: 0x0, symName: __ZNSt3__120__map_const_iteratorINS_21__tree_const_iteratorINS_12__value_typeINS_12basic_stringIcNS_11char_traitsIcEENS_9allocatorIcEEEENS_6vectorINS_3mapIS8_dNS_4lessIS8_EENS6_INS_4pairIKS8_dEEEEEENS6_ISH_EEEEEEPNS_11__tree_nodeISK_PvEElEEEC2B8ue170006ESP_, symObjAddr: 0x229E0, symBinAddr: 0x100023CD4, symSize: 0x20 }
  - { offsetInCU: 0x3747A, offset: 0x3747A, size: 0x8, addend: 0x0, symName: __ZNSt3__16__treeINS_12__value_typeINS_12basic_stringIcNS_11char_traitsIcEENS_9allocatorIcEEEENS_6vectorINS_3mapIS7_dNS_4lessIS7_EENS5_INS_4pairIKS7_dEEEEEENS5_ISG_EEEEEENS_19__map_value_compareIS7_SJ_SB_Lb1EEENS5_ISJ_EEED2Ev, symObjAddr: 0x22A00, symBinAddr: 0x100023CF4, symSize: 0x38 }
  - { offsetInCU: 0x374A6, offset: 0x374A6, size: 0x8, addend: 0x0, symName: __ZNSt3__16__treeINS_12__value_typeINS_12basic_stringIcNS_11char_traitsIcEENS_9allocatorIcEEEENS_6vectorINS_3mapIS7_dNS_4lessIS7_EENS5_INS_4pairIKS7_dEEEEEENS5_ISG_EEEEEENS_19__map_value_compareIS7_SJ_SB_Lb1EEENS5_ISJ_EEE7destroyEPNS_11__tree_nodeISJ_PvEE, symObjAddr: 0x22A38, symBinAddr: 0x100023D2C, symSize: 0xAC }
  - { offsetInCU: 0x374F2, offset: 0x374F2, size: 0x8, addend: 0x0, symName: __ZNSt3__13mapINS_12basic_stringIcNS_11char_traitsIcEENS_9allocatorIcEEEENS_6vectorINS0_IS6_dNS_4lessIS6_EENS4_INS_4pairIKS6_dEEEEEENS4_ISE_EEEES9_NS4_INSA_ISB_SG_EEEEED2B8ue170006Ev, symObjAddr: 0x22AE4, symBinAddr: 0x100023DD8, symSize: 0x2C }
  - { offsetInCU: 0x3751C, offset: 0x3751C, size: 0x8, addend: 0x0, symName: __ZNKSt3__13mapINS_12basic_stringIcNS_11char_traitsIcEENS_9allocatorIcEEEENS_6vectorINS0_IS6_dNS_4lessIS6_EENS4_INS_4pairIKS6_dEEEEEENS4_ISE_EEEES9_NS4_INSA_ISB_SG_EEEEE5beginB8ue170006Ev, symObjAddr: 0x22B10, symBinAddr: 0x100023E04, symSize: 0x38 }
  - { offsetInCU: 0x37542, offset: 0x37542, size: 0x8, addend: 0x0, symName: __ZNKSt3__120__map_const_iteratorINS_21__tree_const_iteratorINS_12__value_typeINS_12basic_stringIcNS_11char_traitsIcEENS_9allocatorIcEEEENS_6vectorINS_3mapIS8_dNS_4lessIS8_EENS6_INS_4pairIKS8_dEEEEEENS6_ISH_EEEEEEPNS_11__tree_nodeISK_PvEElEEEdeB8ue170006Ev, symObjAddr: 0x22B78, symBinAddr: 0x100023E6C, symSize: 0x28 }
  - { offsetInCU: 0x37568, offset: 0x37568, size: 0x8, addend: 0x0, symName: __ZNSt3__120__map_const_iteratorINS_21__tree_const_iteratorINS_12__value_typeINS_12basic_stringIcNS_11char_traitsIcEENS_9allocatorIcEEEENS_6vectorINS_3mapIS8_dNS_4lessIS8_EENS6_INS_4pairIKS8_dEEEEEENS6_ISH_EEEEEEPNS_11__tree_nodeISK_PvEElEEEppB8ue170006Ev, symObjAddr: 0x22D1C, symBinAddr: 0x100024010, symSize: 0x2C }
  - { offsetInCU: 0x3758E, offset: 0x3758E, size: 0x8, addend: 0x0, symName: __ZNKSt3__16__treeINS_12__value_typeINS_12basic_stringIcNS_11char_traitsIcEENS_9allocatorIcEEEENS_6vectorINS_3mapIS7_dNS_4lessIS7_EENS5_INS_4pairIKS7_dEEEEEENS5_ISG_EEEEEENS_19__map_value_compareIS7_SJ_SB_Lb1EEENS5_ISJ_EEE5beginB8ue170006Ev, symObjAddr: 0x22D48, symBinAddr: 0x10002403C, symSize: 0x34 }
  - { offsetInCU: 0x375B4, offset: 0x375B4, size: 0x8, addend: 0x0, symName: __ZNKSt3__16__treeINS_12__value_typeINS_12basic_stringIcNS_11char_traitsIcEENS_9allocatorIcEEEENS_6vectorINS_3mapIS7_dNS_4lessIS7_EENS5_INS_4pairIKS7_dEEEEEENS5_ISG_EEEEEENS_19__map_value_compareIS7_SJ_SB_Lb1EEENS5_ISJ_EEE12__begin_nodeB8ue170006Ev, symObjAddr: 0x22D7C, symBinAddr: 0x100024070, symSize: 0x14 }
  - { offsetInCU: 0x375DA, offset: 0x375DA, size: 0x8, addend: 0x0, symName: __ZNKSt3__121__tree_const_iteratorINS_12__value_typeINS_12basic_stringIcNS_11char_traitsIcEENS_9allocatorIcEEEENS_6vectorINS_3mapIS7_dNS_4lessIS7_EENS5_INS_4pairIKS7_dEEEEEENS5_ISG_EEEEEEPNS_11__tree_nodeISJ_PvEElEptB8ue170006Ev, symObjAddr: 0x22DC4, symBinAddr: 0x1000240B8, symSize: 0x2C }
  - { offsetInCU: 0x37600, offset: 0x37600, size: 0x8, addend: 0x0, symName: __ZNSt3__114pointer_traitsIPKNS_12__value_typeINS_12basic_stringIcNS_11char_traitsIcEENS_9allocatorIcEEEENS_6vectorINS_3mapIS7_dNS_4lessIS7_EENS5_INS_4pairIKS7_dEEEEEENS5_ISG_EEEEEEE10pointer_toB8ue170006ERSK_, symObjAddr: 0x22DF0, symBinAddr: 0x1000240E4, symSize: 0x14 }
  - { offsetInCU: 0x37623, offset: 0x37623, size: 0x8, addend: 0x0, symName: __ZNSt3__110__get_pairILm0EE3getB8ue170006IKNS_12basic_stringIcNS_11char_traitsIcEENS_9allocatorIcEEEENS_6vectorINS_3mapIS8_dNS_4lessIS8_EENS6_INS_4pairIS9_dEEEEEENS6_ISH_EEEEEERKT_RKNSE_ISK_T0_EE, symObjAddr: 0x22E04, symBinAddr: 0x1000240F8, symSize: 0x14 }
  - { offsetInCU: 0x37659, offset: 0x37659, size: 0x8, addend: 0x0, symName: __ZNSt3__110__get_pairILm1EE3getB8ue170006IKNS_12basic_stringIcNS_11char_traitsIcEENS_9allocatorIcEEEENS_6vectorINS_3mapIS8_dNS_4lessIS8_EENS6_INS_4pairIS9_dEEEEEENS6_ISH_EEEEEERKT0_RKNSE_IT_SK_EE, symObjAddr: 0x22E18, symBinAddr: 0x10002410C, symSize: 0x18 }
  - { offsetInCU: 0x3768F, offset: 0x3768F, size: 0x8, addend: 0x0, symName: __ZNKSt3__16vectorINS_3mapINS_12basic_stringIcNS_11char_traitsIcEENS_9allocatorIcEEEEdNS_4lessIS7_EENS5_INS_4pairIKS7_dEEEEEENS5_ISE_EEEixB8ue170006Em, symObjAddr: 0x22F18, symBinAddr: 0x10002420C, symSize: 0x2C }
  - { offsetInCU: 0x376C6, offset: 0x376C6, size: 0x8, addend: 0x0, symName: __ZN5utils10TypeErasedC1IRKdvEEOT_, symObjAddr: 0x22F8C, symBinAddr: 0x100024280, symSize: 0x34 }
  - { offsetInCU: 0x37708, offset: 0x37708, size: 0x8, addend: 0x0, symName: __ZNSt3__110__get_pairILm0EE3getB8ue170006IKNS_12basic_stringIcNS_11char_traitsIcEENS_9allocatorIcEEEEdEERKT_RKNS_4pairISA_T0_EE, symObjAddr: 0x22FC0, symBinAddr: 0x1000242B4, symSize: 0x14 }
  - { offsetInCU: 0x3773E, offset: 0x3773E, size: 0x8, addend: 0x0, symName: __ZNSt3__110__get_pairILm1EE3getB8ue170006IKNS_12basic_stringIcNS_11char_traitsIcEENS_9allocatorIcEEEEdEERKT0_RKNS_4pairIT_SA_EE, symObjAddr: 0x22FD4, symBinAddr: 0x1000242C8, symSize: 0x18 }
  - { offsetInCU: 0x37774, offset: 0x37774, size: 0x8, addend: 0x0, symName: __ZN5utils10TypeErasedC2IRKdvEEOT_, symObjAddr: 0x22FEC, symBinAddr: 0x1000242E0, symSize: 0x64 }
  - { offsetInCU: 0x377B6, offset: 0x377B6, size: 0x8, addend: 0x0, symName: __ZN5utils10TypeErased7emplaceIdJRKdEEENSt3__19enable_ifIXaasr3stdE18is_constructible_vIu7__decayIT_EDpT0_Esr3stdE23is_copy_constructible_vIS7_EERS7_E4typeEDpOS8_, symObjAddr: 0x23050, symBinAddr: 0x100024344, symSize: 0x6C }
  - { offsetInCU: 0x3781A, offset: 0x3781A, size: 0x8, addend: 0x0, symName: __ZNSt3__13mapINS_12basic_stringIcNS_11char_traitsIcEENS_9allocatorIcEEEENS_6vectorINS0_IS6_dNS_4lessIS6_EENS4_INS_4pairIKS6_dEEEEEENS4_ISE_EEEES9_NS4_INSA_ISB_SG_EEEEEC2B8ue170006Ev, symObjAddr: 0x230BC, symBinAddr: 0x1000243B0, symSize: 0x40 }
  - { offsetInCU: 0x37844, offset: 0x37844, size: 0x8, addend: 0x0, symName: __ZNK5utils6dict_t3getIS0_EERKT_RKNSt3__112basic_stringIcNS5_11char_traitsIcEENS5_9allocatorIcEEEE, symObjAddr: 0x231F0, symBinAddr: 0x1000244E4, symSize: 0xE4 }
  - { offsetInCU: 0x3788F, offset: 0x3788F, size: 0x8, addend: 0x0, symName: __ZNSt3__13mapINS_12basic_stringIcNS_11char_traitsIcEENS_9allocatorIcEEEENS_6vectorINS0_IS6_dNS_4lessIS6_EENS4_INS_4pairIKS6_dEEEEEENS4_ISE_EEEES9_NS4_INSA_ISB_SG_EEEEE7emplaceB8ue170006IJRSB_RSG_EEENSA_INS_14__map_iteratorINS_15__tree_iteratorINS_12__value_typeIS6_SG_EEPNS_11__tree_nodeISQ_PvEElEEEEbEEDpOT_, symObjAddr: 0x232D4, symBinAddr: 0x1000245C8, symSize: 0x54 }
  - { offsetInCU: 0x378E3, offset: 0x378E3, size: 0x8, addend: 0x0, symName: __ZNSt3__16vectorINS_3mapINS_12basic_stringIcNS_11char_traitsIcEENS_9allocatorIcEEEEdNS_4lessIS7_EENS5_INS_4pairIKS7_dEEEEEENS5_ISE_EEE9push_backB8ue170006ERKSE_, symObjAddr: 0x23410, symBinAddr: 0x100024704, symSize: 0x6C }
  - { offsetInCU: 0x3791A, offset: 0x3791A, size: 0x8, addend: 0x0, symName: __ZNK5utils6dict_t3getIdEERKT_RKNSt3__112basic_stringIcNS5_11char_traitsIcEENS5_9allocatorIcEEEE, symObjAddr: 0x2347C, symBinAddr: 0x100024770, symSize: 0xE4 }
  - { offsetInCU: 0x37965, offset: 0x37965, size: 0x8, addend: 0x0, symName: __ZNSt3__13mapINS_12basic_stringIcNS_11char_traitsIcEENS_9allocatorIcEEEEdNS_4lessIS6_EENS4_INS_4pairIKS6_dEEEEEixERSA_, symObjAddr: 0x23560, symBinAddr: 0x100024854, symSize: 0x80 }
  - { offsetInCU: 0x3799C, offset: 0x3799C, size: 0x8, addend: 0x0, symName: __ZNSt3__16__treeINS_12__value_typeINS_12basic_stringIcNS_11char_traitsIcEENS_9allocatorIcEEEEdEENS_19__map_value_compareIS7_S8_NS_4lessIS7_EELb1EEENS5_IS8_EEE25__emplace_unique_key_argsIS7_JRKNS_21piecewise_construct_tENS_5tupleIJRKS7_EEENSJ_IJEEEEEENS_4pairINS_15__tree_iteratorIS8_PNS_11__tree_nodeIS8_PvEElEEbEERKT_DpOT0_, symObjAddr: 0x235E0, symBinAddr: 0x1000248D4, symSize: 0x100 }
  - { offsetInCU: 0x37A72, offset: 0x37A72, size: 0x8, addend: 0x0, symName: __ZNKSt3__115__tree_iteratorINS_12__value_typeINS_12basic_stringIcNS_11char_traitsIcEENS_9allocatorIcEEEEdEEPNS_11__tree_nodeIS8_PvEElEptB8ue170006Ev, symObjAddr: 0x236E0, symBinAddr: 0x1000249D4, symSize: 0x2C }
  - { offsetInCU: 0x37A98, offset: 0x37A98, size: 0x8, addend: 0x0, symName: __ZNSt3__16__treeINS_12__value_typeINS_12basic_stringIcNS_11char_traitsIcEENS_9allocatorIcEEEEdEENS_19__map_value_compareIS7_S8_NS_4lessIS7_EELb1EEENS5_IS8_EEE16__construct_nodeIJRKNS_21piecewise_construct_tENS_5tupleIJRKS7_EEENSJ_IJEEEEEENS_10unique_ptrINS_11__tree_nodeIS8_PvEENS_22__tree_node_destructorINS5_ISR_EEEEEEDpOT_, symObjAddr: 0x2370C, symBinAddr: 0x100024A00, symSize: 0x120 }
  - { offsetInCU: 0x37B21, offset: 0x37B21, size: 0x8, addend: 0x0, symName: __ZNSt3__116allocator_traitsINS_9allocatorINS_11__tree_nodeINS_12__value_typeINS_12basic_stringIcNS_11char_traitsIcEENS1_IcEEEEdEEPvEEEEE9constructB8ue170006INS_4pairIKS8_dEEJRKNS_21piecewise_construct_tENS_5tupleIJRSG_EEENSL_IJEEEEvvEEvRSC_PT_DpOT0_, symObjAddr: 0x2382C, symBinAddr: 0x100024B20, symSize: 0x40 }
  - { offsetInCU: 0x37B9D, offset: 0x37B9D, size: 0x8, addend: 0x0, symName: __ZNSt3__14pairIKNS_12basic_stringIcNS_11char_traitsIcEENS_9allocatorIcEEEEdEC1B8ue170006IJRS7_EJEEENS_21piecewise_construct_tENS_5tupleIJDpT_EEENSC_IJDpT0_EEE, symObjAddr: 0x238BC, symBinAddr: 0x100024BB0, symSize: 0x3C }
  - { offsetInCU: 0x37C04, offset: 0x37C04, size: 0x8, addend: 0x0, symName: __ZNSt3__14pairIKNS_12basic_stringIcNS_11char_traitsIcEENS_9allocatorIcEEEEdEC1B8ue170006IJRS7_EJEJLm0EEJEEENS_21piecewise_construct_tERNS_5tupleIJDpT_EEERNSC_IJDpT0_EEENS_15__tuple_indicesIJXspT1_EEEENSL_IJXspT2_EEEE, symObjAddr: 0x238F8, symBinAddr: 0x100024BEC, symSize: 0x3C }
  - { offsetInCU: 0x37C91, offset: 0x37C91, size: 0x8, addend: 0x0, symName: __ZNSt3__14pairIKNS_12basic_stringIcNS_11char_traitsIcEENS_9allocatorIcEEEEdEC2B8ue170006IJRS7_EJEJLm0EEJEEENS_21piecewise_construct_tERNS_5tupleIJDpT_EEERNSC_IJDpT0_EEENS_15__tuple_indicesIJXspT1_EEEENSL_IJXspT2_EEEE, symObjAddr: 0x23934, symBinAddr: 0x100024C28, symSize: 0x4C }
  - { offsetInCU: 0x37D1E, offset: 0x37D1E, size: 0x8, addend: 0x0, symName: __ZNSt3__114pointer_traitsIPNS_12__value_typeINS_12basic_stringIcNS_11char_traitsIcEENS_9allocatorIcEEEEdEEE10pointer_toB8ue170006ERS8_, symObjAddr: 0x23980, symBinAddr: 0x100024C74, symSize: 0x14 }
  - { offsetInCU: 0x37D41, offset: 0x37D41, size: 0x8, addend: 0x0, symName: __ZNKSt3__115__tree_iteratorINS_12__value_typeINS_12basic_stringIcNS_11char_traitsIcEENS_9allocatorIcEEEEdEEPNS_11__tree_nodeIS8_PvEElE8__get_npB8ue170006Ev, symObjAddr: 0x23994, symBinAddr: 0x100024C88, symSize: 0x18 }
  - { offsetInCU: 0x37D67, offset: 0x37D67, size: 0x8, addend: 0x0, symName: __ZNSt3__16vectorINS_3mapINS_12basic_stringIcNS_11char_traitsIcEENS_9allocatorIcEEEEdNS_4lessIS7_EENS5_INS_4pairIKS7_dEEEEEENS5_ISE_EEE22__construct_one_at_endB8ue170006IJRKSE_EEEvDpOT_, symObjAddr: 0x239AC, symBinAddr: 0x100024CA0, symSize: 0x90 }
  - { offsetInCU: 0x37DB6, offset: 0x37DB6, size: 0x8, addend: 0x0, symName: __ZNSt3__16vectorINS_3mapINS_12basic_stringIcNS_11char_traitsIcEENS_9allocatorIcEEEEdNS_4lessIS7_EENS5_INS_4pairIKS7_dEEEEEENS5_ISE_EEE21__push_back_slow_pathIRKSE_EEvOT_, symObjAddr: 0x23A3C, symBinAddr: 0x100024D30, symSize: 0xD8 }
  - { offsetInCU: 0x37E14, offset: 0x37E14, size: 0x8, addend: 0x0, symName: __ZNKSt3__16vectorINS_3mapINS_12basic_stringIcNS_11char_traitsIcEENS_9allocatorIcEEEEdNS_4lessIS7_EENS5_INS_4pairIKS7_dEEEEEENS5_ISE_EEE11__recommendB8ue170006Em, symObjAddr: 0x23B14, symBinAddr: 0x100024E08, symSize: 0xB4 }
  - { offsetInCU: 0x37E69, offset: 0x37E69, size: 0x8, addend: 0x0, symName: __ZNSt3__114__split_bufferINS_3mapINS_12basic_stringIcNS_11char_traitsIcEENS_9allocatorIcEEEEdNS_4lessIS7_EENS5_INS_4pairIKS7_dEEEEEERNS5_ISE_EEEC1EmmSG_, symObjAddr: 0x23BC8, symBinAddr: 0x100024EBC, symSize: 0x44 }
  - { offsetInCU: 0x37EBF, offset: 0x37EBF, size: 0x8, addend: 0x0, symName: __ZNSt3__114__split_bufferINS_3mapINS_12basic_stringIcNS_11char_traitsIcEENS_9allocatorIcEEEEdNS_4lessIS7_EENS5_INS_4pairIKS7_dEEEEEERNS5_ISE_EEED1Ev, symObjAddr: 0x23D1C, symBinAddr: 0x100025010, symSize: 0x2C }
  - { offsetInCU: 0x37EEB, offset: 0x37EEB, size: 0x8, addend: 0x0, symName: __ZNSt3__114__split_bufferINS_3mapINS_12basic_stringIcNS_11char_traitsIcEENS_9allocatorIcEEEEdNS_4lessIS7_EENS5_INS_4pairIKS7_dEEEEEERNS5_ISE_EEEC2EmmSG_, symObjAddr: 0x23DC8, symBinAddr: 0x1000250BC, symSize: 0xE0 }
  - { offsetInCU: 0x37F5E, offset: 0x37F5E, size: 0x8, addend: 0x0, symName: __ZNSt3__117__compressed_pairIPNS_3mapINS_12basic_stringIcNS_11char_traitsIcEENS_9allocatorIcEEEEdNS_4lessIS7_EENS5_INS_4pairIKS7_dEEEEEERNS5_ISE_EEEC1B8ue170006IDnSH_EEOT_OT0_, symObjAddr: 0x23EA8, symBinAddr: 0x10002519C, symSize: 0x3C }
  - { offsetInCU: 0x37FB6, offset: 0x37FB6, size: 0x8, addend: 0x0, symName: __ZNSt3__114__split_bufferINS_3mapINS_12basic_stringIcNS_11char_traitsIcEENS_9allocatorIcEEEEdNS_4lessIS7_EENS5_INS_4pairIKS7_dEEEEEERNS5_ISE_EEE7__allocB8ue170006Ev, symObjAddr: 0x23EE4, symBinAddr: 0x1000251D8, symSize: 0x28 }
  - { offsetInCU: 0x37FDC, offset: 0x37FDC, size: 0x8, addend: 0x0, symName: __ZNSt3__114__split_bufferINS_3mapINS_12basic_stringIcNS_11char_traitsIcEENS_9allocatorIcEEEEdNS_4lessIS7_EENS5_INS_4pairIKS7_dEEEEEERNS5_ISE_EEE9__end_capB8ue170006Ev, symObjAddr: 0x23F0C, symBinAddr: 0x100025200, symSize: 0x28 }
  - { offsetInCU: 0x38002, offset: 0x38002, size: 0x8, addend: 0x0, symName: __ZNSt3__117__compressed_pairIPNS_3mapINS_12basic_stringIcNS_11char_traitsIcEENS_9allocatorIcEEEEdNS_4lessIS7_EENS5_INS_4pairIKS7_dEEEEEERNS5_ISE_EEEC2B8ue170006IDnSH_EEOT_OT0_, symObjAddr: 0x23F34, symBinAddr: 0x100025228, symSize: 0x48 }
  - { offsetInCU: 0x3805A, offset: 0x3805A, size: 0x8, addend: 0x0, symName: __ZNSt3__122__compressed_pair_elemIRNS_9allocatorINS_3mapINS_12basic_stringIcNS_11char_traitsIcEENS1_IcEEEEdNS_4lessIS7_EENS1_INS_4pairIKS7_dEEEEEEEELi1ELb0EEC2B8ue170006ISG_vEEOT_, symObjAddr: 0x23F7C, symBinAddr: 0x100025270, symSize: 0x20 }
  - { offsetInCU: 0x3809C, offset: 0x3809C, size: 0x8, addend: 0x0, symName: __ZNSt3__117__compressed_pairIPNS_3mapINS_12basic_stringIcNS_11char_traitsIcEENS_9allocatorIcEEEEdNS_4lessIS7_EENS5_INS_4pairIKS7_dEEEEEERNS5_ISE_EEE6secondB8ue170006Ev, symObjAddr: 0x23F9C, symBinAddr: 0x100025290, symSize: 0x28 }
  - { offsetInCU: 0x380C2, offset: 0x380C2, size: 0x8, addend: 0x0, symName: __ZNSt3__122__compressed_pair_elemIRNS_9allocatorINS_3mapINS_12basic_stringIcNS_11char_traitsIcEENS1_IcEEEEdNS_4lessIS7_EENS1_INS_4pairIKS7_dEEEEEEEELi1ELb0EE5__getB8ue170006Ev, symObjAddr: 0x23FC4, symBinAddr: 0x1000252B8, symSize: 0x18 }
  - { offsetInCU: 0x380E8, offset: 0x380E8, size: 0x8, addend: 0x0, symName: __ZNSt3__117__compressed_pairIPNS_3mapINS_12basic_stringIcNS_11char_traitsIcEENS_9allocatorIcEEEEdNS_4lessIS7_EENS5_INS_4pairIKS7_dEEEEEERNS5_ISE_EEE5firstB8ue170006Ev, symObjAddr: 0x23FDC, symBinAddr: 0x1000252D0, symSize: 0x24 }
  - { offsetInCU: 0x3810E, offset: 0x3810E, size: 0x8, addend: 0x0, symName: __ZNSt3__129_AllocatorDestroyRangeReverseINS_9allocatorINS_3mapINS_12basic_stringIcNS_11char_traitsIcEENS1_IcEEEEdNS_4lessIS7_EENS1_INS_4pairIKS7_dEEEEEEEENS_16reverse_iteratorIPSE_EEEC1B8ue170006ERSF_RSI_SL_, symObjAddr: 0x241AC, symBinAddr: 0x1000254A0, symSize: 0x44 }
  - { offsetInCU: 0x38165, offset: 0x38165, size: 0x8, addend: 0x0, symName: __ZNSt3__116allocator_traitsINS_9allocatorINS_3mapINS_12basic_stringIcNS_11char_traitsIcEENS1_IcEEEEdNS_4lessIS7_EENS1_INS_4pairIKS7_dEEEEEEEEE9constructB8ue170006ISE_JSE_EvvEEvRSF_PT_DpOT0_, symObjAddr: 0x241F0, symBinAddr: 0x1000254E4, symSize: 0x30 }
  - { offsetInCU: 0x381B9, offset: 0x381B9, size: 0x8, addend: 0x0, symName: __ZNKSt3__116reverse_iteratorIPNS_3mapINS_12basic_stringIcNS_11char_traitsIcEENS_9allocatorIcEEEEdNS_4lessIS7_EENS5_INS_4pairIKS7_dEEEEEEEdeB8ue170006Ev, symObjAddr: 0x24220, symBinAddr: 0x100025514, symSize: 0x28 }
  - { offsetInCU: 0x381ED, offset: 0x381ED, size: 0x8, addend: 0x0, symName: __ZNSt3__128__exception_guard_exceptionsINS_29_AllocatorDestroyRangeReverseINS_9allocatorINS_3mapINS_12basic_stringIcNS_11char_traitsIcEENS2_IcEEEEdNS_4lessIS8_EENS2_INS_4pairIKS8_dEEEEEEEENS_16reverse_iteratorIPSF_EEEEE10__completeB8ue170006Ev, symObjAddr: 0x24248, symBinAddr: 0x10002553C, symSize: 0x1C }
  - { offsetInCU: 0x38213, offset: 0x38213, size: 0x8, addend: 0x0, symName: __ZNSt3__128__exception_guard_exceptionsINS_29_AllocatorDestroyRangeReverseINS_9allocatorINS_3mapINS_12basic_stringIcNS_11char_traitsIcEENS2_IcEEEEdNS_4lessIS8_EENS2_INS_4pairIKS8_dEEEEEEEENS_16reverse_iteratorIPSF_EEEEED1B8ue170006Ev, symObjAddr: 0x24264, symBinAddr: 0x100025558, symSize: 0x2C }
  - { offsetInCU: 0x3823D, offset: 0x3823D, size: 0x8, addend: 0x0, symName: __ZNSt3__128__exception_guard_exceptionsINS_29_AllocatorDestroyRangeReverseINS_9allocatorINS_3mapINS_12basic_stringIcNS_11char_traitsIcEENS2_IcEEEEdNS_4lessIS8_EENS2_INS_4pairIKS8_dEEEEEEEENS_16reverse_iteratorIPSF_EEEEEC1B8ue170006ESK_, symObjAddr: 0x24290, symBinAddr: 0x100025584, symSize: 0x34 }
  - { offsetInCU: 0x38276, offset: 0x38276, size: 0x8, addend: 0x0, symName: __ZNSt3__128__exception_guard_exceptionsINS_29_AllocatorDestroyRangeReverseINS_9allocatorINS_3mapINS_12basic_stringIcNS_11char_traitsIcEENS2_IcEEEEdNS_4lessIS8_EENS2_INS_4pairIKS8_dEEEEEEEENS_16reverse_iteratorIPSF_EEEEEC2B8ue170006ESK_, symObjAddr: 0x242C4, symBinAddr: 0x1000255B8, symSize: 0x30 }
  - { offsetInCU: 0x382AF, offset: 0x382AF, size: 0x8, addend: 0x0, symName: __ZNSt3__129_AllocatorDestroyRangeReverseINS_9allocatorINS_3mapINS_12basic_stringIcNS_11char_traitsIcEENS1_IcEEEEdNS_4lessIS7_EENS1_INS_4pairIKS7_dEEEEEEEENS_16reverse_iteratorIPSE_EEEC2B8ue170006ERSF_RSI_SL_, symObjAddr: 0x242F4, symBinAddr: 0x1000255E8, symSize: 0x38 }
  - { offsetInCU: 0x38306, offset: 0x38306, size: 0x8, addend: 0x0, symName: __ZNSt3__13mapINS_12basic_stringIcNS_11char_traitsIcEENS_9allocatorIcEEEEdNS_4lessIS6_EENS4_INS_4pairIKS6_dEEEEEC1B8ue170006EOSD_, symObjAddr: 0x24368, symBinAddr: 0x10002565C, symSize: 0x34 }
  - { offsetInCU: 0x3833F, offset: 0x3833F, size: 0x8, addend: 0x0, symName: __ZNSt3__13mapINS_12basic_stringIcNS_11char_traitsIcEENS_9allocatorIcEEEEdNS_4lessIS6_EENS4_INS_4pairIKS6_dEEEEEC2B8ue170006EOSD_, symObjAddr: 0x2439C, symBinAddr: 0x100025690, symSize: 0x34 }
  - { offsetInCU: 0x38378, offset: 0x38378, size: 0x8, addend: 0x0, symName: __ZNSt3__16__treeINS_12__value_typeINS_12basic_stringIcNS_11char_traitsIcEENS_9allocatorIcEEEEdEENS_19__map_value_compareIS7_S8_NS_4lessIS7_EELb1EEENS5_IS8_EEEC1EOSE_, symObjAddr: 0x243D0, symBinAddr: 0x1000256C4, symSize: 0x34 }
  - { offsetInCU: 0x383B3, offset: 0x383B3, size: 0x8, addend: 0x0, symName: __ZNSt3__16__treeINS_12__value_typeINS_12basic_stringIcNS_11char_traitsIcEENS_9allocatorIcEEEEdEENS_19__map_value_compareIS7_S8_NS_4lessIS7_EELb1EEENS5_IS8_EEEC2EOSE_, symObjAddr: 0x24404, symBinAddr: 0x1000256F8, symSize: 0xFC }
  - { offsetInCU: 0x383EE, offset: 0x383EE, size: 0x8, addend: 0x0, symName: __ZNSt3__128__exception_guard_exceptionsINS_29_AllocatorDestroyRangeReverseINS_9allocatorINS_3mapINS_12basic_stringIcNS_11char_traitsIcEENS2_IcEEEEdNS_4lessIS8_EENS2_INS_4pairIKS8_dEEEEEEEENS_16reverse_iteratorIPSF_EEEEED2B8ue170006Ev, symObjAddr: 0x24500, symBinAddr: 0x1000257F4, symSize: 0x50 }
  - { offsetInCU: 0x38418, offset: 0x38418, size: 0x8, addend: 0x0, symName: __ZNKSt3__129_AllocatorDestroyRangeReverseINS_9allocatorINS_3mapINS_12basic_stringIcNS_11char_traitsIcEENS1_IcEEEEdNS_4lessIS7_EENS1_INS_4pairIKS7_dEEEEEEEENS_16reverse_iteratorIPSE_EEEclB8ue170006Ev, symObjAddr: 0x24550, symBinAddr: 0x100025844, symSize: 0xB4 }
  - { offsetInCU: 0x3843F, offset: 0x3843F, size: 0x8, addend: 0x0, symName: __ZNSt3__116reverse_iteratorINS0_IPNS_3mapINS_12basic_stringIcNS_11char_traitsIcEENS_9allocatorIcEEEEdNS_4lessIS7_EENS5_INS_4pairIKS7_dEEEEEEEEEC1B8ue170006ESG_, symObjAddr: 0x24674, symBinAddr: 0x100025968, symSize: 0x3C }
  - { offsetInCU: 0x38477, offset: 0x38477, size: 0x8, addend: 0x0, symName: __ZNSt3__116reverse_iteratorINS0_IPNS_3mapINS_12basic_stringIcNS_11char_traitsIcEENS_9allocatorIcEEEEdNS_4lessIS7_EENS5_INS_4pairIKS7_dEEEEEEEEEppB8ue170006Ev, symObjAddr: 0x24734, symBinAddr: 0x100025A28, symSize: 0x30 }
  - { offsetInCU: 0x3849D, offset: 0x3849D, size: 0x8, addend: 0x0, symName: __ZNKSt3__116reverse_iteratorINS0_IPNS_3mapINS_12basic_stringIcNS_11char_traitsIcEENS_9allocatorIcEEEEdNS_4lessIS7_EENS5_INS_4pairIKS7_dEEEEEEEEE4baseB8ue170006Ev, symObjAddr: 0x24764, symBinAddr: 0x100025A58, symSize: 0x24 }
  - { offsetInCU: 0x384C9, offset: 0x384C9, size: 0x8, addend: 0x0, symName: __ZNSt3__119__to_address_helperINS_16reverse_iteratorINS1_IPNS_3mapINS_12basic_stringIcNS_11char_traitsIcEENS_9allocatorIcEEEEdNS_4lessIS8_EENS6_INS_4pairIKS8_dEEEEEEEEEEvE6__callB8ue170006ERKSI_, symObjAddr: 0x24788, symBinAddr: 0x100025A7C, symSize: 0x38 }
  - { offsetInCU: 0x384EC, offset: 0x384EC, size: 0x8, addend: 0x0, symName: __ZNKSt3__116reverse_iteratorINS0_IPNS_3mapINS_12basic_stringIcNS_11char_traitsIcEENS_9allocatorIcEEEEdNS_4lessIS7_EENS5_INS_4pairIKS7_dEEEEEEEEEptB8ue170006Ev, symObjAddr: 0x247C0, symBinAddr: 0x100025AB4, symSize: 0x4C }
  - { offsetInCU: 0x38512, offset: 0x38512, size: 0x8, addend: 0x0, symName: __ZNSt3__116reverse_iteratorIPNS_3mapINS_12basic_stringIcNS_11char_traitsIcEENS_9allocatorIcEEEEdNS_4lessIS7_EENS5_INS_4pairIKS7_dEEEEEEEpLB8ue170006El, symObjAddr: 0x248BC, symBinAddr: 0x100025BB0, symSize: 0x30 }
  - { offsetInCU: 0x38546, offset: 0x38546, size: 0x8, addend: 0x0, symName: __ZNSt3__116reverse_iteratorIPNS_3mapINS_12basic_stringIcNS_11char_traitsIcEENS_9allocatorIcEEEEdNS_4lessIS7_EENS5_INS_4pairIKS7_dEEEEEEEmmB8ue170006Ev, symObjAddr: 0x248EC, symBinAddr: 0x100025BE0, symSize: 0x20 }
  - { offsetInCU: 0x3856C, offset: 0x3856C, size: 0x8, addend: 0x0, symName: __ZNSt3__116reverse_iteratorINS0_IPNS_3mapINS_12basic_stringIcNS_11char_traitsIcEENS_9allocatorIcEEEEdNS_4lessIS7_EENS5_INS_4pairIKS7_dEEEEEEEEEC2B8ue170006ESG_, symObjAddr: 0x2490C, symBinAddr: 0x100025C00, symSize: 0x2C }
  - { offsetInCU: 0x385A4, offset: 0x385A4, size: 0x8, addend: 0x0, symName: __ZNSt3__114__split_bufferINS_3mapINS_12basic_stringIcNS_11char_traitsIcEENS_9allocatorIcEEEEdNS_4lessIS7_EENS5_INS_4pairIKS7_dEEEEEERNS5_ISE_EEED2Ev, symObjAddr: 0x24938, symBinAddr: 0x100025C2C, symSize: 0x8C }
  - { offsetInCU: 0x385D0, offset: 0x385D0, size: 0x8, addend: 0x0, symName: __ZNSt3__114__split_bufferINS_3mapINS_12basic_stringIcNS_11char_traitsIcEENS_9allocatorIcEEEEdNS_4lessIS7_EENS5_INS_4pairIKS7_dEEEEEERNS5_ISE_EEE5clearB8ue170006Ev, symObjAddr: 0x249C4, symBinAddr: 0x100025CB8, symSize: 0x28 }
  - { offsetInCU: 0x385F6, offset: 0x385F6, size: 0x8, addend: 0x0, symName: __ZNKSt3__114__split_bufferINS_3mapINS_12basic_stringIcNS_11char_traitsIcEENS_9allocatorIcEEEEdNS_4lessIS7_EENS5_INS_4pairIKS7_dEEEEEERNS5_ISE_EEE8capacityB8ue170006Ev, symObjAddr: 0x249EC, symBinAddr: 0x100025CE0, symSize: 0x40 }
  - { offsetInCU: 0x3861C, offset: 0x3861C, size: 0x8, addend: 0x0, symName: __ZNSt3__114__split_bufferINS_3mapINS_12basic_stringIcNS_11char_traitsIcEENS_9allocatorIcEEEEdNS_4lessIS7_EENS5_INS_4pairIKS7_dEEEEEERNS5_ISE_EEE17__destruct_at_endB8ue170006EPSE_, symObjAddr: 0x24A2C, symBinAddr: 0x100025D20, symSize: 0x2C }
  - { offsetInCU: 0x38650, offset: 0x38650, size: 0x8, addend: 0x0, symName: __ZNSt3__114__split_bufferINS_3mapINS_12basic_stringIcNS_11char_traitsIcEENS_9allocatorIcEEEEdNS_4lessIS7_EENS5_INS_4pairIKS7_dEEEEEERNS5_ISE_EEE17__destruct_at_endB8ue170006EPSE_NS_17integral_constantIbLb0EEE, symObjAddr: 0x24A58, symBinAddr: 0x100025D4C, symSize: 0x80 }
  - { offsetInCU: 0x38691, offset: 0x38691, size: 0x8, addend: 0x0, symName: __ZNKSt3__114__split_bufferINS_3mapINS_12basic_stringIcNS_11char_traitsIcEENS_9allocatorIcEEEEdNS_4lessIS7_EENS5_INS_4pairIKS7_dEEEEEERNS5_ISE_EEE9__end_capB8ue170006Ev, symObjAddr: 0x24AD8, symBinAddr: 0x100025DCC, symSize: 0x28 }
  - { offsetInCU: 0x386B7, offset: 0x386B7, size: 0x8, addend: 0x0, symName: __ZNKSt3__117__compressed_pairIPNS_3mapINS_12basic_stringIcNS_11char_traitsIcEENS_9allocatorIcEEEEdNS_4lessIS7_EENS5_INS_4pairIKS7_dEEEEEERNS5_ISE_EEE5firstB8ue170006Ev, symObjAddr: 0x24B00, symBinAddr: 0x100025DF4, symSize: 0x24 }
  - { offsetInCU: 0x386DD, offset: 0x386DD, size: 0x8, addend: 0x0, symName: __ZNSt3__16__treeINS_12__value_typeINS_12basic_stringIcNS_11char_traitsIcEENS_9allocatorIcEEEENS_6vectorINS_3mapIS7_dNS_4lessIS7_EENS5_INS_4pairIKS7_dEEEEEENS5_ISG_EEEEEENS_19__map_value_compareIS7_SJ_SB_Lb1EEENS5_ISJ_EEE16__emplace_uniqueB8ue170006IRSD_RSI_EENS_9enable_ifIXsr21__can_extract_map_keyIT_S7_NSC_ISD_SI_EEEE5valueENSC_INS_15__tree_iteratorISJ_PNS_11__tree_nodeISJ_PvEElEEbEEE4typeEOSS_OT0_, symObjAddr: 0x24B24, symBinAddr: 0x100025E18, symSize: 0x48 }
  - { offsetInCU: 0x38733, offset: 0x38733, size: 0x8, addend: 0x0, symName: __ZNSt3__14pairINS_14__map_iteratorINS_15__tree_iteratorINS_12__value_typeINS_12basic_stringIcNS_11char_traitsIcEENS_9allocatorIcEEEENS_6vectorINS_3mapIS9_dNS_4lessIS9_EENS7_INS0_IKS9_dEEEEEENS7_ISH_EEEEEEPNS_11__tree_nodeISK_PvEElEEEEbEC1B8ue170006ISP_bLSM_0EEEONS0_IT_T0_EE, symObjAddr: 0x24B6C, symBinAddr: 0x100025E60, symSize: 0x34 }
  - { offsetInCU: 0x38784, offset: 0x38784, size: 0x8, addend: 0x0, symName: __ZNSt3__16__treeINS_12__value_typeINS_12basic_stringIcNS_11char_traitsIcEENS_9allocatorIcEEEENS_6vectorINS_3mapIS7_dNS_4lessIS7_EENS5_INS_4pairIKS7_dEEEEEENS5_ISG_EEEEEENS_19__map_value_compareIS7_SJ_SB_Lb1EEENS5_ISJ_EEE25__emplace_unique_key_argsIS7_JRSD_RSI_EEENSC_INS_15__tree_iteratorISJ_PNS_11__tree_nodeISJ_PvEElEEbEERKT_DpOT0_, symObjAddr: 0x24BA0, symBinAddr: 0x100025E94, symSize: 0xF8 }
  - { offsetInCU: 0x38845, offset: 0x38845, size: 0x8, addend: 0x0, symName: __ZNSt3__16__treeINS_12__value_typeINS_12basic_stringIcNS_11char_traitsIcEENS_9allocatorIcEEEENS_6vectorINS_3mapIS7_dNS_4lessIS7_EENS5_INS_4pairIKS7_dEEEEEENS5_ISG_EEEEEENS_19__map_value_compareIS7_SJ_SB_Lb1EEENS5_ISJ_EEE16__construct_nodeIJRSD_RSI_EEENS_10unique_ptrINS_11__tree_nodeISJ_PvEENS_22__tree_node_destructorINS5_ISU_EEEEEEDpOT_, symObjAddr: 0x24C98, symBinAddr: 0x100025F8C, symSize: 0x118 }
  - { offsetInCU: 0x388BA, offset: 0x388BA, size: 0x8, addend: 0x0, symName: __ZNSt3__116allocator_traitsINS_9allocatorINS_11__tree_nodeINS_12__value_typeINS_12basic_stringIcNS_11char_traitsIcEENS1_IcEEEENS_6vectorINS_3mapIS8_dNS_4lessIS8_EENS1_INS_4pairIKS8_dEEEEEENS1_ISH_EEEEEEPvEEEEE9constructB8ue170006INSD_ISE_SJ_EEJRSE_RSJ_EvvEEvRSN_PT_DpOT0_, symObjAddr: 0x24DB0, symBinAddr: 0x1000260A4, symSize: 0x38 }
  - { offsetInCU: 0x38922, offset: 0x38922, size: 0x8, addend: 0x0, symName: __ZNSt3__14pairIKNS_12basic_stringIcNS_11char_traitsIcEENS_9allocatorIcEEEENS_6vectorINS_3mapIS6_dNS_4lessIS6_EENS4_INS0_IS7_dEEEEEENS4_ISE_EEEEEC1B8ue170006IRS7_RSG_LPv0EEEOT_OT0_, symObjAddr: 0x24E2C, symBinAddr: 0x100026120, symSize: 0x3C }
  - { offsetInCU: 0x38980, offset: 0x38980, size: 0x8, addend: 0x0, symName: __ZNSt3__14pairIKNS_12basic_stringIcNS_11char_traitsIcEENS_9allocatorIcEEEENS_6vectorINS_3mapIS6_dNS_4lessIS6_EENS4_INS0_IS7_dEEEEEENS4_ISE_EEEEEC2B8ue170006IRS7_RSG_LPv0EEEOT_OT0_, symObjAddr: 0x24E68, symBinAddr: 0x10002615C, symSize: 0x70 }
  - { offsetInCU: 0x389DE, offset: 0x389DE, size: 0x8, addend: 0x0, symName: __ZNSt3__14pairINS_14__map_iteratorINS_15__tree_iteratorINS_12__value_typeINS_12basic_stringIcNS_11char_traitsIcEENS_9allocatorIcEEEENS_6vectorINS_3mapIS9_dNS_4lessIS9_EENS7_INS0_IKS9_dEEEEEENS7_ISH_EEEEEEPNS_11__tree_nodeISK_PvEElEEEEbEC2B8ue170006ISP_bLSM_0EEEONS0_IT_T0_EE, symObjAddr: 0x24ED8, symBinAddr: 0x1000261CC, symSize: 0x50 }
  - { offsetInCU: 0x38A2F, offset: 0x38A2F, size: 0x8, addend: 0x0, symName: __ZNKSt3__13mapINS_12basic_stringIcNS_11char_traitsIcEENS_9allocatorIcEEEENS_6vectorINS0_IS6_dNS_4lessIS6_EENS4_INS_4pairIKS6_dEEEEEENS4_ISE_EEEES9_NS4_INSA_ISB_SG_EEEEE4sizeB8ue170006Ev, symObjAddr: 0x24F28, symBinAddr: 0x10002621C, symSize: 0x28 }
  - { offsetInCU: 0x38A55, offset: 0x38A55, size: 0x8, addend: 0x0, symName: __ZNKSt3__16__treeINS_12__value_typeINS_12basic_stringIcNS_11char_traitsIcEENS_9allocatorIcEEEENS_6vectorINS_3mapIS7_dNS_4lessIS7_EENS5_INS_4pairIKS7_dEEEEEENS5_ISG_EEEEEENS_19__map_value_compareIS7_SJ_SB_Lb1EEENS5_ISJ_EEE4sizeB8ue170006Ev, symObjAddr: 0x24FA0, symBinAddr: 0x100026294, symSize: 0x28 }
  - { offsetInCU: 0x38A7B, offset: 0x38A7B, size: 0x8, addend: 0x0, symName: __ZNKSt3__117__compressed_pairImNS_19__map_value_compareINS_12basic_stringIcNS_11char_traitsIcEENS_9allocatorIcEEEENS_12__value_typeIS7_NS_6vectorINS_3mapIS7_dNS_4lessIS7_EENS5_INS_4pairIKS7_dEEEEEENS5_ISH_EEEEEESC_Lb1EEEE5firstB8ue170006Ev, symObjAddr: 0x24FC8, symBinAddr: 0x1000262BC, symSize: 0x24 }
  - { offsetInCU: 0x38AA1, offset: 0x38AA1, size: 0x8, addend: 0x0, symName: __ZNKSt3__110__equal_toclB8ue170006INS_4pairIKNS_12basic_stringIcNS_11char_traitsIcEENS_9allocatorIcEEEENS_6vectorINS_3mapIS8_dNS_4lessIS8_EENS6_INS2_IS9_dEEEEEENS6_ISG_EEEEEESJ_EEbRKT_RKT0_, symObjAddr: 0x25154, symBinAddr: 0x100026448, symSize: 0x34 }
  - { offsetInCU: 0x38AF5, offset: 0x38AF5, size: 0x8, addend: 0x0, symName: __ZNKSt3__16vectorINS_3mapINS_12basic_stringIcNS_11char_traitsIcEENS_9allocatorIcEEEEdNS_4lessIS7_EENS5_INS_4pairIKS7_dEEEEEENS5_ISE_EEE5beginB8ue170006Ev, symObjAddr: 0x252D4, symBinAddr: 0x1000265C8, symSize: 0x30 }
  - { offsetInCU: 0x38B1D, offset: 0x38B1D, size: 0x8, addend: 0x0, symName: __ZNKSt3__16vectorINS_3mapINS_12basic_stringIcNS_11char_traitsIcEENS_9allocatorIcEEEEdNS_4lessIS7_EENS5_INS_4pairIKS7_dEEEEEENS5_ISE_EEE3endB8ue170006Ev, symObjAddr: 0x25304, symBinAddr: 0x1000265F8, symSize: 0x30 }
  - { offsetInCU: 0x38B45, offset: 0x38B45, size: 0x8, addend: 0x0, symName: __ZNKSt3__110__equal_toclB8ue170006INS_3mapINS_12basic_stringIcNS_11char_traitsIcEENS_9allocatorIcEEEEdNS_4lessIS8_EENS6_INS_4pairIKS8_dEEEEEESF_EEbRKT_RKT0_, symObjAddr: 0x25480, symBinAddr: 0x100026774, symSize: 0x34 }
  - { offsetInCU: 0x38B99, offset: 0x38B99, size: 0x8, addend: 0x0, symName: __ZNKSt3__13mapINS_12basic_stringIcNS_11char_traitsIcEENS_9allocatorIcEEEEdNS_4lessIS6_EENS4_INS_4pairIKS6_dEEEEE4sizeB8ue170006Ev, symObjAddr: 0x2554C, symBinAddr: 0x100026840, symSize: 0x28 }
  - { offsetInCU: 0x38BBF, offset: 0x38BBF, size: 0x8, addend: 0x0, symName: __ZNKSt3__16__treeINS_12__value_typeINS_12basic_stringIcNS_11char_traitsIcEENS_9allocatorIcEEEEdEENS_19__map_value_compareIS7_S8_NS_4lessIS7_EELb1EEENS5_IS8_EEE4sizeB8ue170006Ev, symObjAddr: 0x255C4, symBinAddr: 0x1000268B8, symSize: 0x28 }
  - { offsetInCU: 0x38BE5, offset: 0x38BE5, size: 0x8, addend: 0x0, symName: __ZNKSt3__117__compressed_pairImNS_19__map_value_compareINS_12basic_stringIcNS_11char_traitsIcEENS_9allocatorIcEEEENS_12__value_typeIS7_dEENS_4lessIS7_EELb1EEEE5firstB8ue170006Ev, symObjAddr: 0x255EC, symBinAddr: 0x1000268E0, symSize: 0x24 }
  - { offsetInCU: 0x38C0B, offset: 0x38C0B, size: 0x8, addend: 0x0, symName: __ZNKSt3__110__equal_toclB8ue170006INS_4pairIKNS_12basic_stringIcNS_11char_traitsIcEENS_9allocatorIcEEEEdEESA_EEbRKT_RKT0_, symObjAddr: 0x25778, symBinAddr: 0x100026A6C, symSize: 0x34 }
  - { offsetInCU: 0x38C5F, offset: 0x38C5F, size: 0x8, addend: 0x0, symName: __ZNSt3__118__unwrap_iter_implINS_20__map_const_iteratorINS_21__tree_const_iteratorINS_12__value_typeINS_12basic_stringIcNS_11char_traitsIcEENS_9allocatorIcEEEEdEEPNS_11__tree_nodeISA_PvEElEEEELb0EE8__unwrapB8ue170006ESG_, symObjAddr: 0x25810, symBinAddr: 0x100026B04, symSize: 0x1C }
  - { offsetInCU: 0x38C82, offset: 0x38C82, size: 0x8, addend: 0x0, symName: __ZNSt3__118__unwrap_iter_implINS_11__wrap_iterIPKNS_3mapINS_12basic_stringIcNS_11char_traitsIcEENS_9allocatorIcEEEEdNS_4lessIS8_EENS6_INS_4pairIKS8_dEEEEEEEELb1EE8__unwrapB8ue170006ESI_, symObjAddr: 0x2582C, symBinAddr: 0x100026B20, symSize: 0x28 }
  - { offsetInCU: 0x38CB1, offset: 0x38CB1, size: 0x8, addend: 0x0, symName: __ZNSt3__119__to_address_helperINS_11__wrap_iterIPKNS_3mapINS_12basic_stringIcNS_11char_traitsIcEENS_9allocatorIcEEEEdNS_4lessIS8_EENS6_INS_4pairIKS8_dEEEEEEEEvE6__callB8ue170006ERKSI_, symObjAddr: 0x25878, symBinAddr: 0x100026B6C, symSize: 0x30 }
  - { offsetInCU: 0x38CD4, offset: 0x38CD4, size: 0x8, addend: 0x0, symName: __ZNSt3__114pointer_traitsINS_11__wrap_iterIPKNS_3mapINS_12basic_stringIcNS_11char_traitsIcEENS_9allocatorIcEEEEdNS_4lessIS8_EENS6_INS_4pairIKS8_dEEEEEEEEE10to_addressB8ue170006ESI_, symObjAddr: 0x258A8, symBinAddr: 0x100026B9C, symSize: 0x2C }
  - { offsetInCU: 0x38CF7, offset: 0x38CF7, size: 0x8, addend: 0x0, symName: __ZNKSt3__111__wrap_iterIPKNS_3mapINS_12basic_stringIcNS_11char_traitsIcEENS_9allocatorIcEEEEdNS_4lessIS7_EENS5_INS_4pairIKS7_dEEEEEEE4baseB8ue170006Ev, symObjAddr: 0x258D4, symBinAddr: 0x100026BC8, symSize: 0x18 }
  - { offsetInCU: 0x38D1D, offset: 0x38D1D, size: 0x8, addend: 0x0, symName: __ZNKSt3__16vectorINS_3mapINS_12basic_stringIcNS_11char_traitsIcEENS_9allocatorIcEEEEdNS_4lessIS7_EENS5_INS_4pairIKS7_dEEEEEENS5_ISE_EEE11__make_iterB8ue170006EPKSE_, symObjAddr: 0x258EC, symBinAddr: 0x100026BE0, symSize: 0x30 }
  - { offsetInCU: 0x38D52, offset: 0x38D52, size: 0x8, addend: 0x0, symName: __ZNSt3__111__wrap_iterIPKNS_3mapINS_12basic_stringIcNS_11char_traitsIcEENS_9allocatorIcEEEEdNS_4lessIS7_EENS5_INS_4pairIKS7_dEEEEEEEC1B8ue170006ESG_, symObjAddr: 0x2591C, symBinAddr: 0x100026C10, symSize: 0x34 }
  - { offsetInCU: 0x38D8A, offset: 0x38D8A, size: 0x8, addend: 0x0, symName: __ZNSt3__111__wrap_iterIPKNS_3mapINS_12basic_stringIcNS_11char_traitsIcEENS_9allocatorIcEEEEdNS_4lessIS7_EENS5_INS_4pairIKS7_dEEEEEEEC2B8ue170006ESG_, symObjAddr: 0x25950, symBinAddr: 0x100026C44, symSize: 0x20 }
  - { offsetInCU: 0x38DC2, offset: 0x38DC2, size: 0x8, addend: 0x0, symName: __ZNSt3__118__unwrap_iter_implINS_20__map_const_iteratorINS_21__tree_const_iteratorINS_12__value_typeINS_12basic_stringIcNS_11char_traitsIcEENS_9allocatorIcEEEENS_6vectorINS_3mapIS9_dNS_4lessIS9_EENS7_INS_4pairIKS9_dEEEEEENS7_ISI_EEEEEEPNS_11__tree_nodeISL_PvEElEEEELb0EE8__unwrapB8ue170006ESR_, symObjAddr: 0x25970, symBinAddr: 0x100026C64, symSize: 0x1C }
  - { offsetInCU: 0x38DE5, offset: 0x38DE5, size: 0x8, addend: 0x0, symName: __ZNSt3__114basic_iostreamIcNS_11char_traitsIcEEEC2B8ue170006EPNS_15basic_streambufIcS2_EE, symObjAddr: 0x2598C, symBinAddr: 0x100026C80, symSize: 0xAC }
  - { offsetInCU: 0x38E2B, offset: 0x38E2B, size: 0x8, addend: 0x0, symName: __ZNSt3__113basic_istreamIcNS_11char_traitsIcEEEC2B8ue170006EPNS_15basic_streambufIcS2_EE, symObjAddr: 0x25A38, symBinAddr: 0x100026D2C, symSize: 0x64 }
  - { offsetInCU: 0x38E70, offset: 0x38E70, size: 0x8, addend: 0x0, symName: __ZNSt3__113basic_ostreamIcNS_11char_traitsIcEEEC2B8ue170006Ev, symObjAddr: 0x25A9C, symBinAddr: 0x100026D90, symSize: 0x34 }
  - { offsetInCU: 0x38EA7, offset: 0x38EA7, size: 0x8, addend: 0x0, symName: __ZNSt3__14fposI11__mbstate_tEC2B8ue170006Ex, symObjAddr: 0x25AD0, symBinAddr: 0x100026DC4, symSize: 0x40 }
...
